                              1 ;--------------------------------------------------------
                              2 ; File Created by SDCC : FreeWare ANSI-C Compiler
                              3 ; Version 2.3.1 Wed Feb 19 14:34:20 2020
                              4 
                              5 ;--------------------------------------------------------
                              6 	.module lcc18520
                              7 	
                              8 ;--------------------------------------------------------
                              9 ; Public variables in this module
                             10 ;--------------------------------------------------------
                             11 	.globl _map_1_water
                             12 	.globl _main
                             13 	.globl _timers
                             14 	.globl _performantDelay
                             15 	.globl _player
                             16 	.globl _horse
                             17 	.globl _cat
                             18 	.globl _dog2
                             19 	.globl _dog1
                             20 	.globl _bunny
                             21 	.globl _map
                             22 	.globl _input_timer
                             23 	.globl _timer
                             24 	.globl _running
                             25 	.globl _sprites_park
                             26 	.globl _Map1
                             27 	.globl _Characters
                             28 	.globl _map_1
                             29 	.globl _init
                             30 	.globl _is_ded
                             31 	.globl _player_input
                             32 	.globl _can_move
                             33 	.globl _move_character
                             34 	.globl _set_character_sprite
                             35 ;--------------------------------------------------------
                             36 ; special function registers
                             37 ;--------------------------------------------------------
                             38 ;--------------------------------------------------------
                             39 ; special function bits 
                             40 ;--------------------------------------------------------
                             41 ;--------------------------------------------------------
                             42 ; internal ram data
                             43 ;--------------------------------------------------------
                             44 	.area _DATA
   0000                      45 _Characters::
   0000                      46 	.ds 240
   00F0                      47 _Map1::
   00F0                      48 	.ds 360
   0258                      49 _sprites_park::
   0258                      50 	.ds 976
   0628                      51 _running::
   0628                      52 	.ds 1
   0629                      53 _timer::
   0629                      54 	.ds 1
   062A                      55 _input_timer::
   062A                      56 	.ds 1
   062B                      57 _map::
   062B                      58 	.ds 1
   062C                      59 _bunny::
   062C                      60 	.ds 10
   0636                      61 _dog1::
   0636                      62 	.ds 10
   0640                      63 _dog2::
   0640                      64 	.ds 10
   064A                      65 _cat::
   064A                      66 	.ds 10
   0654                      67 _horse::
   0654                      68 	.ds 10
   065E                      69 _player::
   065E                      70 	.ds 2
                             71 ;--------------------------------------------------------
                             72 ; overlayable items in internal ram 
                             73 ;--------------------------------------------------------
                             74 	.area _OVERLAY
                             75 ;--------------------------------------------------------
                             76 ; indirectly addressable internal ram data
                             77 ;--------------------------------------------------------
                             78 	.area _ISEG
                             79 ;--------------------------------------------------------
                             80 ; bit data
                             81 ;--------------------------------------------------------
                             82 	.area _BSEG
                             83 ;--------------------------------------------------------
                             84 ; external ram data
                             85 ;--------------------------------------------------------
                             86 	.area _XSEG
                             87 ;--------------------------------------------------------
                             88 ; global & static initialisations
                             89 ;--------------------------------------------------------
                             90 	.area _GSINIT
                             91 	.area _GSFINAL
                             92 	.area _GSINIT
                             93 ;	game.c 26
                             94 ;	game.c 490
                             95 ;	genArrayInit
                             96 ; _saveRegsForCall: sendSetSize: 0 deInUse: 0 bcInUse: 0 deSending: 0
   0000 21 00 00             97 	ld	hl,#_Characters
   0003 CD 00 00             98 	call	__initrleblock
   0006 2C                   99 	.db	44
   0007 09 00 00 09 00 09   100 	.db	0x09, 0x00, 0x00, 0x09, 0x00, 0x09, 0x0F, 0x00
        0F 00
   000F CA 05 FF 00 3F 00   101 	.db	0xCA, 0x05, 0xFF, 0x00, 0x3F, 0x00, 0x00, 0x45
        00 45
   0017 09 00 00 09 00 09   102 	.db	0x09, 0x00, 0x00, 0x09, 0x00, 0x09, 0x0F, 0x00
        0F 00
   001F CA 05 FF 00 3F 00   103 	.db	0xCA, 0x05, 0xFF, 0x00, 0x3F, 0x00, 0x00, 0x2A
        00 2A
   0027 24 12 00 09 0F 00   104 	.db	0x24, 0x12, 0x00, 0x09, 0x0F, 0x00, 0xCA, 0x05
        CA 05
   002F FF 00 1A 25         105 	.db	0xFF, 0x00, 0x1A, 0x25
   0033 FB 00               106 	.db	-5,0x00
   0035 7F                  107 	.db	127
   0036 13 00 1E 0A 9E 00   108 	.db	0x13, 0x00, 0x1E, 0x0A, 0x9E, 0x00, 0x9F, 0x02
        9F 02
   003E FF 00 FF 00 7E 00   109 	.db	0xFF, 0x00, 0xFF, 0x00, 0x7E, 0x00, 0x4A, 0x00
        4A 00
   0046 13 00 1E 0A 9E 00   110 	.db	0x13, 0x00, 0x1E, 0x0A, 0x9E, 0x00, 0x9F, 0x02
        9F 02
   004E FF 00 FF 00 7E 00   111 	.db	0xFF, 0x00, 0xFF, 0x00, 0x7E, 0x00, 0x94, 0x00
        94 00
   0056 08 02 08 02 38 02   112 	.db	0x08, 0x02, 0x08, 0x02, 0x38, 0x02, 0x28, 0x02
        28 02
   005E 38 00 00 00 00 15   113 	.db	0x38, 0x00, 0x00, 0x00, 0x00, 0x15, 0x15, 0x94
        15 94
   0066 00 9C 00 9E 0A FF   114 	.db	0x00, 0x9C, 0x00, 0x9E, 0x0A, 0xFF, 0x01, 0xFE
        01 FE
   006E 00 7C 00 4A 00 49   115 	.db	0x00, 0x7C, 0x00, 0x4A, 0x00, 0x49, 0x00, 0x94
        00 94
   0076 00 9C 00 9E 0A FF   116 	.db	0x00, 0x9C, 0x00, 0x9E, 0x0A, 0xFF, 0x01, 0xFE
        01 FE
   007E 00 7C 00 4A 00 92   117 	.db	0x00, 0x7C, 0x00, 0x4A, 0x00, 0x92, 0x00, 0x00
        00 00
   0086 10 05 10 05 70 05   118 	.db	0x10, 0x05, 0x10, 0x05, 0x70, 0x05, 0x50, 0x05
        50 05
   008E 70 00 00 00 00 15   119 	.db	0x70, 0x00, 0x00, 0x00, 0x00, 0x15, 0x15, 0x00
        15 00
   0096 00 04 70 04 40 04   120 	.db	0x00, 0x04, 0x70, 0x04, 0x40, 0x04, 0x40, 0x04
        40 04
   009E 70 00 00 00 00 01   121 	.db	0x70, 0x00, 0x00, 0x00, 0x00, 0x01, 0x01, 0x00
        01 00
   00A6 00 04 70 04 40 04   122 	.db	0x00, 0x04, 0x70, 0x04, 0x40, 0x04, 0x40, 0x04
        40 04
   00AE 70 00 00 00 00 05   123 	.db	0x70, 0x00, 0x00, 0x00, 0x00, 0x05, 0x05
        05
   00B5 40                  124 	.db	64
   00B6 00 00 04 70 04 40   125 	.db	0x00, 0x00, 0x04, 0x70, 0x04, 0x40, 0x04, 0x40
        04 40
   00BE 04 70 00 00 00 00   126 	.db	0x04, 0x70, 0x00, 0x00, 0x00, 0x00, 0x15, 0x15
        15 15
   00C6 7E 7E 81 81 81 89   127 	.db	0x7E, 0x7E, 0x81, 0x81, 0x81, 0x89, 0x89, 0x85
        89 85
   00CE 91 81 A1 81 81 81   128 	.db	0x91, 0x81, 0xA1, 0x81, 0x81, 0x81, 0x7E, 0x7E
        7E 7E
   00D6 00 00 00 38 38 7C   129 	.db	0x00, 0x00, 0x00, 0x38, 0x38, 0x7C, 0x38, 0x7C
        38 7C
   00DE 10 38 10 38 18 3C   130 	.db	0x10, 0x38, 0x10, 0x38, 0x18, 0x3C, 0x00, 0x3C
        00 3C
   00E6 00 00 04 02 01 09   131 	.db	0x00, 0x00, 0x04, 0x02, 0x01, 0x09, 0x09, 0xF9
        09 F9
   00EE A9 A9 06 06 00 00   132 	.db	0xA9, 0xA9, 0x06, 0x06, 0x00, 0x00, 0x00, 0x00
        00 00
   00F6 00                  133 	.db	0
                            134 ;	game.c 25
                            135 ;	game.c 490
                            136 ;	genArrayInit
                            137 ; _saveRegsForCall: sendSetSize: 0 deInUse: 0 bcInUse: 0 deSending: 0
   00F7 21 F0 00            138 	ld	hl,#_Map1
   00FA CD 00 00            139 	call	__initrleblock
   00FD 04                  140 	.db	4
   00FE 01 01 01 01         141 	.db	0x01, 0x01, 0x01, 0x01
   0102 F0 16               142 	.db	-16,0x16
   0104 04                  143 	.db	4
   0105 01 01 02 01         144 	.db	0x01, 0x01, 0x02, 0x01
   0109 F1 00               145 	.db	-15,0x00
   010B 0C                  146 	.db	12
   010C 16 01 01 01 01 15   147 	.db	0x16, 0x01, 0x01, 0x01, 0x01, 0x15, 0x15, 0x15
        15 15
   0114 17 17 17 17         148 	.db	0x17, 0x17, 0x17, 0x17
   0118 FA 15               149 	.db	-6,0x15
   011A 09                  150 	.db	9
   011B 02 00 16 02 01 15   151 	.db	0x02, 0x00, 0x16, 0x02, 0x01, 0x15, 0x17, 0x17
        17 17
   0123 17                  152 	.db	0x17
   0124 FA 15               153 	.db	-6,0x15
   0126 20                  154 	.db	32
   0127 17 15 15 15 17 15   155 	.db	0x17, 0x15, 0x15, 0x15, 0x17, 0x15, 0x00, 0x16
        00 16
   012F 01 15 17 15 01 01   156 	.db	0x01, 0x15, 0x17, 0x15, 0x01, 0x01, 0x02, 0x02
        02 02
   0137 01 02 15 15 15 17   157 	.db	0x01, 0x02, 0x15, 0x15, 0x15, 0x17, 0x15, 0x15
        15 15
   013F 15 15 00 16 15 15   158 	.db	0x15, 0x15, 0x00, 0x16, 0x15, 0x15, 0x15, 0x01
        15 01
   0147 FB 02               159 	.db	-5,0x02
   0149 06                  160 	.db	6
   014A 01 15 01 01 01 17   161 	.db	0x01, 0x15, 0x01, 0x01, 0x01, 0x17
   0150 FB 0B               162 	.db	-5,0x0B
   0152 51                  163 	.db	81
   0153 15 17 01 01 02 02   164 	.db	0x15, 0x17, 0x01, 0x01, 0x02, 0x02, 0x02, 0x02
        02 02
   015B 01 01 15 01 02 01   165 	.db	0x01, 0x01, 0x15, 0x01, 0x02, 0x01, 0x15, 0x0B
        15 0B
   0163 0B 05 00 05 15 17   166 	.db	0x0B, 0x05, 0x00, 0x05, 0x15, 0x17, 0x02, 0x01
        02 01
   016B 01 02 02 02 01 01   167 	.db	0x01, 0x02, 0x02, 0x02, 0x01, 0x01, 0x29, 0x02
        29 02
   0173 02 01 15 0B 05 01   168 	.db	0x02, 0x01, 0x15, 0x0B, 0x05, 0x01, 0x00, 0x02
        00 02
   017B 15 17 15 01 01 02   169 	.db	0x15, 0x17, 0x15, 0x01, 0x01, 0x02, 0x02, 0x02
        02 02
   0183 01 01 15 02 02 01   170 	.db	0x01, 0x01, 0x15, 0x02, 0x02, 0x01, 0x15, 0x05
        15 05
   018B 01 00 02 02 15 15   171 	.db	0x01, 0x00, 0x02, 0x02, 0x15, 0x15, 0x15, 0x15
        15 15
   0193 01 01 02 02 02 02   172 	.db	0x01, 0x01, 0x02, 0x02, 0x02, 0x02, 0x15, 0x02
        15 02
   019B 02 02 17 01 01 00   173 	.db	0x02, 0x02, 0x17, 0x01, 0x01, 0x00, 0x01, 0x01
        01 01
   01A3 2B                  174 	.db	0x2B
   01A4 F9 15               175 	.db	-7,0x15
   01A6 3C                  176 	.db	60
   01A7 17 17 17 15 15 15   177 	.db	0x17, 0x17, 0x17, 0x15, 0x15, 0x15, 0x01, 0x01
        01 01
   01AF 00 02 02 01 02 06   178 	.db	0x00, 0x02, 0x02, 0x01, 0x02, 0x06, 0x0B, 0x0B
        0B 0B
   01B7 0B 04 02 01 01 02   179 	.db	0x0B, 0x04, 0x02, 0x01, 0x01, 0x02, 0x02, 0x06
        02 06
   01BF 0B 04 01 00 01 02   180 	.db	0x0B, 0x04, 0x01, 0x00, 0x01, 0x02, 0x02, 0x15
        02 15
   01C7 02 06 0B 0B 0B 04   181 	.db	0x02, 0x06, 0x0B, 0x0B, 0x0B, 0x04, 0x02, 0x02
        02 02
   01CF 02 01 02 06 0B 00   182 	.db	0x02, 0x01, 0x02, 0x06, 0x0B, 0x00, 0x00, 0x02
        00 02
   01D7 02 02 02 17 01 02   183 	.db	0x02, 0x02, 0x02, 0x17, 0x01, 0x02, 0x15, 0x15
        15 15
   01DF 17 17 17 17         184 	.db	0x17, 0x17, 0x17, 0x17
   01E3 F9 15               185 	.db	-7,0x15
   01E5 07                  186 	.db	7
   01E6 17 17 15 15 15 01   187 	.db	0x17, 0x17, 0x15, 0x15, 0x15, 0x01, 0x02
        02
   01ED F6 15               188 	.db	-10,0x15
   01EF 28                  189 	.db	40
   01F0 17 15 15 15 15 17   190 	.db	0x17, 0x15, 0x15, 0x15, 0x15, 0x17, 0x15, 0x17
        15 17
   01F8 02 02 02 06 0B 0B   191 	.db	0x02, 0x02, 0x02, 0x06, 0x0B, 0x0B, 0x04, 0x06
        04 06
   0200 0B 0B 04 06 0B 0B   192 	.db	0x0B, 0x0B, 0x04, 0x06, 0x0B, 0x0B, 0x06, 0x0B
        06 0B
   0208 0B 04 01 01 02 01   193 	.db	0x0B, 0x04, 0x01, 0x01, 0x02, 0x01, 0x02, 0x06
        02 06
   0210 0B 0B 04 06 0B 0B   194 	.db	0x0B, 0x0B, 0x04, 0x06, 0x0B, 0x0B, 0x04, 0x06
        04 06
   0218 FB 0B               195 	.db	-5,0x0B
   021A 0F                  196 	.db	15
   021B 04 01 01 02 01 02   197 	.db	0x04, 0x01, 0x01, 0x02, 0x01, 0x02, 0x06, 0x0B
        06 0B
   0223 0B 04 06 0B 0B 04   198 	.db	0x0B, 0x04, 0x06, 0x0B, 0x0B, 0x04, 0x06
        06
   022A FB 0B               199 	.db	-5,0x0B
   022C 03                  200 	.db	3
   022D 04 01 01            201 	.db	0x04, 0x01, 0x01
   0230 00                  202 	.db	0
                            203 ;	game.c 26
                            204 ;	game.c 490
                            205 ;	genArrayInit
                            206 ; _saveRegsForCall: sendSetSize: 0 deInUse: 0 bcInUse: 0 deSending: 0
   0231 21 58 02            207 	ld	hl,#_sprites_park
   0234 CD 00 00            208 	call	__initrleblock
   0237 0F                  209 	.db	15
   0238 7F 00 80 00 80 00   210 	.db	0x7F, 0x00, 0x80, 0x00, 0x80, 0x00, 0x80, 0x00
        80 00
   0240 80 00 80 00 80 00   211 	.db	0x80, 0x00, 0x80, 0x00, 0x80, 0x00, 0x80
        80
   0247 FB 00               212 	.db	-5,0x00
   0249 09                  213 	.db	9
   024A 10 00 00 00 02 00   214 	.db	0x10, 0x00, 0x00, 0x00, 0x02, 0x00, 0x00, 0x00
        00 00
   0252 20                  215 	.db	0x20
   0253 F7 00               216 	.db	-9,0x00
   0255 01                  217 	.db	1
   0256 10                  218 	.db	0x10
   0257 F7 00               219 	.db	-9,0x00
   0259 21                  220 	.db	33
   025A 94 08 00 00 42 00   221 	.db	0x94, 0x08, 0x00, 0x00, 0x42, 0x00, 0x00, 0x08
        00 08
   0262 00 80 25 00 50 00   222 	.db	0x00, 0x80, 0x25, 0x00, 0x50, 0x00, 0x02, 0x40
        02 40
   026A 00 00 90 00 00 00   223 	.db	0x00, 0x00, 0x90, 0x00, 0x00, 0x00, 0x84, 0x00
        84 00
   0272 80 00 00 10 80 00   224 	.db	0x80, 0x00, 0x00, 0x10, 0x80, 0x00, 0x00, 0x00
        00 00
   027A 5A                  225 	.db	0x5A
   027B FB 00               226 	.db	-5,0x00
   027D 05                  227 	.db	5
   027E 02 20 00 00 08      228 	.db	0x02, 0x20, 0x00, 0x00, 0x08
   0283 F9 00               229 	.db	-7,0x00
   0285 0B                  230 	.db	11
   0286 01 00 00 08 01 00   231 	.db	0x01, 0x00, 0x00, 0x08, 0x01, 0x00, 0x21, 0x00
        21 00
   028E 00 00 09            232 	.db	0x00, 0x00, 0x09
   0291 F9 00               233 	.db	-7,0x00
   0293 0B                  234 	.db	11
   0294 10 08 00 00 40 04   235 	.db	0x10, 0x08, 0x00, 0x00, 0x40, 0x04, 0x00, 0x00
        00 00
   029C 00 00 5A            236 	.db	0x00, 0x00, 0x5A
   029F CF 00               237 	.db	-49,0x00
   02A1 0F                  238 	.db	15
   02A2 FF 00 DD 00 AA 00   239 	.db	0xFF, 0x00, 0xDD, 0x00, 0xAA, 0x00, 0xFF, 0x00
        FF 00
   02AA FF 00 BB 00 55 00   240 	.db	0xFF, 0x00, 0xBB, 0x00, 0x55, 0x00, 0xFF
        FF
   02B1 81 00               241 	.db	-127,0x00
   02B3 EE 00               242 	.db	-18,0x00
   02B5 30                  243 	.db	48
   02B6 3C 00 6E 10 FF 00   244 	.db	0x3C, 0x00, 0x6E, 0x10, 0xFF, 0x00, 0xBF, 0x40
        BF 40
   02BE DD 22 76 08 00 3C   245 	.db	0xDD, 0x22, 0x76, 0x08, 0x00, 0x3C, 0x00, 0x3C
        00 3C
   02C6 7F FF FF 80 C0 BF   246 	.db	0x7F, 0xFF, 0xFF, 0x80, 0xC0, 0xBF, 0xC0, 0xBF
        C0 BF
   02CE C0 BF C0 BF C0 BF   247 	.db	0xC0, 0xBF, 0xC0, 0xBF, 0xC0, 0xBF, 0xC0, 0xBF
        C0 BF
   02D6 3C 00 7E 00 DF 20   248 	.db	0x3C, 0x00, 0x7E, 0x00, 0xDF, 0x20, 0xFF, 0x00
        FF 00
   02DE F3 0C 7E 00 18 24   249 	.db	0xF3, 0x0C, 0x7E, 0x00, 0x18, 0x24, 0x00, 0x3C
        00 3C
   02E6 81 00               250 	.db	-127,0x00
   02E8 81 00               251 	.db	-127,0x00
   02EA EE 00               252 	.db	-18,0x00
   02EC 30                  253 	.db	48
   02ED 7E FF C7 C7 BB BB   254 	.db	0x7E, 0xFF, 0xC7, 0xC7, 0xBB, 0xBB, 0xBB, 0xBB
        BB BB
   02F5 D7 D7 D7 D7 DB DB   255 	.db	0xD7, 0xD7, 0xD7, 0xD7, 0xDB, 0xDB, 0x42, 0xC3
        42 C3
   02FD 24 00 7E 00 C7 00   256 	.db	0x24, 0x00, 0x7E, 0x00, 0xC7, 0x00, 0x46, 0x00
        46 00
   0305 6E 00 EF 00 66 00   257 	.db	0x6E, 0x00, 0xEF, 0x00, 0x66, 0x00, 0x3C, 0x00
        3C 00
   030D 3C 00 76 00 FF 00   258 	.db	0x3C, 0x00, 0x76, 0x00, 0xFF, 0x00, 0xBF, 0x00
        BF 00
   0315 FB 00 7E 00 00 3C   259 	.db	0xFB, 0x00, 0x7E, 0x00, 0x00, 0x3C, 0x00, 0x3C
        00 3C
   031D 81 00               260 	.db	-127,0x00
   031F 81 00               261 	.db	-127,0x00
   0321 EE 00               262 	.db	-18,0x00
   0323 00                  263 	.db	0
                            264 ;--------------------------------------------------------
                            265 ; Home
                            266 ;--------------------------------------------------------
                            267 	.area _HOME
                            268 	.area _CODE
                            269 ;--------------------------------------------------------
                            270 ; code
                            271 ;--------------------------------------------------------
                            272 	.area _CODE
                            273 ;	game.c 34
                            274 ;	genLabel
                            275 ;	genFunction
                            276 ;	---------------------------------
                            277 ; Function performantDelay
                            278 ; ---------------------------------
   0000                     279 ___performantDelay_start:
   0000                     280 _performantDelay:
                            281 	
                            282 ;	game.c 36
                            283 ;	genAssign
   0000 0E 00               284 	ld	c,#0x00
                            285 ;	genLabel
   0002                     286 00101$:
                            287 ;	genCmpEq
                            288 ;	AOP_STK for 
                            289 ; genCmpEq: left 1, right 1, result 0
   0002 F8 02               290 	lda	hl,2(sp)
   0004 7E                  291 	ld	a,(hl)
   0005 B9                  292 	cp	c
   0006 20 03               293 	jr	nz,00109$
   0008 C3 15 00            294 	jp	00105$
   000B                     295 00109$:
                            296 ;	game.c 37
                            297 ;	genCall
                            298 ; _saveRegsForCall: sendSetSize: 0 deInUse: 0 bcInUse: 1 deSending: 0
   000B C5                  299 	push	bc
   000C CD 00 00            300 	call	_wait_vbl_done
   000F E1                  301 	pop	hl
   0010 4D                  302 	ld	c,l
                            303 ;	game.c 36
                            304 ;	genPlus
                            305 ;	genPlusIncr
                            306 ; Removed redundent load
   0011 0C                  307 	inc	c
                            308 ;	genGoto
   0012 C3 02 00            309 	jp	00101$
                            310 ;	genLabel
   0015                     311 00105$:
                            312 ;	genEndFunction
                            313 	
   0015 C9                  314 	ret
   0016                     315 ___performantDelay_end:
                            316 ;	game.c 59
                            317 ;	genLabel
                            318 ;	genFunction
                            319 ;	---------------------------------
                            320 ; Function timers
                            321 ; ---------------------------------
   0016                     322 ___timers_start:
   0016                     323 _timers:
                            324 	
                            325 ;	game.c 61
                            326 ;	genCmpEq
                            327 ;	AOP_HL for _input_timer
                            328 ; genCmpEq: left 1, right 1, result 0
   0016 21 2A 06            329 	ld	hl,#_input_timer
   0019 7E                  330 	ld	a,(hl)
   001A B7                  331 	or	a,a
   001B CA 22 00            332 	jp	z,00102$
   001E                     333 00106$:
                            334 ;	game.c 62
                            335 ;	genMinus
                            336 ;	AOP_HL for _input_timer
   001E 21 2A 06            337 	ld	hl,#_input_timer
   0021 35                  338 	dec	(hl)
                            339 ;	genLabel
   0022                     340 00102$:
                            341 ;	game.c 64
                            342 ;	genPlus
                            343 ;	AOP_HL for _timer
                            344 ;	genPlusIncr
   0022 21 29 06            345 	ld	hl,#_timer
   0025 34                  346 	inc	(hl)
                            347 ;	genLabel
   0026                     348 00103$:
                            349 ;	genEndFunction
                            350 	
   0026 C9                  351 	ret
   0027                     352 ___timers_end:
                            353 ;	game.c 67
                            354 ;	genLabel
                            355 ;	genFunction
                            356 ;	---------------------------------
                            357 ; Function main
                            358 ; ---------------------------------
   0027                     359 ___main_start:
   0027                     360 _main:
                            361 	
                            362 ;	game.c 69
                            363 ;	genCall
                            364 ; _saveRegsForCall: sendSetSize: 0 deInUse: 0 bcInUse: 0 deSending: 0
   0027 CD 9E 01            365 	call	_init
                            366 ;	game.c 71
                            367 ;	genLabel
   002A                     368 00103$:
                            369 ;	genIfx
                            370 ;	AOP_HL for _running
   002A AF                  371 	xor	a,a
   002B 21 28 06            372 	ld	hl,#_running
   002E B6                  373 	or	a,(hl)
   002F CA 55 00            374 	jp	z,00105$
                            375 ;	game.c 75
                            376 ;	genCall
                            377 ; _saveRegsForCall: sendSetSize: 0 deInUse: 0 bcInUse: 0 deSending: 0
   0032 CD 16 00            378 	call	_timers
                            379 ;	game.c 76
                            380 ;	genCmpEq
                            381 ;	AOP_HL for _map
                            382 ; genCmpEq: left 1, right 1, result 0
   0035 21 2B 06            383 	ld	hl,#_map
   0038 7E                  384 	ld	a,(hl)
   0039 FE 01               385 	cp	a,#0x01
   003B C2 2A 00            386 	jp	nz,00103$
   003E 18 03               387 	jr	00116$
   0040                     388 00115$:
   0040 C3 2A 00            389 	jp	00103$
   0043                     390 00116$:
                            391 ;	game.c 77
                            392 ;	genCall
                            393 ; _saveRegsForCall: sendSetSize: 0 deInUse: 0 bcInUse: 0 deSending: 0
   0043 CD 1A 01            394 	call	_map_1
                            395 ;	game.c 78
                            396 ;	genIpush
                            397 ; _saveRegsForCall: sendSetSize: 0 deInUse: 0 bcInUse: 0 deSending: 0
   0046 3E 02               398 	ld	a,#0x02
   0048 F5                  399 	push	af
   0049 33                  400 	inc	sp
                            401 ;	genCall
   004A CD 00 00            402 	call	_performantDelay
   004D E8 01               403 	lda	sp,1(sp)
                            404 ;	game.c 79
                            405 ;	genCall
                            406 ; _saveRegsForCall: sendSetSize: 0 deInUse: 0 bcInUse: 0 deSending: 0
   004F CD 6B 00            407 	call	_map_1_water
                            408 ;	genGoto
   0052 C3 2A 00            409 	jp	00103$
                            410 ;	genLabel
   0055                     411 00105$:
                            412 ;	game.c 83
                            413 ;	genIpush
                            414 ; _saveRegsForCall: sendSetSize: 0 deInUse: 0 bcInUse: 0 deSending: 0
   0055 21 62 00            415 	ld	hl,#__str_0
   0058 E5                  416 	push	hl
                            417 ;	genCall
   0059 CD 00 00            418 	call	_printf
   005C E8 02               419 	lda	sp,2(sp)
                            420 ;	game.c 84
                            421 ;	genLabel
   005E                     422 00107$:
                            423 ;	genGoto
   005E C3 5E 00            424 	jp	00107$
                            425 ;	genLabel
   0061                     426 00109$:
                            427 ;	genEndFunction
                            428 	
   0061 C9                  429 	ret
   0062                     430 ___main_end:
   0062                     431 __str_0:
   0062 54 68 65 20 65 6E   432 	.ascii "The end"
        64
   0069 0A                  433 	.db 0x0A
   006A 00                  434 	.db 0x00
                            435 ;	game.c 90
                            436 ;	genLabel
                            437 ;	genFunction
                            438 ;	---------------------------------
                            439 ; Function map_1_water
                            440 ; ---------------------------------
   006B                     441 ___map_1_water_start:
   006B                     442 _map_1_water:
   006B E8 DC               443 	lda	sp,-36(sp)
                            444 ;	game.c 91
                            445 ;	genAddrOf
   006D F8 14               446 	lda	hl,20(sp)
   006F 4D                  447 	ld	c,l
   0070 44                  448 	ld	b,h
                            449 ;	genAssign
                            450 ;	AOP_STK for _map_1_water_sloc0_1_0
   0071 F8 02               451 	lda	hl,2(sp)
   0073 71                  452 	ld	(hl),c
   0074 23                  453 	inc	hl
   0075 70                  454 	ld	(hl),b
                            455 ;	genArrayInit
                            456 ;	AOP_STK for _map_1_water_sloc0_1_0
                            457 ; _saveRegsForCall: sendSetSize: 0 deInUse: 0 bcInUse: 1 deSending: 0
   0076 C5                  458 	push	bc
   0077 2B                  459 	dec	hl
   0078 2A                  460 	ld	a,(hl+)
   0079 66                  461 	ld	h,(hl)
   007A 6F                  462 	ld	l,a
   007B CD 00 00            463 	call	__initrleblock
   007E 10                  464 	.db	16
   007F FF 00 DD 00 AA 00   465 	.db	0xFF, 0x00, 0xDD, 0x00, 0xAA, 0x00, 0xFF, 0x00
        FF 00
   0087 FF 00 BB 00 55 00   466 	.db	0xFF, 0x00, 0xBB, 0x00, 0x55, 0x00, 0xFF, 0x00
        FF 00
   008F 00                  467 	.db	0
   0090 C1                  468 	pop	bc
                            469 ;	game.c 97
                            470 ;	genAddrOf
                            471 ;	AOP_STK for _map_1_water_sloc0_1_0
   0091 F8 04               472 	lda	hl,4(sp)
   0093 7D                  473 	ld	a,l
   0094 54                  474 	ld	d,h
   0095 F8 02               475 	lda	hl,2(sp)
   0097 22                  476 	ld	(hl+),a
   0098 72                  477 	ld	(hl),d
                            478 ;	genAssign
                            479 ;	AOP_STK for _map_1_water_sloc0_1_0
                            480 ;	AOP_STK for _map_1_water_sloc1_1_0
   0099 2B                  481 	dec	hl
   009A 2A                  482 	ld	a,(hl+)
   009B 5E                  483 	ld	e,(hl)
   009C F8 00               484 	lda	hl,0(sp)
   009E 22                  485 	ld	(hl+),a
   009F 73                  486 	ld	(hl),e
                            487 ;	genArrayInit
                            488 ;	AOP_STK for _map_1_water_sloc1_1_0
                            489 ; _saveRegsForCall: sendSetSize: 0 deInUse: 0 bcInUse: 1 deSending: 0
   00A0 C5                  490 	push	bc
   00A1 2B                  491 	dec	hl
   00A2 2A                  492 	ld	a,(hl+)
   00A3 66                  493 	ld	h,(hl)
   00A4 6F                  494 	ld	l,a
   00A5 CD 00 00            495 	call	__initrleblock
   00A8 10                  496 	.db	16
   00A9 FF 00 BB 00 55 00   497 	.db	0xFF, 0x00, 0xBB, 0x00, 0x55, 0x00, 0xFF, 0x00
        FF 00
   00B1 FF 00 DD 00 AA 00   498 	.db	0xFF, 0x00, 0xDD, 0x00, 0xAA, 0x00, 0xFF, 0x00
        FF 00
   00B9 00                  499 	.db	0
   00BA C1                  500 	pop	bc
                            501 ;	game.c 103
                            502 ;	genIpush
                            503 ; _saveRegsForCall: sendSetSize: 0 deInUse: 0 bcInUse: 1 deSending: 0
   00BB C5                  504 	push	bc
   00BC 3E 20               505 	ld	a,#0x20
   00BE F5                  506 	push	af
   00BF 33                  507 	inc	sp
                            508 ;	genIpush
                            509 ;	AOP_HL for _timer
   00C0 21 29 06            510 	ld	hl,#_timer
   00C3 7E                  511 	ld	a,(hl)
   00C4 F5                  512 	push	af
   00C5 33                  513 	inc	sp
                            514 ;	genCall
   00C6 CD 00 00            515 	call	__moduchar_rrx_s
                            516 ;	AOP_STK for _map_1_water_sloc1_1_0
   00C9 F8 04               517 	lda	hl,4(sp)
   00CB 73                  518 	ld	(hl),e
   00CC E8 02               519 	lda	sp,2(sp)
   00CE C1                  520 	pop	bc
                            521 ;	genCmpEq
                            522 ;	AOP_STK for _map_1_water_sloc1_1_0
                            523 ; genCmpEq: left 1, right 1, result 0
   00CF F8 00               524 	lda	hl,0(sp)
   00D1 7E                  525 	ld	a,(hl)
   00D2 B7                  526 	or	a,a
   00D3 C2 17 01            527 	jp	nz,00106$
   00D6 18 03               528 	jr	00111$
   00D8                     529 00110$:
   00D8 C3 17 01            530 	jp	00106$
   00DB                     531 00111$:
                            532 ;	game.c 104
                            533 ;	genIpush
                            534 ; _saveRegsForCall: sendSetSize: 0 deInUse: 0 bcInUse: 1 deSending: 0
   00DB C5                  535 	push	bc
   00DC 3E 40               536 	ld	a,#0x40
   00DE F5                  537 	push	af
   00DF 33                  538 	inc	sp
                            539 ;	genIpush
                            540 ;	AOP_HL for _timer
   00E0 21 29 06            541 	ld	hl,#_timer
   00E3 7E                  542 	ld	a,(hl)
   00E4 F5                  543 	push	af
   00E5 33                  544 	inc	sp
                            545 ;	genCall
   00E6 CD 00 00            546 	call	__moduchar_rrx_s
                            547 ;	AOP_STK for _map_1_water_sloc1_1_0
   00E9 F8 04               548 	lda	hl,4(sp)
   00EB 73                  549 	ld	(hl),e
   00EC E8 02               550 	lda	sp,2(sp)
   00EE C1                  551 	pop	bc
                            552 ;	genCmpEq
                            553 ;	AOP_STK for _map_1_water_sloc1_1_0
                            554 ; genCmpEq: left 1, right 1, result 0
   00EF F8 00               555 	lda	hl,0(sp)
   00F1 7E                  556 	ld	a,(hl)
   00F2 B7                  557 	or	a,a
   00F3 C2 08 01            558 	jp	nz,00102$
   00F6 18 03               559 	jr	00113$
   00F8                     560 00112$:
   00F8 C3 08 01            561 	jp	00102$
   00FB                     562 00113$:
                            563 ;	game.c 105
                            564 ;	genIpush
                            565 ; _saveRegsForCall: sendSetSize: 0 deInUse: 0 bcInUse: 0 deSending: 0
   00FB C5                  566 	push	bc
                            567 ;	genIpush
   00FC 21 0B 01            568 	ld	hl,#0x010B
   00FF E5                  569 	push	hl
                            570 ;	genCall
   0100 CD 00 00            571 	call	_set_bkg_data
   0103 E8 04               572 	lda	sp,4(sp)
                            573 ;	genGoto
   0105 C3 17 01            574 	jp	00106$
                            575 ;	genLabel
   0108                     576 00102$:
                            577 ;	game.c 109
                            578 ;	genIpush
                            579 ; _saveRegsForCall: sendSetSize: 0 deInUse: 0 bcInUse: 0 deSending: 0
                            580 ;	AOP_STK for _map_1_water_sloc0_1_0
   0108 F8 02               581 	lda	hl,2(sp)
   010A 2A                  582 	ld	a,(hl+)
   010B 66                  583 	ld	h,(hl)
   010C 6F                  584 	ld	l,a
   010D E5                  585 	push	hl
                            586 ;	genIpush
   010E 21 0B 01            587 	ld	hl,#0x010B
   0111 E5                  588 	push	hl
                            589 ;	genCall
   0112 CD 00 00            590 	call	_set_bkg_data
   0115 E8 04               591 	lda	sp,4(sp)
                            592 ;	genLabel
   0117                     593 00106$:
                            594 ;	genEndFunction
   0117 E8 24               595 	lda	sp,36(sp)
   0119 C9                  596 	ret
   011A                     597 ___map_1_water_end:
                            598 ;	game.c 154
                            599 ;	genLabel
                            600 ;	genFunction
                            601 ;	---------------------------------
                            602 ; Function map_1
                            603 ; ---------------------------------
   011A                     604 ___map_1_start:
   011A                     605 _map_1:
                            606 	
                            607 ;	game.c 156
                            608 ;	genIpush
                            609 ; _saveRegsForCall: sendSetSize: 0 deInUse: 0 bcInUse: 0 deSending: 0
   011A 21 5E 06            610 	ld	hl,#_player
   011D E5                  611 	push	hl
                            612 ;	genCall
   011E CD 7F 02            613 	call	_is_ded
   0121 42                  614 	ld	b,d
   0122 4B                  615 	ld	c,e
   0123 E8 02               616 	lda	sp,2(sp)
                            617 ;	genIfx
   0125 79                  618 	ld	a,c
   0126 B0                  619 	or	a,b
   0127 CA 2D 01            620 	jp	z,00102$
                            621 ;	game.c 157
                            622 ;	genCall
                            623 ; _saveRegsForCall: sendSetSize: 0 deInUse: 0 bcInUse: 0 deSending: 0
   012A CD 9E 01            624 	call	_init
                            625 ;	genLabel
   012D                     626 00102$:
                            627 ;	game.c 162
                            628 ;	genIpush
                            629 ; _saveRegsForCall: sendSetSize: 0 deInUse: 0 bcInUse: 0 deSending: 0
   012D 21 5E 06            630 	ld	hl,#_player
   0130 E5                  631 	push	hl
                            632 ;	genCall
   0131 CD 54 03            633 	call	_player_input
   0134 E8 02               634 	lda	sp,2(sp)
                            635 ;	game.c 164
                            636 ;	genCmpEq
                            637 ;	AOP_HL for _input_timer
                            638 ; genCmpEq: left 1, right 1, result 0
   0136 21 2A 06            639 	ld	hl,#_input_timer
   0139 7E                  640 	ld	a,(hl)
   013A B7                  641 	or	a,a
   013B CA 8B 01            642 	jp	z,00109$
   013E                     643 00117$:
                            644 ;	game.c 165
                            645 ;	genCmpEq
                            646 ;	AOP_HL for _input_timer
                            647 ; genCmpEq: left 1, right 1, result 0
   013E 21 2A 06            648 	ld	hl,#_input_timer
   0141 7E                  649 	ld	a,(hl)
   0142 FE 0A               650 	cp	a,#0x0A
   0144 C2 8B 01            651 	jp	nz,00109$
   0147 18 03               652 	jr	00119$
   0149                     653 00118$:
   0149 C3 8B 01            654 	jp	00109$
   014C                     655 00119$:
                            656 ;	game.c 167
                            657 ;	genAssign
                            658 ;	AOP_HL for _player
   014C 21 5E 06            659 	ld	hl,#_player
   014F 4E                  660 	ld	c,(hl)
   0150 23                  661 	inc	hl
   0151 46                  662 	ld	b,(hl)
                            663 ;	genPlus
                            664 ;	genPlusIncr
   0152 21 05 00            665 	ld	hl,#0x0005
   0155 09                  666 	add	hl,bc
                            667 ;	genAssign (pointer)
   0156 36 00               668 	ld	(hl),#0x00
                            669 ;	game.c 168
                            670 ;	genAssign
                            671 ;	AOP_HL for _player
   0158 21 5E 06            672 	ld	hl,#_player
   015B 4E                  673 	ld	c,(hl)
   015C 23                  674 	inc	hl
   015D 46                  675 	ld	b,(hl)
                            676 ;	genPlus
                            677 ;	genPlusIncr
                            678 ;	Can't optimise plus by inc, falling back to the normal way
   015E 79                  679 	ld	a,c
   015F C6 08               680 	add	a,#0x08
   0161 4F                  681 	ld	c,a
   0162 78                  682 	ld	a,b
   0163 CE 00               683 	adc	a,#0x00
   0165 47                  684 	ld	b,a
                            685 ;	genPointerGet
   0166 0A                  686 	ld	a,(bc)
                            687 ;	genCmpEq
                            688 ; genCmpEq: left 1, right 1, result 0
   0167 4F                  689 	ld	c,a
   0168 FE 01               690 	cp	a,#0x01
   016A CA 76 01            691 	jp	z,00103$
   016D                     692 00120$:
                            693 ;	genCmpEq
                            694 ; genCmpEq: left 1, right 1, result 0
   016D 79                  695 	ld	a,c
   016E FE 02               696 	cp	a,#0x02
   0170 CA 82 01            697 	jp	z,00104$
   0173                     698 00121$:
                            699 ;	genGoto
   0173 C3 8B 01            700 	jp	00109$
                            701 ;	game.c 170
                            702 ;	genLabel
   0176                     703 00103$:
                            704 ;	genAddrOf
                            705 ;	AOP_HL for _player
   0176 11 36 06            706 	ld	de,#_dog1
   0179 21 5E 06            707 	ld	hl,#_player
   017C 73                  708 	ld	(hl),e
   017D 23                  709 	inc	hl
   017E 72                  710 	ld	(hl),d
                            711 ;	game.c 171
                            712 ;	genGoto
   017F C3 8B 01            713 	jp	00109$
                            714 ;	game.c 173
                            715 ;	genLabel
   0182                     716 00104$:
                            717 ;	genAddrOf
                            718 ;	AOP_HL for _player
   0182 11 2C 06            719 	ld	de,#_bunny
   0185 21 5E 06            720 	ld	hl,#_player
   0188 73                  721 	ld	(hl),e
   0189 23                  722 	inc	hl
   018A 72                  723 	ld	(hl),d
                            724 ;	game.c 175
                            725 ;	genLabel
   018B                     726 00109$:
                            727 ;	game.c 179
                            728 ;	genIpush
                            729 ; _saveRegsForCall: sendSetSize: 0 deInUse: 0 bcInUse: 0 deSending: 0
   018B 21 2C 06            730 	ld	hl,#_bunny
   018E E5                  731 	push	hl
                            732 ;	genCall
   018F CD 7E 06            733 	call	_move_character
   0192 E8 02               734 	lda	sp,2(sp)
                            735 ;	game.c 180
                            736 ;	genIpush
                            737 ; _saveRegsForCall: sendSetSize: 0 deInUse: 0 bcInUse: 0 deSending: 0
   0194 21 36 06            738 	ld	hl,#_dog1
   0197 E5                  739 	push	hl
                            740 ;	genCall
   0198 CD 7E 06            741 	call	_move_character
   019B E8 02               742 	lda	sp,2(sp)
                            743 ;	genLabel
   019D                     744 00110$:
                            745 ;	genEndFunction
                            746 	
   019D C9                  747 	ret
   019E                     748 ___map_1_end:
                            749 ;	game.c 185
                            750 ;	genLabel
                            751 ;	genFunction
                            752 ;	---------------------------------
                            753 ; Function init
                            754 ; ---------------------------------
   019E                     755 ___init_start:
   019E                     756 _init:
   019E E8 FD               757 	lda	sp,-3(sp)
                            758 ;	game.c 187
                            759 ;	genIpush
                            760 ; _saveRegsForCall: sendSetSize: 0 deInUse: 0 bcInUse: 0 deSending: 0
   01A0 21 58 02            761 	ld	hl,#_sprites_park
   01A3 E5                  762 	push	hl
                            763 ;	genIpush
   01A4 21 00 3C            764 	ld	hl,#0x3C00
   01A7 E5                  765 	push	hl
                            766 ;	genCall
   01A8 CD 00 00            767 	call	_set_bkg_data
   01AB E8 04               768 	lda	sp,4(sp)
                            769 ;	game.c 188
                            770 ;	genIpush
                            771 ; _saveRegsForCall: sendSetSize: 0 deInUse: 0 bcInUse: 0 deSending: 0
   01AD 21 F0 00            772 	ld	hl,#_Map1
   01B0 E5                  773 	push	hl
                            774 ;	genIpush
   01B1 21 14 12            775 	ld	hl,#0x1214
   01B4 E5                  776 	push	hl
                            777 ;	genIpush
   01B5 21 00 00            778 	ld	hl,#0x0000
   01B8 E5                  779 	push	hl
                            780 ;	genCall
   01B9 CD 00 00            781 	call	_set_bkg_tiles
   01BC E8 06               782 	lda	sp,6(sp)
                            783 ;	game.c 190
                            784 ;	genAssign
   01BE 01 40 FF            785 	ld	bc,#0xFF40
                            786 ;	genAssign
                            787 ;	AOP_STK for _init_sloc0_1_0
   01C1 F8 01               788 	lda	hl,1(sp)
   01C3 36 40               789 	ld	(hl),#0x40
   01C5 23                  790 	inc	hl
   01C6 36 FF               791 	ld	(hl),#0xFF
                            792 ;	genPointerGet
                            793 ;	AOP_STK for _init_sloc0_1_0
                            794 ;	AOP_STK for _init_sloc1_1_0
   01C8 2B                  795 	dec	hl
   01C9 5E                  796 	ld	e,(hl)
   01CA 23                  797 	inc	hl
   01CB 56                  798 	ld	d,(hl)
   01CC 1A                  799 	ld	a,(de)
   01CD 2B                  800 	dec	hl
   01CE 2B                  801 	dec	hl
                            802 ;	genOr
                            803 ;	AOP_STK for _init_sloc1_1_0
   01CF 77                  804 	ld      (hl),a
   01D0 7F                  805 	ld      a,a
   01D1 F6 01               806 	or	a,#0x01
                            807 ;	genAssign (pointer)
   01D3 02                  808 	ld	(bc),a
                            809 ;	game.c 192
                            810 ;	genAssign
                            811 ;	AOP_HL for _input_timer
   01D4 21 2A 06            812 	ld	hl,#_input_timer
   01D7 36 00               813 	ld	(hl),#0x00
                            814 ;	game.c 193
                            815 ;	genAssign
                            816 ;	AOP_HL for _running
   01D9 21 28 06            817 	ld	hl,#_running
   01DC 36 01               818 	ld	(hl),#0x01
                            819 ;	game.c 194
                            820 ;	genAssign
                            821 ;	AOP_HL for _map
   01DE 21 2B 06            822 	ld	hl,#_map
   01E1 36 01               823 	ld	(hl),#0x01
                            824 ;	game.c 195
                            825 ;	genAssign
                            826 ;	AOP_HL for _timer
   01E3 21 29 06            827 	ld	hl,#_timer
   01E6 36 01               828 	ld	(hl),#0x01
                            829 ;	game.c 196
                            830 ;	genAssign
                            831 ;	AOP_HL for _player
   01E8 21 5E 06            832 	ld	hl,#_player
   01EB 36 2C               833 	ld	(hl),#<_bunny
   01ED 23                  834 	inc	hl
   01EE 36 06               835 	ld	(hl),#>_bunny
                            836 ;	game.c 197
                            837 ;	genAssign
   01F0 01 40 FF            838 	ld	bc,#0xFF40
                            839 ;	genAssign
                            840 ;	AOP_STK for _init_sloc0_1_0
   01F3 F8 01               841 	lda	hl,1(sp)
   01F5 36 40               842 	ld	(hl),#0x40
   01F7 23                  843 	inc	hl
   01F8 36 FF               844 	ld	(hl),#0xFF
                            845 ;	genPointerGet
                            846 ;	AOP_STK for _init_sloc0_1_0
                            847 ;	AOP_STK for _init_sloc1_1_0
   01FA 2B                  848 	dec	hl
   01FB 5E                  849 	ld	e,(hl)
   01FC 23                  850 	inc	hl
   01FD 56                  851 	ld	d,(hl)
   01FE 1A                  852 	ld	a,(de)
   01FF 2B                  853 	dec	hl
   0200 2B                  854 	dec	hl
                            855 ;	genOr
                            856 ;	AOP_STK for _init_sloc1_1_0
   0201 77                  857 	ld      (hl),a
   0202 7F                  858 	ld      a,a
   0203 F6 80               859 	or	a,#0x80
                            860 ;	genAssign (pointer)
   0205 02                  861 	ld	(bc),a
                            862 ;	game.c 198
                            863 ;	genAssign
   0206 01 40 FF            864 	ld	bc,#0xFF40
                            865 ;	genAssign
                            866 ;	AOP_STK for _init_sloc0_1_0
   0209 23                  867 	inc	hl
   020A 36 40               868 	ld	(hl),#0x40
   020C 23                  869 	inc	hl
   020D 36 FF               870 	ld	(hl),#0xFF
                            871 ;	genPointerGet
                            872 ;	AOP_STK for _init_sloc0_1_0
                            873 ;	AOP_STK for _init_sloc1_1_0
   020F 2B                  874 	dec	hl
   0210 5E                  875 	ld	e,(hl)
   0211 23                  876 	inc	hl
   0212 56                  877 	ld	d,(hl)
   0213 1A                  878 	ld	a,(de)
   0214 2B                  879 	dec	hl
   0215 2B                  880 	dec	hl
                            881 ;	genOr
                            882 ;	AOP_STK for _init_sloc1_1_0
   0216 77                  883 	ld      (hl),a
   0217 7F                  884 	ld      a,a
   0218 F6 02               885 	or	a,#0x02
                            886 ;	genAssign (pointer)
   021A 02                  887 	ld	(bc),a
                            888 ;	game.c 200
                            889 ;	genIpush
                            890 ; _saveRegsForCall: sendSetSize: 0 deInUse: 0 bcInUse: 0 deSending: 0
   021B 21 00 00            891 	ld	hl,#_Characters
   021E E5                  892 	push	hl
                            893 ;	genIpush
   021F 21 00 0C            894 	ld	hl,#0x0C00
   0222 E5                  895 	push	hl
                            896 ;	genCall
   0223 CD 00 00            897 	call	_set_sprite_data
   0226 E8 04               898 	lda	sp,4(sp)
                            899 ;	game.c 204
                            900 ;	genAssign (pointer)
   0228 11 2C 06            901 	ld	de,#_bunny
   022B 3E 08               902 	ld	a,#0x08
   022D 12                  903 	ld	(de),a
                            904 ;	game.c 205
                            905 ;	genPlus
                            906 ;	genPlusIncr
   022E 21 2D 06            907 	ld	hl,#_bunny + 1
                            908 ;	genAssign (pointer)
   0231 36 28               909 	ld	(hl),#0x28
                            910 ;	game.c 206
                            911 ;	genPlus
                            912 ;	genPlusIncr
   0233 23                  913 	inc	hl
                            914 ;	genAssign (pointer)
   0234 36 00               915 	ld	(hl),#0x00
                            916 ;	game.c 207
                            917 ;	genPlus
                            918 ;	genPlusIncr
   0236 23                  919 	inc	hl
                            920 ;	genAssign (pointer)
   0237 36 01               921 	ld	(hl),#0x01
                            922 ;	game.c 208
                            923 ;	genPlus
                            924 ;	genPlusIncr
   0239 23                  925 	inc	hl
                            926 ;	genAssign (pointer)
   023A 36 02               927 	ld	(hl),#0x02
                            928 ;	game.c 209
                            929 ;	genPlus
                            930 ;	genPlusIncr
   023C 23                  931 	inc	hl
                            932 ;	genAssign (pointer)
   023D 36 00               933 	ld	(hl),#0x00
                            934 ;	game.c 210
                            935 ;	genPlus
                            936 ;	genPlusIncr
   023F 23                  937 	inc	hl
                            938 ;	genAssign (pointer)
   0240 36 00               939 	ld	(hl),#0x00
                            940 ;	game.c 211
                            941 ;	genPlus
                            942 ;	genPlusIncr
   0242 23                  943 	inc	hl
   0243 23                  944 	inc	hl
                            945 ;	genAssign (pointer)
   0244 36 01               946 	ld	(hl),#0x01
                            947 ;	game.c 212
                            948 ;	genPlus
                            949 ;	genPlusIncr
   0246 23                  950 	inc	hl
                            951 ;	genAssign (pointer)
   0247 36 01               952 	ld	(hl),#0x01
                            953 ;	game.c 214
                            954 ;	genAssign (pointer)
   0249 11 36 06            955 	ld	de,#_dog1
   024C 3E 28               956 	ld	a,#0x28
   024E 12                  957 	ld	(de),a
                            958 ;	game.c 215
                            959 ;	genPlus
                            960 ;	genPlusIncr
   024F 21 37 06            961 	ld	hl,#_dog1 + 1
                            962 ;	genAssign (pointer)
   0252 36 30               963 	ld	(hl),#0x30
                            964 ;	game.c 216
                            965 ;	genPlus
                            966 ;	genPlusIncr
   0254 23                  967 	inc	hl
                            968 ;	genAssign (pointer)
   0255 36 03               969 	ld	(hl),#0x03
                            970 ;	game.c 217
                            971 ;	genPlus
                            972 ;	genPlusIncr
   0257 23                  973 	inc	hl
                            974 ;	genAssign (pointer)
   0258 36 04               975 	ld	(hl),#0x04
                            976 ;	game.c 218
                            977 ;	genPlus
                            978 ;	genPlusIncr
   025A 23                  979 	inc	hl
                            980 ;	genAssign (pointer)
   025B 36 05               981 	ld	(hl),#0x05
                            982 ;	game.c 219
                            983 ;	genPlus
                            984 ;	genPlusIncr
   025D 23                  985 	inc	hl
                            986 ;	genAssign (pointer)
   025E 36 00               987 	ld	(hl),#0x00
                            988 ;	game.c 220
                            989 ;	genPlus
                            990 ;	genPlusIncr
   0260 23                  991 	inc	hl
                            992 ;	genAssign (pointer)
   0261 36 00               993 	ld	(hl),#0x00
                            994 ;	game.c 221
                            995 ;	genPlus
                            996 ;	genPlusIncr
   0263 23                  997 	inc	hl
   0264 23                  998 	inc	hl
                            999 ;	genAssign (pointer)
   0265 36 02              1000 	ld	(hl),#0x02
                           1001 ;	game.c 222
                           1002 ;	genPlus
                           1003 ;	genPlusIncr
   0267 23                 1004 	inc	hl
                           1005 ;	genAssign (pointer)
   0268 36 00              1006 	ld	(hl),#0x00
                           1007 ;	game.c 224
                           1008 ;	genIpush
                           1009 ; _saveRegsForCall: sendSetSize: 0 deInUse: 0 bcInUse: 0 deSending: 0
   026A 21 2C 06           1010 	ld	hl,#_bunny
   026D E5                 1011 	push	hl
                           1012 ;	genCall
   026E CD 97 0A           1013 	call	_set_character_sprite
   0271 E8 02              1014 	lda	sp,2(sp)
                           1015 ;	game.c 225
                           1016 ;	genIpush
                           1017 ; _saveRegsForCall: sendSetSize: 0 deInUse: 0 bcInUse: 0 deSending: 0
   0273 21 36 06           1018 	ld	hl,#_dog1
   0276 E5                 1019 	push	hl
                           1020 ;	genCall
   0277 CD 97 0A           1021 	call	_set_character_sprite
   027A E8 02              1022 	lda	sp,2(sp)
                           1023 ;	genLabel
   027C                    1024 00101$:
                           1025 ;	genEndFunction
   027C E8 03              1026 	lda	sp,3(sp)
   027E C9                 1027 	ret
   027F                    1028 ___init_end:
                           1029 ;	game.c 231
                           1030 ;	genLabel
                           1031 ;	genFunction
                           1032 ;	---------------------------------
                           1033 ; Function is_ded
                           1034 ; ---------------------------------
   027F                    1035 ___is_ded_start:
   027F                    1036 _is_ded:
   027F E8 F7              1037 	lda	sp,-9(sp)
                           1038 ;	game.c 237
                           1039 ;	genAssign
                           1040 ;	AOP_STK for 
   0281 F8 0B              1041 	lda	hl,11(sp)
   0283 4E                 1042 	ld	c,(hl)
   0284 23                 1043 	inc	hl
   0285 46                 1044 	ld	b,(hl)
                           1045 ;	genPointerGet
   0286 59                 1046 	ld	e,c
   0287 50                 1047 	ld	d,b
   0288 1A                 1048 	ld	a,(de)
   0289 4F                 1049 	ld	c,a
   028A 13                 1050 	inc	de
   028B 1A                 1051 	ld	a,(de)
   028C 47                 1052 	ld	b,a
                           1053 ;	genPlus
                           1054 ;	AOP_STK for _is_ded_sloc0_1_0
                           1055 ;	genPlusIncr
                           1056 ;	Can't optimise plus by inc, falling back to the normal way
   028D 21 06 00           1057 	ld	hl,#0x0006
   0290 09                 1058 	add	hl,bc
   0291 7D                 1059 	ld	a,l
   0292 54                 1060 	ld	d,h
   0293 F8 03              1061 	lda	hl,3(sp)
                           1062 ;	genPointerGet
                           1063 ;	AOP_STK for _is_ded_sloc0_1_0
   0295 22                 1064 	ld	(hl+),a
   0296 72                 1065 	ld	(hl),d
   0297 5F                 1066 	ld	e,a
   0298 1A                 1067 	ld	a,(de)
                           1068 ;	genIfx
   0299 B7                 1069 	or	a,a
   029A CA BC 02           1070 	jp	z,00102$
                           1071 ;	genPlus
                           1072 ;	AOP_STK for _is_ded_sloc0_1_0
                           1073 ;	genPlusIncr
                           1074 ;	Can't optimise plus by inc, falling back to the normal way
   029D 21 08 00           1075 	ld	hl,#0x0008
   02A0 09                 1076 	add	hl,bc
   02A1 7D                 1077 	ld	a,l
   02A2 54                 1078 	ld	d,h
   02A3 F8 03              1079 	lda	hl,3(sp)
                           1080 ;	genPointerGet
                           1081 ;	AOP_STK for _is_ded_sloc0_1_0
                           1082 ;	AOP_STK for _is_ded_sloc1_1_0
   02A5 22                 1083 	ld	(hl+),a
   02A6 72                 1084 	ld	(hl),d
   02A7 5F                 1085 	ld	e,a
   02A8 1A                 1086 	ld	a,(de)
   02A9 2B                 1087 	dec	hl
   02AA 2B                 1088 	dec	hl
                           1089 ;	genCmpEq
                           1090 ;	AOP_STK for _is_ded_sloc1_1_0
                           1091 ; genCmpEq: left 1, right 1, result 0
   02AB 77                 1092 	ld      (hl),a
                           1093 ; Removed redundent load
   02AC FE 01              1094 	cp	a,#0x01
   02AE C2 BC 02           1095 	jp	nz,00102$
   02B1 18 03              1096 	jr	00112$
   02B3                    1097 00111$:
   02B3 C3 BC 02           1098 	jp	00102$
   02B6                    1099 00112$:
                           1100 ;	game.c 238
                           1101 ;	genRet
   02B6 11 00 00           1102 	ld	de,#0x0000
   02B9 C3 51 03           1103 	jp	00106$
                           1104 ;	genLabel
   02BC                    1105 00102$:
                           1106 ;	game.c 243
                           1107 ;	genPointerGet
                           1108 ;	AOP_STK for _is_ded_sloc1_1_0
   02BC 0A                 1109 	ld	a,(bc)
   02BD F8 02              1110 	lda	hl,2(sp)
   02BF 77                 1111 	ld	(hl),a
                           1112 ;	genCast
                           1113 ;	AOP_STK for _is_ded_sloc1_1_0
                           1114 ;	AOP_STK for _is_ded_sloc0_1_0
   02C0 2A                 1115 	ld	a,(hl+)
   02C1 22                 1116 	ld	(hl+),a
   02C2 36 00              1117 	ld	(hl),#0x00
                           1118 ;	genRightShift
                           1119 ;	AOP_STK for _is_ded_sloc0_1_0
                           1120 ;	AOP_STK for _is_ded_sloc2_1_0
   02C4 2B                 1121 	dec	hl
   02C5 7E                 1122 	ld	a,(hl)
   02C6 F8 00              1123 	lda	hl,0(sp)
   02C8 77                 1124 	ld	(hl),a
   02C9 F8 04              1125 	lda	hl,4(sp)
   02CB 7E                 1126 	ld	a,(hl)
   02CC F8 01              1127 	lda	hl,1(sp)
   02CE 77                 1128 	ld	(hl),a
   02CF CB 3E              1129 	srl	(hl)
   02D1 2B                 1130 	dec	hl
   02D2 CB 1E              1131 	rr	(hl)
   02D4 23                 1132 	inc	hl
   02D5 CB 3E              1133 	srl	(hl)
   02D7 2B                 1134 	dec	hl
   02D8 CB 1E              1135 	rr	(hl)
   02DA 23                 1136 	inc	hl
   02DB CB 3E              1137 	srl	(hl)
   02DD 2B                 1138 	dec	hl
   02DE CB 1E              1139 	rr	(hl)
                           1140 ;	genMinus
                           1141 ;	AOP_STK for _is_ded_sloc2_1_0
                           1142 ;	AOP_STK for _is_ded_sloc0_1_0
   02E0 5E                 1143 	ld	e,(hl)
   02E1 23                 1144 	inc	hl
   02E2 56                 1145 	ld	d,(hl)
   02E3 21 01 00           1146 	ld	hl,#0x0001
   02E6 7B                 1147 	ld	a,e
   02E7 95                 1148 	sub	a,l
   02E8 5F                 1149 	ld	e,a
   02E9 7A                 1150 	ld	a,d
   02EA 9C                 1151 	sbc	a,h
   02EB F8 04              1152 	lda	hl,4(sp)
   02ED 32                 1153 	ld      (hl-),a
   02EE 73                 1154 	ld	(hl),e
                           1155 ;	genCast
                           1156 ;	AOP_STK for _is_ded_sloc0_1_0
                           1157 ;	AOP_STK for _is_ded__x_1_1
   02EF 7E                 1158 	ld	a,(hl)
   02F0 F8 08              1159 	lda	hl,8(sp)
   02F2 77                 1160 	ld	(hl),a
                           1161 ;	game.c 244
                           1162 ;	genPlus
                           1163 ;	genPlusIncr
   02F3 03                 1164 	inc	bc
                           1165 ;	genPointerGet
   02F4 0A                 1166 	ld	a,(bc)
   02F5 4F                 1167 	ld	c,a
                           1168 ;	genCast
                           1169 ; Removed redundent load
   02F6 06 00              1170 	ld	b,#0x00
                           1171 ;	genRightShift
   02F8 CB 38              1172 	srl	b
   02FA CB 19              1173 	rr	c
   02FC CB 38              1174 	srl	b
   02FE CB 19              1175 	rr	c
   0300 CB 38              1176 	srl	b
   0302 CB 19              1177 	rr	c
                           1178 ;	genMinus
   0304 0B                 1179 	dec	bc
   0305 0B                 1180 	dec	bc
                           1181 ;	genCast
                           1182 ;	AOP_STK for _is_ded__y_1_1
   0306 2B                 1183 	dec	hl
   0307 71                 1184 	ld	(hl),c
                           1185 ;	game.c 249
                           1186 ;	genCast
                           1187 ;	AOP_STK for _is_ded__x_1_1
                           1188 ;	AOP_STK for _is_ded_map_position_1_1
   0308 23                 1189 	inc	hl
   0309 7E                 1190 	ld	a,(hl)
   030A F8 05              1191 	lda	hl,5(sp)
   030C 22                 1192 	ld	(hl+),a
   030D 36 00              1193 	ld	(hl),#0x00
                           1194 ;	game.c 250
                           1195 ;	genCast
                           1196 ;	AOP_STK for _is_ded__y_1_1
   030F 23                 1197 	inc	hl
   0310 4E                 1198 	ld	c,(hl)
   0311 06 00              1199 	ld	b,#0x00
                           1200 ;	genMult
   0313 59                 1201 	ld	e,c
   0314 50                 1202 	ld	d,b
   0315 6B                 1203 	ld	l,e
   0316 62                 1204 	ld	h,d
   0317 29                 1205 	add	hl,hl
   0318 29                 1206 	add	hl,hl
   0319 19                 1207 	add	hl,de
   031A 29                 1208 	add	hl,hl
   031B 29                 1209 	add	hl,hl
   031C 4D                 1210 	ld	c,l
   031D 44                 1211 	ld	b,h
                           1212 ;	genPlus
                           1213 ;	AOP_STK for _is_ded_map_position_1_1
                           1214 ;	Can't optimise plus by inc, falling back to the normal way
   031E F8 05              1215 	lda	hl,5(sp)
   0320 2A                 1216 	ld	a,(hl+)
   0321 66                 1217 	ld	h,(hl)
   0322 6F                 1218 	ld	l,a
   0323 09                 1219 	add	hl,bc
   0324 7D                 1220 	ld	a,l
   0325 54                 1221 	ld	d,h
   0326 F8 05              1222 	lda	hl,5(sp)
   0328 22                 1223 	ld	(hl+),a
   0329 72                 1224 	ld	(hl),d
                           1225 ;	game.c 252
                           1226 ;	genPlus
                           1227 ;	AOP_STK for _is_ded_map_position_1_1
                           1228 ;	Can't optimise plus by inc, falling back to the normal way
   032A 11 F0 00           1229 	ld	de,#_Map1
   032D 2B                 1230 	dec	hl
   032E 2A                 1231 	ld	a,(hl+)
   032F 66                 1232 	ld	h,(hl)
   0330 6F                 1233 	ld	l,a
   0331 19                 1234 	add	hl,de
   0332 4D                 1235 	ld	c,l
   0333 44                 1236 	ld	b,h
                           1237 ;	genPointerGet
   0334 0A                 1238 	ld	a,(bc)
   0335 4F                 1239 	ld	c,a
                           1240 ;	genCast
                           1241 ; Removed redundent load
   0336 06 00              1242 	ld	b,#0x00
                           1243 ;	genCmpEq
                           1244 ; genCmpEq: left 2, right 2, result 0
   0338 79                 1245 	ld	a,c
   0339 FE 0B              1246 	cp	a,#0x0B
   033B C2 45 03           1247 	jp	nz,00117$
   033E 78                 1248 	ld	a,b
   033F B7                 1249 	or	a,a
   0340 C2 4E 03           1250 	jp	nz,00105$
   0343 18 03              1251 	jr	00118$
   0345                    1252 00117$:
   0345 C3 4E 03           1253 	jp	00105$
   0348                    1254 00118$:
                           1255 ;	game.c 260
                           1256 ;	genRet
   0348 11 01 00           1257 	ld	de,#0x0001
   034B C3 51 03           1258 	jp	00106$
                           1259 ;	game.c 261
                           1260 ;	genLabel
   034E                    1261 00105$:
                           1262 ;	game.c 262
                           1263 ;	genRet
   034E 11 00 00           1264 	ld	de,#0x0000
                           1265 ;	genLabel
   0351                    1266 00106$:
                           1267 ;	genEndFunction
   0351 E8 09              1268 	lda	sp,9(sp)
   0353 C9                 1269 	ret
   0354                    1270 ___is_ded_end:
                           1271 ;	game.c 265
                           1272 ;	genLabel
                           1273 ;	genFunction
                           1274 ;	---------------------------------
                           1275 ; Function player_input
                           1276 ; ---------------------------------
   0354                    1277 ___player_input_start:
   0354                    1278 _player_input:
   0354 E8 FA              1279 	lda	sp,-6(sp)
                           1280 ;	game.c 268
                           1281 ;	genAssign
                           1282 ;	AOP_STK for 
   0356 F8 08              1283 	lda	hl,8(sp)
   0358 4E                 1284 	ld	c,(hl)
   0359 23                 1285 	inc	hl
   035A 46                 1286 	ld	b,(hl)
                           1287 ;	genPointerGet
                           1288 ;	AOP_STK for _player_input_sloc0_1_0
   035B 59                 1289 	ld	e,c
   035C 50                 1290 	ld	d,b
   035D 1A                 1291 	ld	a,(de)
   035E F8 04              1292 	lda	hl,4(sp)
   0360 77                 1293 	ld	(hl),a
   0361 13                 1294 	inc	de
   0362 1A                 1295 	ld	a,(de)
   0363 23                 1296 	inc	hl
                           1297 ;	genPlus
                           1298 ;	AOP_STK for _player_input_sloc0_1_0
                           1299 ;	AOP_STK for _player_input_sloc1_1_0
                           1300 ;	genPlusIncr
                           1301 ;	Can't optimise plus by inc, falling back to the normal way
   0364 32                 1302 	ld      (hl-),a
   0365 5E                 1303 	ld	e,(hl)
   0366 23                 1304 	inc	hl
   0367 56                 1305 	ld	d,(hl)
   0368 21 07 00           1306 	ld	hl,#0x0007
   036B 19                 1307 	add	hl,de
   036C 7D                 1308 	ld	a,l
   036D 54                 1309 	ld	d,h
   036E F8 02              1310 	lda	hl,2(sp)
                           1311 ;	genPointerGet
                           1312 ;	AOP_STK for _player_input_sloc1_1_0
                           1313 ;	AOP_STK for _player_input_sloc0_1_0
   0370 22                 1314 	ld	(hl+),a
   0371 72                 1315 	ld	(hl),d
   0372 5F                 1316 	ld	e,a
   0373 1A                 1317 	ld	a,(de)
   0374 23                 1318 	inc	hl
                           1319 ;	genCmpEq
                           1320 ;	AOP_STK for _player_input_sloc0_1_0
                           1321 ; genCmpEq: left 1, right 1, result 0
   0375 77                 1322 	ld      (hl),a
                           1323 ; Removed redundent load
   0376 B7                 1324 	or	a,a
   0377 C2 85 05           1325 	jp	nz,00119$
   037A 18 03              1326 	jr	00134$
   037C                    1327 00133$:
   037C C3 85 05           1328 	jp	00119$
   037F                    1329 00134$:
                           1330 ;	genCmpEq
                           1331 ;	AOP_HL for _input_timer
                           1332 ; genCmpEq: left 1, right 1, result 0
   037F 21 2A 06           1333 	ld	hl,#_input_timer
   0382 7E                 1334 	ld	a,(hl)
   0383 B7                 1335 	or	a,a
   0384 C2 85 05           1336 	jp	nz,00119$
   0387 18 03              1337 	jr	00136$
   0389                    1338 00135$:
   0389 C3 85 05           1339 	jp	00119$
   038C                    1340 00136$:
                           1341 ;	game.c 270
                           1342 ;	genCall
                           1343 ; _saveRegsForCall: sendSetSize: 0 deInUse: 0 bcInUse: 1 deSending: 0
   038C C5                 1344 	push	bc
   038D CD 00 00           1345 	call	_joypad
                           1346 ;	AOP_STK for _player_input_sloc1_1_0
   0390 F8 04              1347 	lda	hl,4(sp)
   0392 73                 1348 	ld	(hl),e
   0393 C1                 1349 	pop	bc
                           1350 ;	genCmpEq
                           1351 ;	AOP_STK for _player_input_sloc1_1_0
                           1352 ; genCmpEq: left 1, right 1, result 0
   0394 F8 02              1353 	lda	hl,2(sp)
   0396 7E                 1354 	ld	a,(hl)
   0397 FE 01              1355 	cp	a,#0x01
   0399 CA 68 04           1356 	jp	z,00106$
   039C                    1357 00137$:
                           1358 ;	genCmpEq
                           1359 ;	AOP_STK for _player_input_sloc1_1_0
                           1360 ; genCmpEq: left 1, right 1, result 0
   039C F8 02              1361 	lda	hl,2(sp)
   039E 7E                 1362 	ld	a,(hl)
   039F FE 02              1363 	cp	a,#0x02
   03A1 CA 00 04           1364 	jp	z,00103$
   03A4                    1365 00138$:
                           1366 ;	genCmpEq
                           1367 ;	AOP_STK for _player_input_sloc1_1_0
                           1368 ; genCmpEq: left 1, right 1, result 0
   03A4 F8 02              1369 	lda	hl,2(sp)
   03A6 7E                 1370 	ld	a,(hl)
   03A7 FE 04              1371 	cp	a,#0x04
   03A9 CA D0 04           1372 	jp	z,00109$
   03AC                    1373 00139$:
                           1374 ;	genCmpEq
                           1375 ;	AOP_STK for _player_input_sloc1_1_0
                           1376 ; genCmpEq: left 1, right 1, result 0
   03AC F8 02              1377 	lda	hl,2(sp)
   03AE 7E                 1378 	ld	a,(hl)
   03AF FE 08              1379 	cp	a,#0x08
   03B1 CA 38 05           1380 	jp	z,00112$
   03B4                    1381 00140$:
                           1382 ;	genCmpEq
                           1383 ;	AOP_STK for _player_input_sloc1_1_0
                           1384 ; genCmpEq: left 1, right 1, result 0
   03B4 F8 02              1385 	lda	hl,2(sp)
   03B6 7E                 1386 	ld	a,(hl)
   03B7 FE 10              1387 	cp	a,#0x10
   03B9 CA C7 03           1388 	jp	z,00101$
   03BC                    1389 00141$:
                           1390 ;	genCmpEq
                           1391 ;	AOP_STK for _player_input_sloc1_1_0
                           1392 ; genCmpEq: left 1, right 1, result 0
   03BC F8 02              1393 	lda	hl,2(sp)
   03BE 7E                 1394 	ld	a,(hl)
   03BF FE 20              1395 	cp	a,#0x20
   03C1 CA E1 03           1396 	jp	z,00102$
   03C4                    1397 00142$:
                           1398 ;	genGoto
   03C4 C3 85 05           1399 	jp	00119$
                           1400 ;	game.c 272
                           1401 ;	genLabel
   03C7                    1402 00101$:
                           1403 ;	genPointerGet
                           1404 ;	AOP_STK for _player_input_sloc1_1_0
   03C7 59                 1405 	ld	e,c
   03C8 50                 1406 	ld	d,b
   03C9 1A                 1407 	ld	a,(de)
   03CA F8 02              1408 	lda	hl,2(sp)
   03CC 77                 1409 	ld	(hl),a
   03CD 13                 1410 	inc	de
   03CE 1A                 1411 	ld	a,(de)
   03CF 23                 1412 	inc	hl
                           1413 ;	genPlus
                           1414 ;	AOP_STK for _player_input_sloc1_1_0
                           1415 ;	genPlusIncr
                           1416 ;	Can't optimise plus by inc, falling back to the normal way
   03D0 32                 1417 	ld      (hl-),a
   03D1 5E                 1418 	ld	e,(hl)
   03D2 23                 1419 	inc	hl
   03D3 56                 1420 	ld	d,(hl)
   03D4 21 06 00           1421 	ld	hl,#0x0006
   03D7 19                 1422 	add	hl,de
   03D8 7D                 1423 	ld	a,l
   03D9 54                 1424 	ld	d,h
   03DA 6F                 1425 	ld	l,a
   03DB 62                 1426 	ld	h,d
                           1427 ;	genAssign (pointer)
   03DC 36 01              1428 	ld	(hl),#0x01
                           1429 ;	game.c 274
                           1430 ;	genGoto
   03DE C3 85 05           1431 	jp	00119$
                           1432 ;	game.c 278
                           1433 ;	genLabel
   03E1                    1434 00102$:
                           1435 ;	genAssign
                           1436 ;	AOP_HL for _input_timer
   03E1 21 2A 06           1437 	ld	hl,#_input_timer
   03E4 36 0A              1438 	ld	(hl),#0x0A
                           1439 ;	game.c 279
                           1440 ;	genPointerGet
                           1441 ;	AOP_STK for _player_input_sloc1_1_0
   03E6 59                 1442 	ld	e,c
   03E7 50                 1443 	ld	d,b
   03E8 1A                 1444 	ld	a,(de)
   03E9 F8 02              1445 	lda	hl,2(sp)
   03EB 77                 1446 	ld	(hl),a
   03EC 13                 1447 	inc	de
   03ED 1A                 1448 	ld	a,(de)
   03EE 23                 1449 	inc	hl
                           1450 ;	genPlus
                           1451 ;	AOP_STK for _player_input_sloc1_1_0
                           1452 ;	genPlusIncr
                           1453 ;	Can't optimise plus by inc, falling back to the normal way
   03EF 32                 1454 	ld      (hl-),a
   03F0 5E                 1455 	ld	e,(hl)
   03F1 23                 1456 	inc	hl
   03F2 56                 1457 	ld	d,(hl)
   03F3 21 05 00           1458 	ld	hl,#0x0005
   03F6 19                 1459 	add	hl,de
   03F7 7D                 1460 	ld	a,l
   03F8 54                 1461 	ld	d,h
   03F9 6F                 1462 	ld	l,a
   03FA 62                 1463 	ld	h,d
                           1464 ;	genAssign (pointer)
   03FB 36 00              1465 	ld	(hl),#0x00
                           1466 ;	game.c 281
                           1467 ;	genGoto
   03FD C3 85 05           1468 	jp	00119$
                           1469 ;	game.c 284
                           1470 ;	genLabel
   0400                    1471 00103$:
                           1472 ;	genPointerGet
                           1473 ;	AOP_STK for _player_input_sloc1_1_0
   0400 59                 1474 	ld	e,c
   0401 50                 1475 	ld	d,b
   0402 1A                 1476 	ld	a,(de)
   0403 F8 02              1477 	lda	hl,2(sp)
   0405 77                 1478 	ld	(hl),a
   0406 13                 1479 	inc	de
   0407 1A                 1480 	ld	a,(de)
   0408 23                 1481 	inc	hl
                           1482 ;	genPlus
                           1483 ;	AOP_STK for _player_input_sloc1_1_0
                           1484 ;	AOP_STK for _player_input_sloc0_1_0
                           1485 ;	genPlusIncr
                           1486 ;	Can't optimise plus by inc, falling back to the normal way
   0409 32                 1487 	ld      (hl-),a
   040A 5E                 1488 	ld	e,(hl)
   040B 23                 1489 	inc	hl
   040C 56                 1490 	ld	d,(hl)
   040D 21 05 00           1491 	ld	hl,#0x0005
   0410 19                 1492 	add	hl,de
   0411 7D                 1493 	ld	a,l
   0412 54                 1494 	ld	d,h
   0413 F8 04              1495 	lda	hl,4(sp)
   0415 22                 1496 	ld	(hl+),a
   0416 72                 1497 	ld	(hl),d
                           1498 ;	genAssign (pointer)
                           1499 ;	AOP_STK for _player_input_sloc0_1_0
   0417 2B                 1500 	dec	hl
   0418 5E                 1501 	ld	e,(hl)
   0419 23                 1502 	inc	hl
   041A 56                 1503 	ld	d,(hl)
   041B 3E 04              1504 	ld	a,#0x04
   041D 12                 1505 	ld	(de),a
                           1506 ;	game.c 285
                           1507 ;	genPointerGet
                           1508 ;	AOP_STK for _player_input_sloc0_1_0
                           1509 ;	AOP_STK for _player_input_sloc2_1_0
   041E 2B                 1510 	dec	hl
   041F 5E                 1511 	ld	e,(hl)
   0420 23                 1512 	inc	hl
   0421 56                 1513 	ld	d,(hl)
   0422 1A                 1514 	ld	a,(de)
   0423 F8 01              1515 	lda	hl,1(sp)
                           1516 ;	genPlus
                           1517 ;	AOP_STK for _player_input_sloc1_1_0
                           1518 ;	AOP_STK for _player_input_sloc0_1_0
                           1519 ;	genPlusIncr
                           1520 ;	Can't optimise plus by inc, falling back to the normal way
   0425 22                 1521 	ld	(hl+),a
   0426 5E                 1522 	ld	e,(hl)
   0427 23                 1523 	inc	hl
   0428 56                 1524 	ld	d,(hl)
   0429 21 01 00           1525 	ld	hl,#0x0001
   042C 19                 1526 	add	hl,de
   042D 7D                 1527 	ld	a,l
   042E 54                 1528 	ld	d,h
   042F F8 04              1529 	lda	hl,4(sp)
                           1530 ;	genPointerGet
                           1531 ;	AOP_STK for _player_input_sloc0_1_0
                           1532 ;	AOP_STK for _player_input_sloc3_1_0
   0431 22                 1533 	ld	(hl+),a
   0432 72                 1534 	ld	(hl),d
   0433 5F                 1535 	ld	e,a
   0434 1A                 1536 	ld	a,(de)
   0435 F8 00              1537 	lda	hl,0(sp)
                           1538 ;	genPointerGet
                           1539 ;	AOP_STK for _player_input_sloc1_1_0
                           1540 ;	AOP_STK for _player_input_sloc0_1_0
   0437 22                 1541 	ld	(hl+),a
   0438 23                 1542 	inc	hl
   0439 5E                 1543 	ld	e,(hl)
   043A 23                 1544 	inc	hl
   043B 56                 1545 	ld	d,(hl)
   043C 1A                 1546 	ld	a,(de)
   043D 23                 1547 	inc	hl
   043E 77                 1548 	ld	(hl),a
                           1549 ;	genIpush
                           1550 ; _saveRegsForCall: sendSetSize: 0 deInUse: 0 bcInUse: 1 deSending: 0
   043F C5                 1551 	push	bc
                           1552 ;	AOP_STK for _player_input_sloc2_1_0
   0440 F8 03              1553 	lda	hl,3(sp)
   0442 7E                 1554 	ld	a,(hl)
   0443 F5                 1555 	push	af
   0444 33                 1556 	inc	sp
                           1557 ;	genIpush
                           1558 ;	AOP_STK for _player_input_sloc3_1_0
   0445 2B                 1559 	dec	hl
   0446 7E                 1560 	ld	a,(hl)
   0447 F5                 1561 	push	af
   0448 33                 1562 	inc	sp
                           1563 ;	genIpush
                           1564 ;	AOP_STK for _player_input_sloc0_1_0
   0449 F8 08              1565 	lda	hl,8(sp)
   044B 7E                 1566 	ld	a,(hl)
   044C F5                 1567 	push	af
   044D 33                 1568 	inc	sp
                           1569 ;	genCall
   044E CD 88 05           1570 	call	_can_move
                           1571 ;	AOP_STK for _player_input_sloc1_1_0
   0451 F8 08              1572 	lda	hl,8(sp)
   0453 72                 1573 	ld	(hl),d
   0454 2B                 1574 	dec	hl
   0455 73                 1575 	ld	(hl),e
   0456 E8 03              1576 	lda	sp,3(sp)
   0458 C1                 1577 	pop	bc
                           1578 ;	genIfx
                           1579 ;	AOP_STK for _player_input_sloc1_1_0
   0459 F8 02              1580 	lda	hl,2(sp)
   045B 2A                 1581 	ld	a,(hl+)
   045C B6                 1582 	or	a,(hl)
   045D CA 85 05           1583 	jp	z,00119$
                           1584 ;	game.c 286
                           1585 ;	genAssign
                           1586 ;	AOP_HL for _input_timer
   0460 21 2A 06           1587 	ld	hl,#_input_timer
   0463 36 04              1588 	ld	(hl),#0x04
                           1589 ;	game.c 288
                           1590 ;	genGoto
   0465 C3 85 05           1591 	jp	00119$
                           1592 ;	game.c 290
                           1593 ;	genLabel
   0468                    1594 00106$:
                           1595 ;	genPointerGet
                           1596 ;	AOP_STK for _player_input_sloc1_1_0
   0468 59                 1597 	ld	e,c
   0469 50                 1598 	ld	d,b
   046A 1A                 1599 	ld	a,(de)
   046B F8 02              1600 	lda	hl,2(sp)
   046D 77                 1601 	ld	(hl),a
   046E 13                 1602 	inc	de
   046F 1A                 1603 	ld	a,(de)
   0470 23                 1604 	inc	hl
                           1605 ;	genPlus
                           1606 ;	AOP_STK for _player_input_sloc1_1_0
                           1607 ;	AOP_STK for _player_input_sloc0_1_0
                           1608 ;	genPlusIncr
                           1609 ;	Can't optimise plus by inc, falling back to the normal way
   0471 32                 1610 	ld      (hl-),a
   0472 5E                 1611 	ld	e,(hl)
   0473 23                 1612 	inc	hl
   0474 56                 1613 	ld	d,(hl)
   0475 21 05 00           1614 	ld	hl,#0x0005
   0478 19                 1615 	add	hl,de
   0479 7D                 1616 	ld	a,l
   047A 54                 1617 	ld	d,h
   047B F8 04              1618 	lda	hl,4(sp)
   047D 22                 1619 	ld	(hl+),a
   047E 72                 1620 	ld	(hl),d
                           1621 ;	genAssign (pointer)
                           1622 ;	AOP_STK for _player_input_sloc0_1_0
   047F 2B                 1623 	dec	hl
   0480 5E                 1624 	ld	e,(hl)
   0481 23                 1625 	inc	hl
   0482 56                 1626 	ld	d,(hl)
   0483 3E 02              1627 	ld	a,#0x02
   0485 12                 1628 	ld	(de),a
                           1629 ;	game.c 291
                           1630 ;	genPointerGet
                           1631 ;	AOP_STK for _player_input_sloc0_1_0
                           1632 ;	AOP_STK for _player_input_sloc3_1_0
   0486 2B                 1633 	dec	hl
   0487 5E                 1634 	ld	e,(hl)
   0488 23                 1635 	inc	hl
   0489 56                 1636 	ld	d,(hl)
   048A 1A                 1637 	ld	a,(de)
   048B F8 00              1638 	lda	hl,0(sp)
                           1639 ;	genPlus
                           1640 ;	AOP_STK for _player_input_sloc1_1_0
                           1641 ;	AOP_STK for _player_input_sloc0_1_0
                           1642 ;	genPlusIncr
                           1643 ;	Can't optimise plus by inc, falling back to the normal way
   048D 22                 1644 	ld	(hl+),a
   048E 23                 1645 	inc	hl
   048F 5E                 1646 	ld	e,(hl)
   0490 23                 1647 	inc	hl
   0491 56                 1648 	ld	d,(hl)
   0492 21 01 00           1649 	ld	hl,#0x0001
   0495 19                 1650 	add	hl,de
   0496 7D                 1651 	ld	a,l
   0497 54                 1652 	ld	d,h
   0498 F8 04              1653 	lda	hl,4(sp)
                           1654 ;	genPointerGet
                           1655 ;	AOP_STK for _player_input_sloc0_1_0
                           1656 ;	AOP_STK for _player_input_sloc2_1_0
   049A 22                 1657 	ld	(hl+),a
   049B 72                 1658 	ld	(hl),d
   049C 5F                 1659 	ld	e,a
   049D 1A                 1660 	ld	a,(de)
   049E F8 01              1661 	lda	hl,1(sp)
                           1662 ;	genPointerGet
                           1663 ;	AOP_STK for _player_input_sloc1_1_0
                           1664 ;	AOP_STK for _player_input_sloc0_1_0
   04A0 22                 1665 	ld	(hl+),a
   04A1 5E                 1666 	ld	e,(hl)
   04A2 23                 1667 	inc	hl
   04A3 56                 1668 	ld	d,(hl)
   04A4 1A                 1669 	ld	a,(de)
   04A5 23                 1670 	inc	hl
   04A6 77                 1671 	ld	(hl),a
                           1672 ;	genIpush
                           1673 ; _saveRegsForCall: sendSetSize: 0 deInUse: 0 bcInUse: 1 deSending: 0
   04A7 C5                 1674 	push	bc
                           1675 ;	AOP_STK for _player_input_sloc3_1_0
   04A8 F8 02              1676 	lda	hl,2(sp)
   04AA 7E                 1677 	ld	a,(hl)
   04AB F5                 1678 	push	af
   04AC 33                 1679 	inc	sp
                           1680 ;	genIpush
                           1681 ;	AOP_STK for _player_input_sloc2_1_0
   04AD 23                 1682 	inc	hl
   04AE 7E                 1683 	ld	a,(hl)
   04AF F5                 1684 	push	af
   04B0 33                 1685 	inc	sp
                           1686 ;	genIpush
                           1687 ;	AOP_STK for _player_input_sloc0_1_0
   04B1 F8 08              1688 	lda	hl,8(sp)
   04B3 7E                 1689 	ld	a,(hl)
   04B4 F5                 1690 	push	af
   04B5 33                 1691 	inc	sp
                           1692 ;	genCall
   04B6 CD 88 05           1693 	call	_can_move
                           1694 ;	AOP_STK for _player_input_sloc1_1_0
   04B9 F8 08              1695 	lda	hl,8(sp)
   04BB 72                 1696 	ld	(hl),d
   04BC 2B                 1697 	dec	hl
   04BD 73                 1698 	ld	(hl),e
   04BE E8 03              1699 	lda	sp,3(sp)
   04C0 C1                 1700 	pop	bc
                           1701 ;	genIfx
                           1702 ;	AOP_STK for _player_input_sloc1_1_0
   04C1 F8 02              1703 	lda	hl,2(sp)
   04C3 2A                 1704 	ld	a,(hl+)
   04C4 B6                 1705 	or	a,(hl)
   04C5 CA 85 05           1706 	jp	z,00119$
                           1707 ;	game.c 292
                           1708 ;	genAssign
                           1709 ;	AOP_HL for _input_timer
   04C8 21 2A 06           1710 	ld	hl,#_input_timer
   04CB 36 04              1711 	ld	(hl),#0x04
                           1712 ;	game.c 294
                           1713 ;	genGoto
   04CD C3 85 05           1714 	jp	00119$
                           1715 ;	game.c 296
                           1716 ;	genLabel
   04D0                    1717 00109$:
                           1718 ;	genPointerGet
                           1719 ;	AOP_STK for _player_input_sloc1_1_0
   04D0 59                 1720 	ld	e,c
   04D1 50                 1721 	ld	d,b
   04D2 1A                 1722 	ld	a,(de)
   04D3 F8 02              1723 	lda	hl,2(sp)
   04D5 77                 1724 	ld	(hl),a
   04D6 13                 1725 	inc	de
   04D7 1A                 1726 	ld	a,(de)
   04D8 23                 1727 	inc	hl
                           1728 ;	genPlus
                           1729 ;	AOP_STK for _player_input_sloc1_1_0
                           1730 ;	AOP_STK for _player_input_sloc0_1_0
                           1731 ;	genPlusIncr
                           1732 ;	Can't optimise plus by inc, falling back to the normal way
   04D9 32                 1733 	ld      (hl-),a
   04DA 5E                 1734 	ld	e,(hl)
   04DB 23                 1735 	inc	hl
   04DC 56                 1736 	ld	d,(hl)
   04DD 21 05 00           1737 	ld	hl,#0x0005
   04E0 19                 1738 	add	hl,de
   04E1 7D                 1739 	ld	a,l
   04E2 54                 1740 	ld	d,h
   04E3 F8 04              1741 	lda	hl,4(sp)
   04E5 22                 1742 	ld	(hl+),a
   04E6 72                 1743 	ld	(hl),d
                           1744 ;	genAssign (pointer)
                           1745 ;	AOP_STK for _player_input_sloc0_1_0
   04E7 2B                 1746 	dec	hl
   04E8 5E                 1747 	ld	e,(hl)
   04E9 23                 1748 	inc	hl
   04EA 56                 1749 	ld	d,(hl)
   04EB 3E 01              1750 	ld	a,#0x01
   04ED 12                 1751 	ld	(de),a
                           1752 ;	game.c 297
                           1753 ;	genPointerGet
                           1754 ;	AOP_STK for _player_input_sloc0_1_0
                           1755 ;	AOP_STK for _player_input_sloc3_1_0
   04EE 2B                 1756 	dec	hl
   04EF 5E                 1757 	ld	e,(hl)
   04F0 23                 1758 	inc	hl
   04F1 56                 1759 	ld	d,(hl)
   04F2 1A                 1760 	ld	a,(de)
   04F3 F8 00              1761 	lda	hl,0(sp)
                           1762 ;	genPlus
                           1763 ;	AOP_STK for _player_input_sloc1_1_0
                           1764 ;	AOP_STK for _player_input_sloc0_1_0
                           1765 ;	genPlusIncr
                           1766 ;	Can't optimise plus by inc, falling back to the normal way
   04F5 22                 1767 	ld	(hl+),a
   04F6 23                 1768 	inc	hl
   04F7 5E                 1769 	ld	e,(hl)
   04F8 23                 1770 	inc	hl
   04F9 56                 1771 	ld	d,(hl)
   04FA 21 01 00           1772 	ld	hl,#0x0001
   04FD 19                 1773 	add	hl,de
   04FE 7D                 1774 	ld	a,l
   04FF 54                 1775 	ld	d,h
   0500 F8 04              1776 	lda	hl,4(sp)
                           1777 ;	genPointerGet
                           1778 ;	AOP_STK for _player_input_sloc0_1_0
                           1779 ;	AOP_STK for _player_input_sloc2_1_0
   0502 22                 1780 	ld	(hl+),a
   0503 72                 1781 	ld	(hl),d
   0504 5F                 1782 	ld	e,a
   0505 1A                 1783 	ld	a,(de)
   0506 F8 01              1784 	lda	hl,1(sp)
                           1785 ;	genPointerGet
                           1786 ;	AOP_STK for _player_input_sloc1_1_0
                           1787 ;	AOP_STK for _player_input_sloc0_1_0
   0508 22                 1788 	ld	(hl+),a
   0509 5E                 1789 	ld	e,(hl)
   050A 23                 1790 	inc	hl
   050B 56                 1791 	ld	d,(hl)
   050C 1A                 1792 	ld	a,(de)
   050D 23                 1793 	inc	hl
   050E 77                 1794 	ld	(hl),a
                           1795 ;	genIpush
                           1796 ; _saveRegsForCall: sendSetSize: 0 deInUse: 0 bcInUse: 1 deSending: 0
   050F C5                 1797 	push	bc
                           1798 ;	AOP_STK for _player_input_sloc3_1_0
   0510 F8 02              1799 	lda	hl,2(sp)
   0512 7E                 1800 	ld	a,(hl)
   0513 F5                 1801 	push	af
   0514 33                 1802 	inc	sp
                           1803 ;	genIpush
                           1804 ;	AOP_STK for _player_input_sloc2_1_0
   0515 23                 1805 	inc	hl
   0516 7E                 1806 	ld	a,(hl)
   0517 F5                 1807 	push	af
   0518 33                 1808 	inc	sp
                           1809 ;	genIpush
                           1810 ;	AOP_STK for _player_input_sloc0_1_0
   0519 F8 08              1811 	lda	hl,8(sp)
   051B 7E                 1812 	ld	a,(hl)
   051C F5                 1813 	push	af
   051D 33                 1814 	inc	sp
                           1815 ;	genCall
   051E CD 88 05           1816 	call	_can_move
                           1817 ;	AOP_STK for _player_input_sloc1_1_0
   0521 F8 08              1818 	lda	hl,8(sp)
   0523 72                 1819 	ld	(hl),d
   0524 2B                 1820 	dec	hl
   0525 73                 1821 	ld	(hl),e
   0526 E8 03              1822 	lda	sp,3(sp)
   0528 C1                 1823 	pop	bc
                           1824 ;	genIfx
                           1825 ;	AOP_STK for _player_input_sloc1_1_0
   0529 F8 02              1826 	lda	hl,2(sp)
   052B 2A                 1827 	ld	a,(hl+)
   052C B6                 1828 	or	a,(hl)
   052D CA 85 05           1829 	jp	z,00119$
                           1830 ;	game.c 298
                           1831 ;	genAssign
                           1832 ;	AOP_HL for _input_timer
   0530 21 2A 06           1833 	ld	hl,#_input_timer
   0533 36 04              1834 	ld	(hl),#0x04
                           1835 ;	game.c 300
                           1836 ;	genGoto
   0535 C3 85 05           1837 	jp	00119$
                           1838 ;	game.c 302
                           1839 ;	genLabel
   0538                    1840 00112$:
                           1841 ;	genPointerGet
   0538 59                 1842 	ld	e,c
   0539 50                 1843 	ld	d,b
   053A 1A                 1844 	ld	a,(de)
   053B 4F                 1845 	ld	c,a
   053C 13                 1846 	inc	de
   053D 1A                 1847 	ld	a,(de)
   053E 47                 1848 	ld	b,a
                           1849 ;	genPlus
                           1850 ;	AOP_STK for _player_input_sloc1_1_0
                           1851 ;	genPlusIncr
                           1852 ;	Can't optimise plus by inc, falling back to the normal way
   053F 21 05 00           1853 	ld	hl,#0x0005
   0542 09                 1854 	add	hl,bc
   0543 7D                 1855 	ld	a,l
   0544 54                 1856 	ld	d,h
   0545 F8 02              1857 	lda	hl,2(sp)
   0547 22                 1858 	ld	(hl+),a
   0548 72                 1859 	ld	(hl),d
                           1860 ;	genAssign (pointer)
                           1861 ;	AOP_STK for _player_input_sloc1_1_0
   0549 2B                 1862 	dec	hl
   054A 5E                 1863 	ld	e,(hl)
   054B 23                 1864 	inc	hl
   054C 56                 1865 	ld	d,(hl)
   054D 3E 03              1866 	ld	a,#0x03
   054F 12                 1867 	ld	(de),a
                           1868 ;	game.c 303
                           1869 ;	genPointerGet
                           1870 ;	AOP_STK for _player_input_sloc1_1_0
                           1871 ;	AOP_STK for _player_input_sloc3_1_0
   0550 2B                 1872 	dec	hl
   0551 5E                 1873 	ld	e,(hl)
   0552 23                 1874 	inc	hl
   0553 56                 1875 	ld	d,(hl)
   0554 1A                 1876 	ld	a,(de)
   0555 F8 00              1877 	lda	hl,0(sp)
   0557 77                 1878 	ld	(hl),a
                           1879 ;	genPlus
                           1880 ;	AOP_STK for _player_input_sloc1_1_0
                           1881 ;	genPlusIncr
                           1882 ;	Can't optimise plus by inc, falling back to the normal way
   0558 21 01 00           1883 	ld	hl,#0x0001
   055B 09                 1884 	add	hl,bc
   055C 7D                 1885 	ld	a,l
   055D 54                 1886 	ld	d,h
   055E F8 02              1887 	lda	hl,2(sp)
                           1888 ;	genPointerGet
                           1889 ;	AOP_STK for _player_input_sloc1_1_0
                           1890 ;	AOP_STK for _player_input_sloc2_1_0
   0560 22                 1891 	ld	(hl+),a
   0561 72                 1892 	ld	(hl),d
   0562 5F                 1893 	ld	e,a
   0563 1A                 1894 	ld	a,(de)
   0564 2B                 1895 	dec	hl
   0565 2B                 1896 	dec	hl
   0566 77                 1897 	ld	(hl),a
                           1898 ;	genPointerGet
   0567 0A                 1899 	ld	a,(bc)
   0568 4F                 1900 	ld	c,a
                           1901 ;	genIpush
                           1902 ; _saveRegsForCall: sendSetSize: 0 deInUse: 0 bcInUse: 0 deSending: 0
                           1903 ;	AOP_STK for _player_input_sloc3_1_0
   0569 2B                 1904 	dec	hl
   056A 7E                 1905 	ld	a,(hl)
   056B F5                 1906 	push	af
   056C 33                 1907 	inc	sp
                           1908 ;	genIpush
                           1909 ;	AOP_STK for _player_input_sloc2_1_0
   056D 23                 1910 	inc	hl
   056E 7E                 1911 	ld	a,(hl)
   056F F5                 1912 	push	af
   0570 33                 1913 	inc	sp
                           1914 ;	genIpush
   0571 79                 1915 	ld	a,c
   0572 F5                 1916 	push	af
   0573 33                 1917 	inc	sp
                           1918 ;	genCall
   0574 CD 88 05           1919 	call	_can_move
   0577 42                 1920 	ld	b,d
   0578 4B                 1921 	ld	c,e
   0579 E8 03              1922 	lda	sp,3(sp)
                           1923 ;	genIfx
   057B 79                 1924 	ld	a,c
   057C B0                 1925 	or	a,b
   057D CA 85 05           1926 	jp	z,00119$
                           1927 ;	game.c 304
                           1928 ;	genAssign
                           1929 ;	AOP_HL for _input_timer
   0580 21 2A 06           1930 	ld	hl,#_input_timer
   0583 36 04              1931 	ld	(hl),#0x04
                           1932 ;	game.c 307
                           1933 ;	genLabel
   0585                    1934 00119$:
                           1935 ;	genEndFunction
   0585 E8 06              1936 	lda	sp,6(sp)
   0587 C9                 1937 	ret
   0588                    1938 ___player_input_end:
                           1939 ;	game.c 316
                           1940 ;	genLabel
                           1941 ;	genFunction
                           1942 ;	---------------------------------
                           1943 ; Function can_move
                           1944 ; ---------------------------------
   0588                    1945 ___can_move_start:
   0588                    1946 _can_move:
   0588 E8 FA              1947 	lda	sp,-6(sp)
                           1948 ;	game.c 327
                           1949 ;	genCmpLt
                           1950 ;	AOP_STK for 
   058A F8 0A              1951 	lda	hl,10(sp)
   058C 7E                 1952 	ld	a,(hl)
   058D FE 01              1953 	cp	#0x01
   058F DA D3 05           1954 	jp	c,00105$
                           1955 ;	genCmpGt
                           1956 ;	AOP_STK for 
   0592 3E 04              1957 	ld	a,#0x04
   0594 96                 1958 	sub	a,(hl)
   0595 DA D3 05           1959 	jp	c,00105$
                           1960 ;	genMinus
                           1961 ;	AOP_STK for 
   0598 7E                 1962 	ld	a,(hl)
   0599 C6 FF              1963 	add	a,#0xFF
   059B 4F                 1964 	ld	c,a
                           1965 ;	genJumpTab
   059C 59                 1966 	ld	e,c
   059D 16 00              1967 	ld	d,#0x00
   059F 21 A6 05           1968 	ld	hl,#00123$
   05A2 19                 1969 	add	hl,de
   05A3 19                 1970 	add	hl,de
   05A4 19                 1971 	add	hl,de
   05A5 E9                 1972 	jp	(hl)
   05A6                    1973 00123$:
   05A6 C3 C4 05           1974 	jp	00103$
   05A9 C3 BB 05           1975 	jp	00102$
   05AC C3 CD 05           1976 	jp	00104$
   05AF C3 B2 05           1977 	jp	00101$
                           1978 ;	game.c 329
                           1979 ;	genLabel
   05B2                    1980 00101$:
                           1981 ;	genMinus
                           1982 ;	AOP_STK for 
   05B2 F8 08              1983 	lda	hl,8(sp)
   05B4 7E                 1984 	ld	a,(hl)
   05B5 C6 F8              1985 	add	a,#0xF8
   05B7 77                 1986 	ld	(hl),a
                           1987 ;	game.c 330
                           1988 ;	genGoto
   05B8 C3 D3 05           1989 	jp	00105$
                           1990 ;	game.c 332
                           1991 ;	genLabel
   05BB                    1992 00102$:
                           1993 ;	genPlus
                           1994 ;	AOP_STK for 
                           1995 ;	genPlusIncr
                           1996 ;	Can't optimise plus by inc, falling back to the normal way
   05BB F8 08              1997 	lda	hl,8(sp)
   05BD 7E                 1998 	ld	a,(hl)
   05BE C6 08              1999 	add	a,#0x08
   05C0 77                 2000 	ld	(hl),a
                           2001 ;	game.c 333
                           2002 ;	genGoto
   05C1 C3 D3 05           2003 	jp	00105$
                           2004 ;	game.c 335
                           2005 ;	genLabel
   05C4                    2006 00103$:
                           2007 ;	genMinus
                           2008 ;	AOP_STK for 
   05C4 F8 09              2009 	lda	hl,9(sp)
   05C6 7E                 2010 	ld	a,(hl)
   05C7 C6 F8              2011 	add	a,#0xF8
   05C9 77                 2012 	ld	(hl),a
                           2013 ;	game.c 336
                           2014 ;	genGoto
   05CA C3 D3 05           2015 	jp	00105$
                           2016 ;	game.c 338
                           2017 ;	genLabel
   05CD                    2018 00104$:
                           2019 ;	genPlus
                           2020 ;	AOP_STK for 
                           2021 ;	genPlusIncr
                           2022 ;	Can't optimise plus by inc, falling back to the normal way
   05CD F8 09              2023 	lda	hl,9(sp)
   05CF 7E                 2024 	ld	a,(hl)
   05D0 C6 08              2025 	add	a,#0x08
   05D2 77                 2026 	ld	(hl),a
                           2027 ;	game.c 340
                           2028 ;	genLabel
   05D3                    2029 00105$:
                           2030 ;	game.c 342
                           2031 ;	genCast
                           2032 ;	AOP_STK for 
   05D3 F8 08              2033 	lda	hl,8(sp)
   05D5 4E                 2034 	ld	c,(hl)
   05D6 06 00              2035 	ld	b,#0x00
                           2036 ;	genRightShift
   05D8 CB 38              2037 	srl	b
   05DA CB 19              2038 	rr	c
   05DC CB 38              2039 	srl	b
   05DE CB 19              2040 	rr	c
   05E0 CB 38              2041 	srl	b
   05E2 CB 19              2042 	rr	c
                           2043 ;	genMinus
   05E4 0B                 2044 	dec	bc
                           2045 ;	genCast
                           2046 ;	AOP_STK for _can_move__x_1_1
   05E5 F8 05              2047 	lda	hl,5(sp)
   05E7 71                 2048 	ld	(hl),c
                           2049 ;	game.c 343
                           2050 ;	genCast
                           2051 ;	AOP_STK for 
   05E8 F8 09              2052 	lda	hl,9(sp)
   05EA 46                 2053 	ld	b,(hl)
   05EB 0E 00              2054 	ld	c,#0x00
                           2055 ;	genRightShift
   05ED CB 39              2056 	srl	c
   05EF CB 18              2057 	rr	b
   05F1 CB 39              2058 	srl	c
   05F3 CB 18              2059 	rr	b
   05F5 CB 39              2060 	srl	c
   05F7 CB 18              2061 	rr	b
                           2062 ;	genMinus
   05F9 58                 2063 	ld	e,b
   05FA 51                 2064 	ld	d,c
   05FB 1B                 2065 	dec	de
   05FC 1B                 2066 	dec	de
   05FD 43                 2067 	ld	b,e
   05FE 4A                 2068 	ld	c,d
                           2069 ;	genCast
                           2070 ;	AOP_STK for _can_move__y_1_1
   05FF F8 04              2071 	lda	hl,4(sp)
   0601 70                 2072 	ld	(hl),b
                           2073 ;	game.c 349
                           2074 ;	genCmpLt
                           2075 ;	AOP_STK for _can_move__x_1_1
   0602 23                 2076 	inc	hl
   0603 7E                 2077 	ld	a,(hl)
   0604 FE 00              2078 	cp	#0x00
   0606 DA 2D 06           2079 	jp	c,00106$
                           2080 ;	genCast
                           2081 ;	AOP_STK for _can_move__x_1_1
   0609 46                 2082 	ld	b,(hl)
   060A 0E 00              2083 	ld	c,#0x00
                           2084 ;	genCmpGt
   060C 3E 13              2085 	ld	a,#0x13
   060E 90                 2086 	sub	a,b
   060F 3E 00              2087 	ld	a,#0x00
   0611 99                 2088 	sbc	a,c
   0612 DA 2D 06           2089 	jp	c,00106$
                           2090 ;	genCmpLt
                           2091 ;	AOP_STK for _can_move__y_1_1
   0615 2B                 2092 	dec	hl
   0616 7E                 2093 	ld	a,(hl)
   0617 FE 00              2094 	cp	#0x00
   0619 DA 2D 06           2095 	jp	c,00106$
                           2096 ;	genCast
                           2097 ;	AOP_STK for _can_move__y_1_1
                           2098 ;	AOP_STK for _can_move_sloc0_1_0
   061C 7E                 2099 	ld	a,(hl)
   061D F8 00              2100 	lda	hl,0(sp)
   061F 22                 2101 	ld	(hl+),a
   0620 36 00              2102 	ld	(hl),#0x00
                           2103 ;	genCmpGt
                           2104 ;	AOP_STK for _can_move_sloc0_1_0
   0622 3E 11              2105 	ld	a,#0x11
   0624 2B                 2106 	dec	hl
   0625 96                 2107 	sub	a,(hl)
   0626 3E 00              2108 	ld	a,#0x00
   0628 23                 2109 	inc	hl
   0629 9E                 2110 	sbc	a,(hl)
   062A D2 33 06           2111 	jp	nc,00107$
                           2112 ;	genLabel
   062D                    2113 00106$:
                           2114 ;	game.c 350
                           2115 ;	genRet
   062D 11 00 00           2116 	ld	de,#0x0000
   0630 C3 7B 06           2117 	jp	00114$
                           2118 ;	genLabel
   0633                    2119 00107$:
                           2120 ;	game.c 357
                           2121 ;	genAssign
                           2122 ;	(registers are the same)
                           2123 ;	genAssign
                           2124 ;	AOP_STK for _can_move_map_position_1_1
   0633 F8 02              2125 	lda	hl,2(sp)
   0635 70                 2126 	ld	(hl),b
   0636 23                 2127 	inc	hl
   0637 71                 2128 	ld	(hl),c
                           2129 ;	game.c 358
                           2130 ;	genMult
                           2131 ;	AOP_STK for _can_move_sloc0_1_0
   0638 F8 00              2132 	lda	hl,0(sp)
   063A 5E                 2133 	ld	e,(hl)
   063B 23                 2134 	inc	hl
   063C 56                 2135 	ld	d,(hl)
   063D 6B                 2136 	ld	l,e
   063E 62                 2137 	ld	h,d
   063F 29                 2138 	add	hl,hl
   0640 29                 2139 	add	hl,hl
   0641 19                 2140 	add	hl,de
   0642 29                 2141 	add	hl,hl
   0643 29                 2142 	add	hl,hl
   0644 4D                 2143 	ld	c,l
   0645 44                 2144 	ld	b,h
                           2145 ;	genPlus
                           2146 ;	AOP_STK for _can_move_map_position_1_1
                           2147 ;	Can't optimise plus by inc, falling back to the normal way
   0646 F8 02              2148 	lda	hl,2(sp)
   0648 2A                 2149 	ld	a,(hl+)
   0649 66                 2150 	ld	h,(hl)
   064A 6F                 2151 	ld	l,a
   064B 09                 2152 	add	hl,bc
   064C 7D                 2153 	ld	a,l
   064D 54                 2154 	ld	d,h
   064E F8 02              2155 	lda	hl,2(sp)
   0650 22                 2156 	ld	(hl+),a
   0651 72                 2157 	ld	(hl),d
                           2158 ;	game.c 360
                           2159 ;	genPlus
                           2160 ;	AOP_STK for _can_move_map_position_1_1
                           2161 ;	Can't optimise plus by inc, falling back to the normal way
   0652 11 F0 00           2162 	ld	de,#_Map1
   0655 2B                 2163 	dec	hl
   0656 2A                 2164 	ld	a,(hl+)
   0657 66                 2165 	ld	h,(hl)
   0658 6F                 2166 	ld	l,a
   0659 19                 2167 	add	hl,de
   065A 4D                 2168 	ld	c,l
   065B 44                 2169 	ld	b,h
                           2170 ;	genPointerGet
   065C 0A                 2171 	ld	a,(bc)
   065D 4F                 2172 	ld	c,a
                           2173 ;	genCast
                           2174 ; Removed redundent load
   065E 06 00              2175 	ld	b,#0x00
                           2176 ;	genCmpGt
   0660 3E 14              2177 	ld	a,#0x14
   0662 91                 2178 	sub	a,c
   0663 3E 00              2179 	ld	a,#0x00
   0665 98                 2180 	sbc	a,b
   0666 D2 78 06           2181 	jp	nc,00112$
                           2182 ;	game.c 361
                           2183 ;	genCmpLt
   0669 79                 2184 	ld	a,c
   066A D6 29              2185 	sub	a,#0x29
   066C 78                 2186 	ld	a,b
   066D DE 00              2187 	sbc	a,#0x00
   066F D2 78 06           2188 	jp	nc,00112$
                           2189 ;	game.c 362
                           2190 ;	genRet
   0672 11 00 00           2191 	ld	de,#0x0000
   0675 C3 7B 06           2192 	jp	00114$
                           2193 ;	genLabel
   0678                    2194 00112$:
                           2195 ;	game.c 379
                           2196 ;	genRet
   0678 11 01 00           2197 	ld	de,#0x0001
                           2198 ;	genLabel
   067B                    2199 00114$:
                           2200 ;	genEndFunction
   067B E8 06              2201 	lda	sp,6(sp)
   067D C9                 2202 	ret
   067E                    2203 ___can_move_end:
                           2204 ;	game.c 382
                           2205 ;	genLabel
                           2206 ;	genFunction
                           2207 ;	---------------------------------
                           2208 ; Function move_character
                           2209 ; ---------------------------------
   067E                    2210 ___move_character_start:
   067E                    2211 _move_character:
   067E E8 F2              2212 	lda	sp,-14(sp)
                           2213 ;	game.c 385
                           2214 ;	genAssign
                           2215 ;	AOP_HL for _player
   0680 21 5E 06           2216 	ld	hl,#_player
   0683 4E                 2217 	ld	c,(hl)
   0684 23                 2218 	inc	hl
   0685 46                 2219 	ld	b,(hl)
                           2220 ;	genPlus
                           2221 ;	genPlusIncr
                           2222 ;	Can't optimise plus by inc, falling back to the normal way
   0686 79                 2223 	ld	a,c
   0687 C6 08              2224 	add	a,#0x08
   0689 4F                 2225 	ld	c,a
   068A 78                 2226 	ld	a,b
   068B CE 00              2227 	adc	a,#0x00
   068D 47                 2228 	ld	b,a
                           2229 ;	genPointerGet
   068E 0A                 2230 	ld	a,(bc)
   068F 4F                 2231 	ld	c,a
                           2232 ;	genAssign
                           2233 ;	AOP_STK for 
                           2234 ;	AOP_STK for _move_character_sloc0_1_0
   0690 F8 10              2235 	lda	hl,16(sp)
   0692 2A                 2236 	ld	a,(hl+)
   0693 5E                 2237 	ld	e,(hl)
   0694 F8 0C              2238 	lda	hl,12(sp)
   0696 22                 2239 	ld	(hl+),a
   0697 73                 2240 	ld	(hl),e
                           2241 ;	genPlus
                           2242 ;	AOP_STK for _move_character_sloc0_1_0
                           2243 ;	AOP_STK for _move_character_sloc1_1_0
                           2244 ;	genPlusIncr
                           2245 ;	Can't optimise plus by inc, falling back to the normal way
   0698 2B                 2246 	dec	hl
   0699 5E                 2247 	ld	e,(hl)
   069A 23                 2248 	inc	hl
   069B 56                 2249 	ld	d,(hl)
   069C 21 08 00           2250 	ld	hl,#0x0008
   069F 19                 2251 	add	hl,de
   06A0 7D                 2252 	ld	a,l
   06A1 54                 2253 	ld	d,h
   06A2 F8 0A              2254 	lda	hl,10(sp)
                           2255 ;	genPointerGet
                           2256 ;	AOP_STK for _move_character_sloc1_1_0
   06A4 22                 2257 	ld	(hl+),a
   06A5 72                 2258 	ld	(hl),d
   06A6 5F                 2259 	ld	e,a
   06A7 1A                 2260 	ld	a,(de)
   06A8 47                 2261 	ld	b,a
                           2262 ;	genCmpEq
                           2263 ; genCmpEq: left 1, right 1, result 0
   06A9 79                 2264 	ld	a,c
   06AA B8                 2265 	cp	b
                           2266 ;	game.c 386
                           2267 ;	genRet
                           2268 ;	genLabel
   06AB CA B1 06           2269 	jp	z,00102$
   06AE                    2270 00162$:
   06AE C3 94 0A           2271 	jp	00141$
   06B1                    2272 00102$:
                           2273 ;	game.c 389
                           2274 ;	genPlus
                           2275 ;	AOP_STK for _move_character_sloc0_1_0
                           2276 ;	AOP_STK for _move_character_sloc2_1_0
                           2277 ;	genPlusIncr
                           2278 ;	Can't optimise plus by inc, falling back to the normal way
   06B1 F8 0C              2279 	lda	hl,12(sp)
   06B3 5E                 2280 	ld	e,(hl)
   06B4 23                 2281 	inc	hl
   06B5 56                 2282 	ld	d,(hl)
   06B6 21 06 00           2283 	ld	hl,#0x0006
   06B9 19                 2284 	add	hl,de
   06BA 7D                 2285 	ld	a,l
   06BB 54                 2286 	ld	d,h
   06BC F8 08              2287 	lda	hl,8(sp)
                           2288 ;	genPointerGet
                           2289 ;	AOP_STK for _move_character_sloc2_1_0
   06BE 22                 2290 	ld	(hl+),a
   06BF 72                 2291 	ld	(hl),d
   06C0 5F                 2292 	ld	e,a
   06C1 1A                 2293 	ld	a,(de)
                           2294 ;	genCmpEq
                           2295 ; genCmpEq: left 1, right 1, result 0
   06C2 4F                 2296 	ld	c,a
   06C3 B7                 2297 	or	a,a
   06C4 CA 5C 09           2298 	jp	z,00139$
   06C7                    2299 00163$:
                           2300 ;	game.c 392
                           2301 ;	genCmpEq
                           2302 ; genCmpEq: left 1, right 1, result 0
   06C7 78                 2303 	ld	a,b
   06C8 FE 01              2304 	cp	a,#0x01
   06CA C2 B2 08           2305 	jp	nz,00120$
   06CD 18 03              2306 	jr	00165$
   06CF                    2307 00164$:
   06CF C3 B2 08           2308 	jp	00120$
   06D2                    2309 00165$:
                           2310 ;	game.c 394
                           2311 ;	genCmpEq
                           2312 ; genCmpEq: left 1, right 1, result 0
   06D2 79                 2313 	ld	a,c
   06D3 FE 01              2314 	cp	a,#0x01
   06D5 C2 F4 06           2315 	jp	nz,00104$
   06D8 18 03              2316 	jr	00167$
   06DA                    2317 00166$:
   06DA C3 F4 06           2318 	jp	00104$
   06DD                    2319 00167$:
                           2320 ;	game.c 396
                           2321 ;	genAssign (pointer)
                           2322 ;	AOP_STK for _move_character_sloc2_1_0
   06DD F8 08              2323 	lda	hl,8(sp)
   06DF 5E                 2324 	ld	e,(hl)
   06E0 23                 2325 	inc	hl
   06E1 56                 2326 	ld	d,(hl)
   06E2 3E 02              2327 	ld	a,#0x02
   06E4 12                 2328 	ld	(de),a
                           2329 ;	game.c 397
                           2330 ;	genPlus
                           2331 ;	AOP_STK for _move_character_sloc0_1_0
                           2332 ;	genPlusIncr
                           2333 ;	Can't optimise plus by inc, falling back to the normal way
   06E5 F8 0C              2334 	lda	hl,12(sp)
   06E7 5E                 2335 	ld	e,(hl)
   06E8 23                 2336 	inc	hl
   06E9 56                 2337 	ld	d,(hl)
   06EA 21 07 00           2338 	ld	hl,#0x0007
   06ED 19                 2339 	add	hl,de
   06EE 7D                 2340 	ld	a,l
   06EF 54                 2341 	ld	d,h
   06F0 6F                 2342 	ld	l,a
   06F1 62                 2343 	ld	h,d
                           2344 ;	genAssign (pointer)
   06F2 36 10              2345 	ld	(hl),#0x10
                           2346 ;	genLabel
   06F4                    2347 00104$:
                           2348 ;	game.c 400
                           2349 ;	genPlus
                           2350 ;	AOP_STK for _move_character_sloc0_1_0
                           2351 ;	AOP_STK for _move_character_sloc3_1_0
                           2352 ;	genPlusIncr
                           2353 ;	Can't optimise plus by inc, falling back to the normal way
   06F4 F8 0C              2354 	lda	hl,12(sp)
   06F6 5E                 2355 	ld	e,(hl)
   06F7 23                 2356 	inc	hl
   06F8 56                 2357 	ld	d,(hl)
   06F9 21 04 00           2358 	ld	hl,#0x0004
   06FC 19                 2359 	add	hl,de
   06FD 7D                 2360 	ld	a,l
   06FE 54                 2361 	ld	d,h
   06FF F8 06              2362 	lda	hl,6(sp)
                           2363 ;	genPointerGet
                           2364 ;	AOP_STK for _move_character_sloc3_1_0
   0701 22                 2365 	ld	(hl+),a
   0702 72                 2366 	ld	(hl),d
   0703 5F                 2367 	ld	e,a
   0704 1A                 2368 	ld	a,(de)
   0705 4F                 2369 	ld	c,a
                           2370 ;	genIpush
                           2371 ; _saveRegsForCall: sendSetSize: 0 deInUse: 0 bcInUse: 1 deSending: 0
   0706 C5                 2372 	push	bc
   0707 79                 2373 	ld	a,c
   0708 F5                 2374 	push	af
   0709 33                 2375 	inc	sp
                           2376 ;	genIpush
   070A 78                 2377 	ld	a,b
   070B F5                 2378 	push	af
   070C 33                 2379 	inc	sp
                           2380 ;	genCall
   070D CD 00 00           2381 	call	_set_sprite_tile
   0710 E8 02              2382 	lda	sp,2(sp)
   0712 E1                 2383 	pop	hl
   0713 44                 2384 	ld	b,h
                           2385 ;	game.c 403
                           2386 ;	genPlus
                           2387 ;	AOP_STK for _move_character_sloc0_1_0
                           2388 ;	AOP_STK for _move_character_sloc3_1_0
                           2389 ;	genPlusIncr
                           2390 ;	Can't optimise plus by inc, falling back to the normal way
   0714 F8 0C              2391 	lda	hl,12(sp)
   0716 5E                 2392 	ld	e,(hl)
   0717 23                 2393 	inc	hl
   0718 56                 2394 	ld	d,(hl)
   0719 21 07 00           2395 	ld	hl,#0x0007
   071C 19                 2396 	add	hl,de
   071D 7D                 2397 	ld	a,l
   071E 54                 2398 	ld	d,h
   071F F8 06              2399 	lda	hl,6(sp)
                           2400 ;	genPointerGet
                           2401 ;	AOP_STK for _move_character_sloc3_1_0
   0721 22                 2402 	ld	(hl+),a
   0722 72                 2403 	ld	(hl),d
   0723 5F                 2404 	ld	e,a
   0724 1A                 2405 	ld	a,(de)
                           2406 ;	genCmpEq
                           2407 ; genCmpEq: left 1, right 1, result 0
   0725 4F                 2408 	ld	c,a
   0726 FE 04              2409 	cp	a,#0x04
   0728 CA 42 07           2410 	jp	z,00107$
   072B                    2411 00168$:
                           2412 ;	game.c 404
                           2413 ;	genCmpEq
                           2414 ; genCmpEq: left 1, right 1, result 0
   072B 79                 2415 	ld	a,c
   072C FE 08              2416 	cp	a,#0x08
   072E CA 42 07           2417 	jp	z,00107$
   0731                    2418 00169$:
                           2419 ;	game.c 405
                           2420 ;	genCmpEq
                           2421 ; genCmpEq: left 1, right 1, result 0
   0731 79                 2422 	ld	a,c
   0732 FE 0C              2423 	cp	a,#0x0C
   0734 CA 42 07           2424 	jp	z,00107$
   0737                    2425 00170$:
                           2426 ;	game.c 406
                           2427 ;	genCmpEq
                           2428 ; genCmpEq: left 1, right 1, result 0
   0737 79                 2429 	ld	a,c
   0738 FE 10              2430 	cp	a,#0x10
   073A C2 9C 07           2431 	jp	nz,00108$
   073D 18 03              2432 	jr	00172$
   073F                    2433 00171$:
   073F C3 9C 07           2434 	jp	00108$
   0742                    2435 00172$:
                           2436 ;	genLabel
   0742                    2437 00107$:
                           2438 ;	game.c 408
                           2439 ;	genPlus
                           2440 ;	AOP_STK for _move_character_sloc0_1_0
                           2441 ;	AOP_STK for _move_character_sloc4_1_0
                           2442 ;	genPlusIncr
                           2443 ;	Can't optimise plus by inc, falling back to the normal way
   0742 F8 0C              2444 	lda	hl,12(sp)
   0744 5E                 2445 	ld	e,(hl)
   0745 23                 2446 	inc	hl
   0746 56                 2447 	ld	d,(hl)
   0747 21 05 00           2448 	ld	hl,#0x0005
   074A 19                 2449 	add	hl,de
   074B 7D                 2450 	ld	a,l
   074C 54                 2451 	ld	d,h
   074D F8 04              2452 	lda	hl,4(sp)
                           2453 ;	genPointerGet
                           2454 ;	AOP_STK for _move_character_sloc4_1_0
                           2455 ;	AOP_STK for _move_character_sloc5_1_0
   074F 22                 2456 	ld	(hl+),a
   0750 72                 2457 	ld	(hl),d
   0751 5F                 2458 	ld	e,a
   0752 1A                 2459 	ld	a,(de)
   0753 2B                 2460 	dec	hl
   0754 2B                 2461 	dec	hl
   0755 77                 2462 	ld	(hl),a
                           2463 ;	genPlus
                           2464 ;	AOP_STK for _move_character_sloc0_1_0
                           2465 ;	AOP_STK for _move_character_sloc6_1_0
                           2466 ;	genPlusIncr
                           2467 ;	Can't optimise plus by inc, falling back to the normal way
   0756 F8 0C              2468 	lda	hl,12(sp)
   0758 5E                 2469 	ld	e,(hl)
   0759 23                 2470 	inc	hl
   075A 56                 2471 	ld	d,(hl)
   075B 21 01 00           2472 	ld	hl,#0x0001
   075E 19                 2473 	add	hl,de
   075F 7D                 2474 	ld	a,l
   0760 54                 2475 	ld	d,h
   0761 F8 01              2476 	lda	hl,1(sp)
                           2477 ;	genPointerGet
                           2478 ;	AOP_STK for _move_character_sloc6_1_0
                           2479 ;	AOP_STK for _move_character_sloc7_1_0
   0763 22                 2480 	ld	(hl+),a
   0764 72                 2481 	ld	(hl),d
   0765 5F                 2482 	ld	e,a
   0766 1A                 2483 	ld	a,(de)
   0767 2B                 2484 	dec	hl
   0768 2B                 2485 	dec	hl
   0769 77                 2486 	ld	(hl),a
                           2487 ;	genPointerGet
                           2488 ;	AOP_STK for _move_character_sloc0_1_0
                           2489 ;	AOP_STK for _move_character_sloc6_1_0
   076A F8 0C              2490 	lda	hl,12(sp)
   076C 5E                 2491 	ld	e,(hl)
   076D 23                 2492 	inc	hl
   076E 56                 2493 	ld	d,(hl)
   076F 1A                 2494 	ld	a,(de)
   0770 F8 01              2495 	lda	hl,1(sp)
   0772 77                 2496 	ld	(hl),a
                           2497 ;	genIpush
                           2498 ; _saveRegsForCall: sendSetSize: 0 deInUse: 0 bcInUse: 1 deSending: 0
   0773 C5                 2499 	push	bc
                           2500 ;	AOP_STK for _move_character_sloc5_1_0
   0774 23                 2501 	inc	hl
   0775 23                 2502 	inc	hl
   0776 7E                 2503 	ld	a,(hl)
   0777 F5                 2504 	push	af
   0778 33                 2505 	inc	sp
                           2506 ;	genIpush
                           2507 ;	AOP_STK for _move_character_sloc7_1_0
   0779 F8 03              2508 	lda	hl,3(sp)
   077B 7E                 2509 	ld	a,(hl)
   077C F5                 2510 	push	af
   077D 33                 2511 	inc	sp
                           2512 ;	genIpush
                           2513 ;	AOP_STK for _move_character_sloc6_1_0
   077E 23                 2514 	inc	hl
   077F 7E                 2515 	ld	a,(hl)
   0780 F5                 2516 	push	af
   0781 33                 2517 	inc	sp
                           2518 ;	genCall
   0782 CD 88 05           2519 	call	_can_move
                           2520 ;	AOP_STK for _move_character_sloc6_1_0
   0785 F8 07              2521 	lda	hl,7(sp)
   0787 72                 2522 	ld	(hl),d
   0788 2B                 2523 	dec	hl
   0789 73                 2524 	ld	(hl),e
   078A E8 03              2525 	lda	sp,3(sp)
   078C C1                 2526 	pop	bc
                           2527 ;	genIfx
                           2528 ;	AOP_STK for _move_character_sloc6_1_0
   078D F8 01              2529 	lda	hl,1(sp)
   078F 2A                 2530 	ld	a,(hl+)
   0790 B6                 2531 	or	a,(hl)
   0791 C2 9C 07           2532 	jp	nz,00108$
                           2533 ;	game.c 409
                           2534 ;	genAssign (pointer)
                           2535 ;	AOP_STK for _move_character_sloc4_1_0
   0794 23                 2536 	inc	hl
   0795 23                 2537 	inc	hl
   0796 5E                 2538 	ld	e,(hl)
   0797 23                 2539 	inc	hl
   0798 56                 2540 	ld	d,(hl)
   0799 3E 00              2541 	ld	a,#0x00
   079B 12                 2542 	ld	(de),a
                           2543 ;	genLabel
   079C                    2544 00108$:
                           2545 ;	game.c 413
                           2546 ;	genPlus
                           2547 ;	AOP_STK for _move_character_sloc0_1_0
                           2548 ;	AOP_STK for _move_character_sloc6_1_0
                           2549 ;	genPlusIncr
                           2550 ;	Can't optimise plus by inc, falling back to the normal way
   079C F8 0C              2551 	lda	hl,12(sp)
   079E 5E                 2552 	ld	e,(hl)
   079F 23                 2553 	inc	hl
   07A0 56                 2554 	ld	d,(hl)
   07A1 21 05 00           2555 	ld	hl,#0x0005
   07A4 19                 2556 	add	hl,de
   07A5 7D                 2557 	ld	a,l
   07A6 54                 2558 	ld	d,h
   07A7 F8 01              2559 	lda	hl,1(sp)
                           2560 ;	genPointerGet
                           2561 ;	AOP_STK for _move_character_sloc6_1_0
                           2562 ;	AOP_STK for _move_character_sloc7_1_0
   07A9 22                 2563 	ld	(hl+),a
   07AA 72                 2564 	ld	(hl),d
   07AB 5F                 2565 	ld	e,a
   07AC 1A                 2566 	ld	a,(de)
   07AD 2B                 2567 	dec	hl
   07AE 2B                 2568 	dec	hl
                           2569 ;	genCmpLt
                           2570 ;	AOP_STK for _move_character_sloc7_1_0
   07AF 77                 2571 	ld      (hl),a
                           2572 ; Removed redundent load
   07B0 FE 01              2573 	cp	#0x01
   07B2 DA 6F 08           2574 	jp	c,00116$
                           2575 ;	genCmpGt
                           2576 ;	AOP_STK for _move_character_sloc7_1_0
   07B5 3E 04              2577 	ld	a,#0x04
   07B7 96                 2578 	sub	a,(hl)
   07B8 DA 6F 08           2579 	jp	c,00116$
                           2580 ;	genMinus
                           2581 ;	AOP_STK for _move_character_sloc7_1_0
                           2582 ;	AOP_STK for _move_character_sloc6_1_0
   07BB 7E                 2583 	ld	a,(hl)
   07BC C6 FF              2584 	add	a,#0xFF
   07BE 23                 2585 	inc	hl
                           2586 ;	genJumpTab
                           2587 ;	AOP_STK for _move_character_sloc6_1_0
   07BF 77                 2588 	ld      (hl),a
   07C0 5F                 2589 	ld      e,a
   07C1 16 00              2590 	ld	d,#0x00
   07C3 21 CA 07           2591 	ld	hl,#00173$
   07C6 19                 2592 	add	hl,de
   07C7 19                 2593 	add	hl,de
   07C8 19                 2594 	add	hl,de
   07C9 E9                 2595 	jp	(hl)
   07CA                    2596 00173$:
   07CA C3 31 08           2597 	jp	00114$
   07CD C3 06 08           2598 	jp	00113$
   07D0 C3 54 08           2599 	jp	00115$
   07D3 C3 D6 07           2600 	jp	00112$
                           2601 ;	game.c 415
                           2602 ;	genLabel
   07D6                    2603 00112$:
                           2604 ;	genPointerGet
                           2605 ;	AOP_STK for _move_character_sloc0_1_0
                           2606 ;	AOP_STK for _move_character_sloc7_1_0
   07D6 F8 0C              2607 	lda	hl,12(sp)
   07D8 5E                 2608 	ld	e,(hl)
   07D9 23                 2609 	inc	hl
   07DA 56                 2610 	ld	d,(hl)
   07DB 1A                 2611 	ld	a,(de)
   07DC F8 00              2612 	lda	hl,0(sp)
                           2613 ;	genMinus
                           2614 ;	AOP_STK for _move_character_sloc7_1_0
                           2615 ;	AOP_STK for _move_character_sloc6_1_0
   07DE 77                 2616 	ld      (hl),a
                           2617 ; Removed redundent load
   07DF C6 FE              2618 	add	a,#0xFE
   07E1 23                 2619 	inc	hl
   07E2 77                 2620 	ld	(hl),a
                           2621 ;	genAssign (pointer)
                           2622 ;	AOP_STK for _move_character_sloc0_1_0
                           2623 ;	AOP_STK for _move_character_sloc6_1_0
   07E3 F8 0C              2624 	lda	hl,12(sp)
   07E5 5E                 2625 	ld	e,(hl)
   07E6 23                 2626 	inc	hl
   07E7 56                 2627 	ld	d,(hl)
   07E8 F8 01              2628 	lda	hl,1(sp)
   07EA 7E                 2629 	ld	a,(hl)
   07EB 12                 2630 	ld	(de),a
                           2631 ;	game.c 416
                           2632 ;	genPointerGet
                           2633 ;	AOP_STK for _move_character_sloc1_1_0
                           2634 ;	AOP_STK for _move_character_sloc7_1_0
   07EC F8 0A              2635 	lda	hl,10(sp)
   07EE 5E                 2636 	ld	e,(hl)
   07EF 23                 2637 	inc	hl
   07F0 56                 2638 	ld	d,(hl)
   07F1 1A                 2639 	ld	a,(de)
   07F2 F8 00              2640 	lda	hl,0(sp)
   07F4 77                 2641 	ld	(hl),a
                           2642 ;	genIpush
                           2643 ; _saveRegsForCall: sendSetSize: 0 deInUse: 0 bcInUse: 1 deSending: 0
   07F5 C5                 2644 	push	bc
   07F6 3E 20              2645 	ld	a,#0x20
   07F8 F5                 2646 	push	af
   07F9 33                 2647 	inc	sp
                           2648 ;	genIpush
                           2649 ;	AOP_STK for _move_character_sloc7_1_0
   07FA 7E                 2650 	ld	a,(hl)
   07FB F5                 2651 	push	af
   07FC 33                 2652 	inc	sp
                           2653 ;	genCall
   07FD CD 00 00           2654 	call	_set_sprite_prop
   0800 E8 02              2655 	lda	sp,2(sp)
   0802 C1                 2656 	pop	bc
                           2657 ;	game.c 417
                           2658 ;	genGoto
   0803 C3 6F 08           2659 	jp	00116$
                           2660 ;	game.c 419
                           2661 ;	genLabel
   0806                    2662 00113$:
                           2663 ;	genPointerGet
                           2664 ;	AOP_STK for _move_character_sloc0_1_0
                           2665 ;	AOP_STK for _move_character_sloc7_1_0
   0806 F8 0C              2666 	lda	hl,12(sp)
   0808 5E                 2667 	ld	e,(hl)
   0809 23                 2668 	inc	hl
   080A 56                 2669 	ld	d,(hl)
   080B 1A                 2670 	ld	a,(de)
   080C F8 00              2671 	lda	hl,0(sp)
                           2672 ;	genPlus
                           2673 ;	AOP_STK for _move_character_sloc7_1_0
                           2674 ;	genPlusIncr
                           2675 ;	Can't optimise plus by inc, falling back to the normal way
   080E 77                 2676 	ld      (hl),a
                           2677 ; Removed redundent load
   080F C6 02              2678 	add	a,#0x02
                           2679 ;	genAssign (pointer)
                           2680 ;	AOP_STK for _move_character_sloc0_1_0
   0811 F8 0C              2681 	lda	hl,12(sp)
   0813 5E                 2682 	ld	e,(hl)
   0814 23                 2683 	inc	hl
   0815 56                 2684 	ld	d,(hl)
   0816 12                 2685 	ld	(de),a
                           2686 ;	game.c 420
                           2687 ;	genPointerGet
                           2688 ;	AOP_STK for _move_character_sloc1_1_0
                           2689 ;	AOP_STK for _move_character_sloc7_1_0
   0817 F8 0A              2690 	lda	hl,10(sp)
   0819 5E                 2691 	ld	e,(hl)
   081A 23                 2692 	inc	hl
   081B 56                 2693 	ld	d,(hl)
   081C 1A                 2694 	ld	a,(de)
   081D F8 00              2695 	lda	hl,0(sp)
   081F 77                 2696 	ld	(hl),a
                           2697 ;	genIpush
                           2698 ; _saveRegsForCall: sendSetSize: 0 deInUse: 0 bcInUse: 1 deSending: 0
   0820 C5                 2699 	push	bc
   0821 3E 00              2700 	ld	a,#0x00
   0823 F5                 2701 	push	af
   0824 33                 2702 	inc	sp
                           2703 ;	genIpush
                           2704 ;	AOP_STK for _move_character_sloc7_1_0
   0825 7E                 2705 	ld	a,(hl)
   0826 F5                 2706 	push	af
   0827 33                 2707 	inc	sp
                           2708 ;	genCall
   0828 CD 00 00           2709 	call	_set_sprite_prop
   082B E8 02              2710 	lda	sp,2(sp)
   082D C1                 2711 	pop	bc
                           2712 ;	game.c 421
                           2713 ;	genGoto
   082E C3 6F 08           2714 	jp	00116$
                           2715 ;	game.c 423
                           2716 ;	genLabel
   0831                    2717 00114$:
                           2718 ;	genPlus
                           2719 ;	AOP_STK for _move_character_sloc0_1_0
                           2720 ;	AOP_STK for _move_character_sloc6_1_0
                           2721 ;	genPlusIncr
                           2722 ;	Can't optimise plus by inc, falling back to the normal way
   0831 F8 0C              2723 	lda	hl,12(sp)
   0833 5E                 2724 	ld	e,(hl)
   0834 23                 2725 	inc	hl
   0835 56                 2726 	ld	d,(hl)
   0836 21 01 00           2727 	ld	hl,#0x0001
   0839 19                 2728 	add	hl,de
   083A 7D                 2729 	ld	a,l
   083B 54                 2730 	ld	d,h
   083C F8 01              2731 	lda	hl,1(sp)
                           2732 ;	genPointerGet
                           2733 ;	AOP_STK for _move_character_sloc6_1_0
                           2734 ;	AOP_STK for _move_character_sloc7_1_0
   083E 22                 2735 	ld	(hl+),a
   083F 72                 2736 	ld	(hl),d
   0840 5F                 2737 	ld	e,a
   0841 1A                 2738 	ld	a,(de)
   0842 2B                 2739 	dec	hl
   0843 2B                 2740 	dec	hl
                           2741 ;	genMinus
                           2742 ;	AOP_STK for _move_character_sloc7_1_0
                           2743 ;	AOP_STK for _move_character_sloc5_1_0
   0844 77                 2744 	ld      (hl),a
                           2745 ; Removed redundent load
   0845 C6 FE              2746 	add	a,#0xFE
   0847 F8 03              2747 	lda	hl,3(sp)
                           2748 ;	genAssign (pointer)
                           2749 ;	AOP_STK for _move_character_sloc6_1_0
                           2750 ;	AOP_STK for _move_character_sloc5_1_0
   0849 32                 2751 	ld      (hl-),a
   084A 2B                 2752 	dec	hl
   084B 5E                 2753 	ld	e,(hl)
   084C 23                 2754 	inc	hl
   084D 56                 2755 	ld	d,(hl)
   084E 23                 2756 	inc	hl
   084F 7E                 2757 	ld	a,(hl)
   0850 12                 2758 	ld	(de),a
                           2759 ;	game.c 424
                           2760 ;	genGoto
   0851 C3 6F 08           2761 	jp	00116$
                           2762 ;	game.c 426
                           2763 ;	genLabel
   0854                    2764 00115$:
                           2765 ;	genPlus
                           2766 ;	AOP_STK for _move_character_sloc0_1_0
                           2767 ;	AOP_STK for _move_character_sloc6_1_0
                           2768 ;	genPlusIncr
                           2769 ;	Can't optimise plus by inc, falling back to the normal way
   0854 F8 0C              2770 	lda	hl,12(sp)
   0856 5E                 2771 	ld	e,(hl)
   0857 23                 2772 	inc	hl
   0858 56                 2773 	ld	d,(hl)
   0859 21 01 00           2774 	ld	hl,#0x0001
   085C 19                 2775 	add	hl,de
   085D 7D                 2776 	ld	a,l
   085E 54                 2777 	ld	d,h
   085F F8 01              2778 	lda	hl,1(sp)
                           2779 ;	genPointerGet
                           2780 ;	AOP_STK for _move_character_sloc6_1_0
                           2781 ;	AOP_STK for _move_character_sloc7_1_0
   0861 22                 2782 	ld	(hl+),a
   0862 72                 2783 	ld	(hl),d
   0863 5F                 2784 	ld	e,a
   0864 1A                 2785 	ld	a,(de)
   0865 2B                 2786 	dec	hl
   0866 2B                 2787 	dec	hl
                           2788 ;	genPlus
                           2789 ;	AOP_STK for _move_character_sloc7_1_0
                           2790 ;	genPlusIncr
                           2791 ;	Can't optimise plus by inc, falling back to the normal way
   0867 77                 2792 	ld      (hl),a
                           2793 ; Removed redundent load
   0868 C6 02              2794 	add	a,#0x02
                           2795 ;	genAssign (pointer)
                           2796 ;	AOP_STK for _move_character_sloc6_1_0
   086A 23                 2797 	inc	hl
   086B 5E                 2798 	ld	e,(hl)
   086C 23                 2799 	inc	hl
   086D 56                 2800 	ld	d,(hl)
   086E 12                 2801 	ld	(de),a
                           2802 ;	game.c 428
                           2803 ;	genLabel
   086F                    2804 00116$:
                           2805 ;	game.c 429
                           2806 ;	genMinus
   086F 0D                 2807 	dec	c
                           2808 ;	genAssign (pointer)
                           2809 ;	AOP_STK for _move_character_sloc3_1_0
   0870 F8 06              2810 	lda	hl,6(sp)
   0872 5E                 2811 	ld	e,(hl)
   0873 23                 2812 	inc	hl
   0874 56                 2813 	ld	d,(hl)
   0875 79                 2814 	ld	a,c
   0876 12                 2815 	ld	(de),a
                           2816 ;	game.c 431
                           2817 ;	genCmpEq
                           2818 ; genCmpEq: left 1, right 1, result 0
   0877 79                 2819 	ld	a,c
   0878 B7                 2820 	or	a,a
   0879 C2 B2 08           2821 	jp	nz,00120$
   087C 18 03              2822 	jr	00175$
   087E                    2823 00174$:
   087E C3 B2 08           2824 	jp	00120$
   0881                    2825 00175$:
                           2826 ;	game.c 432
                           2827 ;	genAssign (pointer)
                           2828 ;	AOP_STK for _move_character_sloc2_1_0
   0881 F8 08              2829 	lda	hl,8(sp)
   0883 5E                 2830 	ld	e,(hl)
   0884 23                 2831 	inc	hl
   0885 56                 2832 	ld	d,(hl)
   0886 3E 00              2833 	ld	a,#0x00
   0888 12                 2834 	ld	(de),a
                           2835 ;	game.c 433
                           2836 ;	genPlus
                           2837 ;	AOP_STK for _move_character_sloc0_1_0
                           2838 ;	AOP_STK for _move_character_sloc6_1_0
                           2839 ;	genPlusIncr
                           2840 ;	Can't optimise plus by inc, falling back to the normal way
   0889 F8 0C              2841 	lda	hl,12(sp)
   088B 5E                 2842 	ld	e,(hl)
   088C 23                 2843 	inc	hl
   088D 56                 2844 	ld	d,(hl)
   088E 21 02 00           2845 	ld	hl,#0x0002
   0891 19                 2846 	add	hl,de
   0892 7D                 2847 	ld	a,l
   0893 54                 2848 	ld	d,h
   0894 F8 01              2849 	lda	hl,1(sp)
                           2850 ;	genPointerGet
                           2851 ;	AOP_STK for _move_character_sloc6_1_0
   0896 22                 2852 	ld	(hl+),a
   0897 72                 2853 	ld	(hl),d
   0898 5F                 2854 	ld	e,a
   0899 1A                 2855 	ld	a,(de)
   089A 4F                 2856 	ld	c,a
                           2857 ;	genPointerGet
                           2858 ;	AOP_STK for _move_character_sloc1_1_0
                           2859 ;	AOP_STK for _move_character_sloc7_1_0
   089B F8 0A              2860 	lda	hl,10(sp)
   089D 5E                 2861 	ld	e,(hl)
   089E 23                 2862 	inc	hl
   089F 56                 2863 	ld	d,(hl)
   08A0 1A                 2864 	ld	a,(de)
   08A1 F8 00              2865 	lda	hl,0(sp)
   08A3 77                 2866 	ld	(hl),a
                           2867 ;	genIpush
                           2868 ; _saveRegsForCall: sendSetSize: 0 deInUse: 0 bcInUse: 1 deSending: 0
   08A4 C5                 2869 	push	bc
   08A5 79                 2870 	ld	a,c
   08A6 F5                 2871 	push	af
   08A7 33                 2872 	inc	sp
                           2873 ;	genIpush
                           2874 ;	AOP_STK for _move_character_sloc7_1_0
   08A8 7E                 2875 	ld	a,(hl)
   08A9 F5                 2876 	push	af
   08AA 33                 2877 	inc	sp
                           2878 ;	genCall
   08AB CD 00 00           2879 	call	_set_sprite_tile
   08AE E8 02              2880 	lda	sp,2(sp)
   08B0 E1                 2881 	pop	hl
   08B1 44                 2882 	ld	b,h
                           2883 ;	genLabel
   08B2                    2884 00120$:
                           2885 ;	game.c 438
                           2886 ;	genCmpEq
                           2887 ; genCmpEq: left 1, right 1, result 0
   08B2 78                 2888 	ld	a,b
   08B3 FE 02              2889 	cp	a,#0x02
   08B5 C2 6B 0A           2890 	jp	nz,00140$
   08B8 18 03              2891 	jr	00177$
   08BA                    2892 00176$:
   08BA C3 6B 0A           2893 	jp	00140$
   08BD                    2894 00177$:
                           2895 ;	game.c 439
                           2896 ;	genPlus
                           2897 ;	AOP_STK for _move_character_sloc0_1_0
                           2898 ;	AOP_STK for _move_character_sloc6_1_0
                           2899 ;	genPlusIncr
                           2900 ;	Can't optimise plus by inc, falling back to the normal way
   08BD F8 0C              2901 	lda	hl,12(sp)
   08BF 5E                 2902 	ld	e,(hl)
   08C0 23                 2903 	inc	hl
   08C1 56                 2904 	ld	d,(hl)
   08C2 21 04 00           2905 	ld	hl,#0x0004
   08C5 19                 2906 	add	hl,de
   08C6 7D                 2907 	ld	a,l
   08C7 54                 2908 	ld	d,h
   08C8 F8 01              2909 	lda	hl,1(sp)
                           2910 ;	genPointerGet
                           2911 ;	AOP_STK for _move_character_sloc6_1_0
   08CA 22                 2912 	ld	(hl+),a
   08CB 72                 2913 	ld	(hl),d
   08CC 5F                 2914 	ld	e,a
   08CD 1A                 2915 	ld	a,(de)
   08CE 4F                 2916 	ld	c,a
                           2917 ;	genIpush
                           2918 ; _saveRegsForCall: sendSetSize: 0 deInUse: 0 bcInUse: 1 deSending: 0
   08CF C5                 2919 	push	bc
   08D0 79                 2920 	ld	a,c
   08D1 F5                 2921 	push	af
   08D2 33                 2922 	inc	sp
                           2923 ;	genIpush
   08D3 78                 2924 	ld	a,b
   08D4 F5                 2925 	push	af
   08D5 33                 2926 	inc	sp
                           2927 ;	genCall
   08D6 CD 00 00           2928 	call	_set_sprite_tile
   08D9 E8 02              2929 	lda	sp,2(sp)
   08DB E1                 2930 	pop	hl
   08DC 44                 2931 	ld	b,h
                           2932 ;	game.c 441
                           2933 ;	genPointerGet
                           2934 ;	AOP_STK for _move_character_sloc2_1_0
   08DD F8 08              2935 	lda	hl,8(sp)
   08DF 5E                 2936 	ld	e,(hl)
   08E0 23                 2937 	inc	hl
   08E1 56                 2938 	ld	d,(hl)
   08E2 1A                 2939 	ld	a,(de)
                           2940 ;	genCmpEq
                           2941 ; genCmpEq: left 1, right 1, result 0
   08E3 4F                 2942 	ld	c,a
   08E4 FE 01              2943 	cp	a,#0x01
   08E6 C2 05 09           2944 	jp	nz,00122$
   08E9 18 03              2945 	jr	00179$
   08EB                    2946 00178$:
   08EB C3 05 09           2947 	jp	00122$
   08EE                    2948 00179$:
                           2949 ;	game.c 443
                           2950 ;	genAssign (pointer)
                           2951 ;	AOP_STK for _move_character_sloc2_1_0
   08EE F8 08              2952 	lda	hl,8(sp)
   08F0 5E                 2953 	ld	e,(hl)
   08F1 23                 2954 	inc	hl
   08F2 56                 2955 	ld	d,(hl)
   08F3 3E 02              2956 	ld	a,#0x02
   08F5 12                 2957 	ld	(de),a
                           2958 ;	game.c 444
                           2959 ;	genPlus
                           2960 ;	AOP_STK for _move_character_sloc0_1_0
                           2961 ;	genPlusIncr
                           2962 ;	Can't optimise plus by inc, falling back to the normal way
   08F6 F8 0C              2963 	lda	hl,12(sp)
   08F8 5E                 2964 	ld	e,(hl)
   08F9 23                 2965 	inc	hl
   08FA 56                 2966 	ld	d,(hl)
   08FB 21 07 00           2967 	ld	hl,#0x0007
   08FE 19                 2968 	add	hl,de
   08FF 7D                 2969 	ld	a,l
   0900 54                 2970 	ld	d,h
   0901 6F                 2971 	ld	l,a
   0902 62                 2972 	ld	h,d
                           2973 ;	genAssign (pointer)
   0903 36 10              2974 	ld	(hl),#0x10
                           2975 ;	genLabel
   0905                    2976 00122$:
                           2977 ;	game.c 446
                           2978 ;	genPlus
                           2979 ;	AOP_STK for _move_character_sloc0_1_0
                           2980 ;	AOP_STK for _move_character_sloc6_1_0
                           2981 ;	genPlusIncr
                           2982 ;	Can't optimise plus by inc, falling back to the normal way
   0905 F8 0C              2983 	lda	hl,12(sp)
   0907 5E                 2984 	ld	e,(hl)
   0908 23                 2985 	inc	hl
   0909 56                 2986 	ld	d,(hl)
   090A 21 07 00           2987 	ld	hl,#0x0007
   090D 19                 2988 	add	hl,de
   090E 7D                 2989 	ld	a,l
   090F 54                 2990 	ld	d,h
   0910 F8 01              2991 	lda	hl,1(sp)
                           2992 ;	genPointerGet
                           2993 ;	AOP_STK for _move_character_sloc6_1_0
   0912 22                 2994 	ld	(hl+),a
   0913 72                 2995 	ld	(hl),d
   0914 5F                 2996 	ld	e,a
   0915 1A                 2997 	ld	a,(de)
   0916 4F                 2998 	ld	c,a
                           2999 ;	genMinus
   0917 0D                 3000 	dec	c
                           3001 ;	genAssign (pointer)
                           3002 ;	AOP_STK for _move_character_sloc6_1_0
   0918 2B                 3003 	dec	hl
   0919 5E                 3004 	ld	e,(hl)
   091A 23                 3005 	inc	hl
   091B 56                 3006 	ld	d,(hl)
   091C 79                 3007 	ld	a,c
   091D 12                 3008 	ld	(de),a
                           3009 ;	game.c 448
                           3010 ;	genCmpEq
                           3011 ; genCmpEq: left 1, right 1, result 0
   091E 79                 3012 	ld	a,c
   091F B7                 3013 	or	a,a
   0920 C2 6B 0A           3014 	jp	nz,00140$
   0923 18 03              3015 	jr	00181$
   0925                    3016 00180$:
   0925 C3 6B 0A           3017 	jp	00140$
   0928                    3018 00181$:
                           3019 ;	game.c 449
                           3020 ;	genAssign (pointer)
                           3021 ;	AOP_STK for _move_character_sloc2_1_0
   0928 F8 08              3022 	lda	hl,8(sp)
   092A 5E                 3023 	ld	e,(hl)
   092B 23                 3024 	inc	hl
   092C 56                 3025 	ld	d,(hl)
   092D 3E 00              3026 	ld	a,#0x00
   092F 12                 3027 	ld	(de),a
                           3028 ;	game.c 450
                           3029 ;	genPlus
                           3030 ;	AOP_STK for _move_character_sloc0_1_0
                           3031 ;	AOP_STK for _move_character_sloc6_1_0
                           3032 ;	genPlusIncr
                           3033 ;	Can't optimise plus by inc, falling back to the normal way
   0930 F8 0C              3034 	lda	hl,12(sp)
   0932 5E                 3035 	ld	e,(hl)
   0933 23                 3036 	inc	hl
   0934 56                 3037 	ld	d,(hl)
   0935 21 02 00           3038 	ld	hl,#0x0002
   0938 19                 3039 	add	hl,de
   0939 7D                 3040 	ld	a,l
   093A 54                 3041 	ld	d,h
   093B F8 01              3042 	lda	hl,1(sp)
                           3043 ;	genPointerGet
                           3044 ;	AOP_STK for _move_character_sloc6_1_0
   093D 22                 3045 	ld	(hl+),a
   093E 72                 3046 	ld	(hl),d
   093F 5F                 3047 	ld	e,a
   0940 1A                 3048 	ld	a,(de)
   0941 4F                 3049 	ld	c,a
                           3050 ;	genPointerGet
                           3051 ;	AOP_STK for _move_character_sloc1_1_0
                           3052 ;	AOP_STK for _move_character_sloc7_1_0
   0942 F8 0A              3053 	lda	hl,10(sp)
   0944 5E                 3054 	ld	e,(hl)
   0945 23                 3055 	inc	hl
   0946 56                 3056 	ld	d,(hl)
   0947 1A                 3057 	ld	a,(de)
   0948 F8 00              3058 	lda	hl,0(sp)
   094A 77                 3059 	ld	(hl),a
                           3060 ;	genIpush
                           3061 ; _saveRegsForCall: sendSetSize: 0 deInUse: 0 bcInUse: 1 deSending: 0
   094B C5                 3062 	push	bc
   094C 79                 3063 	ld	a,c
   094D F5                 3064 	push	af
   094E 33                 3065 	inc	sp
                           3066 ;	genIpush
                           3067 ;	AOP_STK for _move_character_sloc7_1_0
   094F 7E                 3068 	ld	a,(hl)
   0950 F5                 3069 	push	af
   0951 33                 3070 	inc	sp
                           3071 ;	genCall
   0952 CD 00 00           3072 	call	_set_sprite_tile
   0955 E8 02              3073 	lda	sp,2(sp)
   0957 E1                 3074 	pop	hl
   0958 44                 3075 	ld	b,h
                           3076 ;	genGoto
   0959 C3 6B 0A           3077 	jp	00140$
                           3078 ;	genLabel
   095C                    3079 00139$:
                           3080 ;	game.c 457
                           3081 ;	genCmpEq
                           3082 ;	AOP_HL for _input_timer
                           3083 ; genCmpEq: left 1, right 1, result 0
   095C 21 2A 06           3084 	ld	hl,#_input_timer
   095F 7E                 3085 	ld	a,(hl)
   0960 B7                 3086 	or	a,a
   0961 CA 0F 0A           3087 	jp	z,00133$
   0964                    3088 00182$:
                           3089 ;	game.c 458
                           3090 ;	genPlus
                           3091 ;	AOP_STK for _move_character_sloc0_1_0
                           3092 ;	AOP_STK for _move_character_sloc6_1_0
                           3093 ;	genPlusIncr
                           3094 ;	Can't optimise plus by inc, falling back to the normal way
   0964 F8 0C              3095 	lda	hl,12(sp)
   0966 5E                 3096 	ld	e,(hl)
   0967 23                 3097 	inc	hl
   0968 56                 3098 	ld	d,(hl)
   0969 21 05 00           3099 	ld	hl,#0x0005
   096C 19                 3100 	add	hl,de
   096D 7D                 3101 	ld	a,l
   096E 54                 3102 	ld	d,h
   096F F8 01              3103 	lda	hl,1(sp)
                           3104 ;	genPointerGet
                           3105 ;	AOP_STK for _move_character_sloc6_1_0
   0971 22                 3106 	ld	(hl+),a
   0972 72                 3107 	ld	(hl),d
   0973 5F                 3108 	ld	e,a
   0974 1A                 3109 	ld	a,(de)
                           3110 ;	genCmpLt
   0975 4F                 3111 	ld	c,a
   0976 FE 01              3112 	cp	#0x01
   0978 DA 0F 0A           3113 	jp	c,00133$
                           3114 ;	genCmpGt
   097B 3E 04              3115 	ld	a,#0x04
   097D 91                 3116 	sub	a,c
   097E DA 0F 0A           3117 	jp	c,00133$
                           3118 ;	genMinus
   0981 0D                 3119 	dec	c
                           3120 ;	genJumpTab
   0982 59                 3121 	ld	e,c
   0983 16 00              3122 	ld	d,#0x00
   0985 21 8C 09           3123 	ld	hl,#00183$
   0988 19                 3124 	add	hl,de
   0989 19                 3125 	add	hl,de
   098A 19                 3126 	add	hl,de
   098B E9                 3127 	jp	(hl)
   098C                    3128 00183$:
   098C C3 D9 09           3129 	jp	00129$
   098F C3 B9 09           3130 	jp	00128$
   0992 C3 F6 09           3131 	jp	00130$
   0995 C3 98 09           3132 	jp	00127$
                           3133 ;	game.c 460
                           3134 ;	genLabel
   0998                    3135 00127$:
                           3136 ;	genPointerGet
                           3137 ;	AOP_STK for _move_character_sloc0_1_0
   0998 F8 0C              3138 	lda	hl,12(sp)
   099A 5E                 3139 	ld	e,(hl)
   099B 23                 3140 	inc	hl
   099C 56                 3141 	ld	d,(hl)
   099D 1A                 3142 	ld	a,(de)
   099E 4F                 3143 	ld	c,a
                           3144 ;	genMinus
   099F 0D                 3145 	dec	c
   09A0 0D                 3146 	dec	c
                           3147 ;	genAssign (pointer)
                           3148 ;	AOP_STK for _move_character_sloc0_1_0
   09A1 2B                 3149 	dec	hl
   09A2 5E                 3150 	ld	e,(hl)
   09A3 23                 3151 	inc	hl
   09A4 56                 3152 	ld	d,(hl)
   09A5 79                 3153 	ld	a,c
   09A6 12                 3154 	ld	(de),a
                           3155 ;	game.c 461
                           3156 ;	genIpush
                           3157 ; _saveRegsForCall: sendSetSize: 0 deInUse: 0 bcInUse: 1 deSending: 0
   09A7 C5                 3158 	push	bc
   09A8 3E 20              3159 	ld	a,#0x20
   09AA F5                 3160 	push	af
   09AB 33                 3161 	inc	sp
                           3162 ;	genIpush
   09AC 78                 3163 	ld	a,b
   09AD F5                 3164 	push	af
   09AE 33                 3165 	inc	sp
                           3166 ;	genCall
   09AF CD 00 00           3167 	call	_set_sprite_prop
   09B2 E8 02              3168 	lda	sp,2(sp)
   09B4 E1                 3169 	pop	hl
   09B5 44                 3170 	ld	b,h
                           3171 ;	game.c 462
                           3172 ;	genGoto
   09B6 C3 0F 0A           3173 	jp	00133$
                           3174 ;	game.c 464
                           3175 ;	genLabel
   09B9                    3176 00128$:
                           3177 ;	genPointerGet
                           3178 ;	AOP_STK for _move_character_sloc0_1_0
   09B9 F8 0C              3179 	lda	hl,12(sp)
   09BB 5E                 3180 	ld	e,(hl)
   09BC 23                 3181 	inc	hl
   09BD 56                 3182 	ld	d,(hl)
   09BE 1A                 3183 	ld	a,(de)
                           3184 ;	genPlus
                           3185 ;	genPlusIncr
                           3186 ;	Can't optimise plus by inc, falling back to the normal way
   09BF 4F                 3187 	ld	c,a
   09C0 C6 02              3188 	add	a,#0x02
                           3189 ;	genAssign (pointer)
                           3190 ;	AOP_STK for _move_character_sloc0_1_0
   09C2 2B                 3191 	dec	hl
   09C3 5E                 3192 	ld	e,(hl)
   09C4 23                 3193 	inc	hl
   09C5 56                 3194 	ld	d,(hl)
   09C6 12                 3195 	ld	(de),a
                           3196 ;	game.c 465
                           3197 ;	genIpush
                           3198 ; _saveRegsForCall: sendSetSize: 0 deInUse: 0 bcInUse: 1 deSending: 0
   09C7 C5                 3199 	push	bc
   09C8 3E 00              3200 	ld	a,#0x00
   09CA F5                 3201 	push	af
   09CB 33                 3202 	inc	sp
                           3203 ;	genIpush
   09CC 78                 3204 	ld	a,b
   09CD F5                 3205 	push	af
   09CE 33                 3206 	inc	sp
                           3207 ;	genCall
   09CF CD 00 00           3208 	call	_set_sprite_prop
   09D2 E8 02              3209 	lda	sp,2(sp)
   09D4 E1                 3210 	pop	hl
   09D5 44                 3211 	ld	b,h
                           3212 ;	game.c 466
                           3213 ;	genGoto
   09D6 C3 0F 0A           3214 	jp	00133$
                           3215 ;	game.c 468
                           3216 ;	genLabel
   09D9                    3217 00129$:
                           3218 ;	genPlus
                           3219 ;	AOP_STK for _move_character_sloc0_1_0
                           3220 ;	AOP_STK for _move_character_sloc6_1_0
                           3221 ;	genPlusIncr
                           3222 ;	Can't optimise plus by inc, falling back to the normal way
   09D9 F8 0C              3223 	lda	hl,12(sp)
   09DB 5E                 3224 	ld	e,(hl)
   09DC 23                 3225 	inc	hl
   09DD 56                 3226 	ld	d,(hl)
   09DE 21 01 00           3227 	ld	hl,#0x0001
   09E1 19                 3228 	add	hl,de
   09E2 7D                 3229 	ld	a,l
   09E3 54                 3230 	ld	d,h
   09E4 F8 01              3231 	lda	hl,1(sp)
                           3232 ;	genPointerGet
                           3233 ;	AOP_STK for _move_character_sloc6_1_0
   09E6 22                 3234 	ld	(hl+),a
   09E7 72                 3235 	ld	(hl),d
   09E8 5F                 3236 	ld	e,a
   09E9 1A                 3237 	ld	a,(de)
   09EA 4F                 3238 	ld	c,a
                           3239 ;	genMinus
   09EB 0D                 3240 	dec	c
   09EC 0D                 3241 	dec	c
                           3242 ;	genAssign (pointer)
                           3243 ;	AOP_STK for _move_character_sloc6_1_0
   09ED 2B                 3244 	dec	hl
   09EE 5E                 3245 	ld	e,(hl)
   09EF 23                 3246 	inc	hl
   09F0 56                 3247 	ld	d,(hl)
   09F1 79                 3248 	ld	a,c
   09F2 12                 3249 	ld	(de),a
                           3250 ;	game.c 469
                           3251 ;	genGoto
   09F3 C3 0F 0A           3252 	jp	00133$
                           3253 ;	game.c 471
                           3254 ;	genLabel
   09F6                    3255 00130$:
                           3256 ;	genPlus
                           3257 ;	AOP_STK for _move_character_sloc0_1_0
                           3258 ;	AOP_STK for _move_character_sloc6_1_0
                           3259 ;	genPlusIncr
                           3260 ;	Can't optimise plus by inc, falling back to the normal way
   09F6 F8 0C              3261 	lda	hl,12(sp)
   09F8 5E                 3262 	ld	e,(hl)
   09F9 23                 3263 	inc	hl
   09FA 56                 3264 	ld	d,(hl)
   09FB 21 01 00           3265 	ld	hl,#0x0001
   09FE 19                 3266 	add	hl,de
   09FF 7D                 3267 	ld	a,l
   0A00 54                 3268 	ld	d,h
   0A01 F8 01              3269 	lda	hl,1(sp)
                           3270 ;	genPointerGet
                           3271 ;	AOP_STK for _move_character_sloc6_1_0
   0A03 22                 3272 	ld	(hl+),a
   0A04 72                 3273 	ld	(hl),d
   0A05 5F                 3274 	ld	e,a
   0A06 1A                 3275 	ld	a,(de)
                           3276 ;	genPlus
                           3277 ;	genPlusIncr
                           3278 ;	Can't optimise plus by inc, falling back to the normal way
   0A07 4F                 3279 	ld	c,a
   0A08 C6 02              3280 	add	a,#0x02
                           3281 ;	genAssign (pointer)
                           3282 ;	AOP_STK for _move_character_sloc6_1_0
   0A0A 2B                 3283 	dec	hl
   0A0B 5E                 3284 	ld	e,(hl)
   0A0C 23                 3285 	inc	hl
   0A0D 56                 3286 	ld	d,(hl)
   0A0E 12                 3287 	ld	(de),a
                           3288 ;	game.c 473
                           3289 ;	genLabel
   0A0F                    3290 00133$:
                           3291 ;	game.c 475
                           3292 ;	genCmpEq
                           3293 ;	AOP_HL for _input_timer
                           3294 ; genCmpEq: left 1, right 1, result 0
   0A0F 21 2A 06           3295 	ld	hl,#_input_timer
   0A12 7E                 3296 	ld	a,(hl)
   0A13 FE 04              3297 	cp	a,#0x04
   0A15 C2 3D 0A           3298 	jp	nz,00135$
   0A18 18 03              3299 	jr	00185$
   0A1A                    3300 00184$:
   0A1A C3 3D 0A           3301 	jp	00135$
   0A1D                    3302 00185$:
                           3303 ;	game.c 476
                           3304 ;	genPlus
                           3305 ;	AOP_STK for _move_character_sloc0_1_0
                           3306 ;	AOP_STK for _move_character_sloc6_1_0
                           3307 ;	genPlusIncr
                           3308 ;	Can't optimise plus by inc, falling back to the normal way
   0A1D F8 0C              3309 	lda	hl,12(sp)
   0A1F 5E                 3310 	ld	e,(hl)
   0A20 23                 3311 	inc	hl
   0A21 56                 3312 	ld	d,(hl)
   0A22 21 03 00           3313 	ld	hl,#0x0003
   0A25 19                 3314 	add	hl,de
   0A26 7D                 3315 	ld	a,l
   0A27 54                 3316 	ld	d,h
   0A28 F8 01              3317 	lda	hl,1(sp)
                           3318 ;	genPointerGet
                           3319 ;	AOP_STK for _move_character_sloc6_1_0
   0A2A 22                 3320 	ld	(hl+),a
   0A2B 72                 3321 	ld	(hl),d
   0A2C 5F                 3322 	ld	e,a
   0A2D 1A                 3323 	ld	a,(de)
   0A2E 4F                 3324 	ld	c,a
                           3325 ;	genIpush
                           3326 ; _saveRegsForCall: sendSetSize: 0 deInUse: 0 bcInUse: 1 deSending: 0
   0A2F C5                 3327 	push	bc
   0A30 79                 3328 	ld	a,c
   0A31 F5                 3329 	push	af
   0A32 33                 3330 	inc	sp
                           3331 ;	genIpush
   0A33 78                 3332 	ld	a,b
   0A34 F5                 3333 	push	af
   0A35 33                 3334 	inc	sp
                           3335 ;	genCall
   0A36 CD 00 00           3336 	call	_set_sprite_tile
   0A39 E8 02              3337 	lda	sp,2(sp)
   0A3B E1                 3338 	pop	hl
   0A3C 44                 3339 	ld	b,h
                           3340 ;	genLabel
   0A3D                    3341 00135$:
                           3342 ;	game.c 478
                           3343 ;	genCmpEq
                           3344 ;	AOP_HL for _input_timer
                           3345 ; genCmpEq: left 1, right 1, result 0
   0A3D 21 2A 06           3346 	ld	hl,#_input_timer
   0A40 7E                 3347 	ld	a,(hl)
   0A41 FE 02              3348 	cp	a,#0x02
   0A43 C2 6B 0A           3349 	jp	nz,00140$
   0A46 18 03              3350 	jr	00187$
   0A48                    3351 00186$:
   0A48 C3 6B 0A           3352 	jp	00140$
   0A4B                    3353 00187$:
                           3354 ;	game.c 479
                           3355 ;	genPlus
                           3356 ;	AOP_STK for _move_character_sloc0_1_0
                           3357 ;	AOP_STK for _move_character_sloc6_1_0
                           3358 ;	genPlusIncr
                           3359 ;	Can't optimise plus by inc, falling back to the normal way
   0A4B F8 0C              3360 	lda	hl,12(sp)
   0A4D 5E                 3361 	ld	e,(hl)
   0A4E 23                 3362 	inc	hl
   0A4F 56                 3363 	ld	d,(hl)
   0A50 21 02 00           3364 	ld	hl,#0x0002
   0A53 19                 3365 	add	hl,de
   0A54 7D                 3366 	ld	a,l
   0A55 54                 3367 	ld	d,h
   0A56 F8 01              3368 	lda	hl,1(sp)
                           3369 ;	genPointerGet
                           3370 ;	AOP_STK for _move_character_sloc6_1_0
   0A58 22                 3371 	ld	(hl+),a
   0A59 72                 3372 	ld	(hl),d
   0A5A 5F                 3373 	ld	e,a
   0A5B 1A                 3374 	ld	a,(de)
   0A5C 4F                 3375 	ld	c,a
                           3376 ;	genIpush
                           3377 ; _saveRegsForCall: sendSetSize: 0 deInUse: 0 bcInUse: 1 deSending: 0
   0A5D C5                 3378 	push	bc
   0A5E 79                 3379 	ld	a,c
   0A5F F5                 3380 	push	af
   0A60 33                 3381 	inc	sp
                           3382 ;	genIpush
   0A61 78                 3383 	ld	a,b
   0A62 F5                 3384 	push	af
   0A63 33                 3385 	inc	sp
                           3386 ;	genCall
   0A64 CD 00 00           3387 	call	_set_sprite_tile
   0A67 E8 02              3388 	lda	sp,2(sp)
   0A69 E1                 3389 	pop	hl
   0A6A 44                 3390 	ld	b,h
                           3391 ;	genLabel
   0A6B                    3392 00140$:
                           3393 ;	game.c 483
                           3394 ;	genPlus
                           3395 ;	AOP_STK for _move_character_sloc0_1_0
                           3396 ;	AOP_STK for _move_character_sloc6_1_0
                           3397 ;	genPlusIncr
                           3398 ;	Can't optimise plus by inc, falling back to the normal way
   0A6B F8 0C              3399 	lda	hl,12(sp)
   0A6D 5E                 3400 	ld	e,(hl)
   0A6E 23                 3401 	inc	hl
   0A6F 56                 3402 	ld	d,(hl)
   0A70 21 01 00           3403 	ld	hl,#0x0001
   0A73 19                 3404 	add	hl,de
   0A74 7D                 3405 	ld	a,l
   0A75 54                 3406 	ld	d,h
   0A76 F8 01              3407 	lda	hl,1(sp)
                           3408 ;	genPointerGet
                           3409 ;	AOP_STK for _move_character_sloc6_1_0
   0A78 22                 3410 	ld	(hl+),a
   0A79 72                 3411 	ld	(hl),d
   0A7A 5F                 3412 	ld	e,a
   0A7B 1A                 3413 	ld	a,(de)
   0A7C 4F                 3414 	ld	c,a
                           3415 ;	genPointerGet
                           3416 ;	AOP_STK for _move_character_sloc0_1_0
                           3417 ;	AOP_STK for _move_character_sloc7_1_0
   0A7D F8 0C              3418 	lda	hl,12(sp)
   0A7F 5E                 3419 	ld	e,(hl)
   0A80 23                 3420 	inc	hl
   0A81 56                 3421 	ld	d,(hl)
   0A82 1A                 3422 	ld	a,(de)
   0A83 F8 00              3423 	lda	hl,0(sp)
   0A85 77                 3424 	ld	(hl),a
                           3425 ;	genIpush
                           3426 ; _saveRegsForCall: sendSetSize: 0 deInUse: 0 bcInUse: 0 deSending: 0
   0A86 79                 3427 	ld	a,c
   0A87 F5                 3428 	push	af
   0A88 33                 3429 	inc	sp
                           3430 ;	genIpush
                           3431 ;	AOP_STK for _move_character_sloc7_1_0
   0A89 7E                 3432 	ld	a,(hl)
   0A8A F5                 3433 	push	af
   0A8B 33                 3434 	inc	sp
                           3435 ;	genIpush
   0A8C 78                 3436 	ld	a,b
   0A8D F5                 3437 	push	af
   0A8E 33                 3438 	inc	sp
                           3439 ;	genCall
   0A8F CD 00 00           3440 	call	_move_sprite
   0A92 E8 03              3441 	lda	sp,3(sp)
                           3442 ;	genLabel
   0A94                    3443 00141$:
                           3444 ;	genEndFunction
   0A94 E8 0E              3445 	lda	sp,14(sp)
   0A96 C9                 3446 	ret
   0A97                    3447 ___move_character_end:
                           3448 ;	game.c 486
                           3449 ;	genLabel
                           3450 ;	genFunction
                           3451 ;	---------------------------------
                           3452 ; Function set_character_sprite
                           3453 ; ---------------------------------
   0A97                    3454 ___set_character_sprite_start:
   0A97                    3455 _set_character_sprite:
   0A97 E8 FA              3456 	lda	sp,-6(sp)
                           3457 ;	game.c 487
                           3458 ;	genAssign
                           3459 ;	AOP_STK for 
   0A99 F8 08              3460 	lda	hl,8(sp)
   0A9B 4E                 3461 	ld	c,(hl)
   0A9C 23                 3462 	inc	hl
   0A9D 46                 3463 	ld	b,(hl)
                           3464 ;	genPlus
                           3465 ;	AOP_STK for _set_character_sprite_sloc0_1_0
                           3466 ;	genPlusIncr
                           3467 ;	Can't optimise plus by inc, falling back to the normal way
   0A9E 21 02 00           3468 	ld	hl,#0x0002
   0AA1 09                 3469 	add	hl,bc
   0AA2 7D                 3470 	ld	a,l
   0AA3 54                 3471 	ld	d,h
   0AA4 F8 04              3472 	lda	hl,4(sp)
                           3473 ;	genPointerGet
                           3474 ;	AOP_STK for _set_character_sprite_sloc0_1_0
                           3475 ;	AOP_STK for _set_character_sprite_sloc1_1_0
   0AA6 22                 3476 	ld	(hl+),a
   0AA7 72                 3477 	ld	(hl),d
   0AA8 5F                 3478 	ld	e,a
   0AA9 1A                 3479 	ld	a,(de)
   0AAA 2B                 3480 	dec	hl
   0AAB 2B                 3481 	dec	hl
   0AAC 77                 3482 	ld	(hl),a
                           3483 ;	genPlus
                           3484 ;	AOP_STK for _set_character_sprite_sloc0_1_0
                           3485 ;	genPlusIncr
                           3486 ;	Can't optimise plus by inc, falling back to the normal way
   0AAD 21 08 00           3487 	ld	hl,#0x0008
   0AB0 09                 3488 	add	hl,bc
   0AB1 7D                 3489 	ld	a,l
   0AB2 54                 3490 	ld	d,h
   0AB3 F8 04              3491 	lda	hl,4(sp)
                           3492 ;	genPointerGet
                           3493 ;	AOP_STK for _set_character_sprite_sloc0_1_0
                           3494 ;	AOP_STK for _set_character_sprite_sloc2_1_0
   0AB5 22                 3495 	ld	(hl+),a
   0AB6 72                 3496 	ld	(hl),d
   0AB7 5F                 3497 	ld	e,a
   0AB8 1A                 3498 	ld	a,(de)
   0AB9 F8 02              3499 	lda	hl,2(sp)
   0ABB 77                 3500 	ld	(hl),a
                           3501 ;	genIpush
                           3502 ; _saveRegsForCall: sendSetSize: 0 deInUse: 0 bcInUse: 1 deSending: 0
   0ABC C5                 3503 	push	bc
                           3504 ;	AOP_STK for _set_character_sprite_sloc1_1_0
   0ABD 23                 3505 	inc	hl
   0ABE 7E                 3506 	ld	a,(hl)
   0ABF F5                 3507 	push	af
   0AC0 33                 3508 	inc	sp
                           3509 ;	genIpush
                           3510 ;	AOP_STK for _set_character_sprite_sloc2_1_0
   0AC1 2B                 3511 	dec	hl
   0AC2 7E                 3512 	ld	a,(hl)
   0AC3 F5                 3513 	push	af
   0AC4 33                 3514 	inc	sp
                           3515 ;	genCall
   0AC5 CD 00 00           3516 	call	_set_sprite_tile
   0AC8 E8 02              3517 	lda	sp,2(sp)
   0ACA C1                 3518 	pop	bc
                           3519 ;	game.c 488
                           3520 ;	genPlus
                           3521 ;	AOP_STK for _set_character_sprite_sloc3_1_0
                           3522 ;	genPlusIncr
                           3523 ;	Can't optimise plus by inc, falling back to the normal way
   0ACB 21 01 00           3524 	ld	hl,#0x0001
   0ACE 09                 3525 	add	hl,bc
   0ACF 7D                 3526 	ld	a,l
   0AD0 54                 3527 	ld	d,h
   0AD1 F8 00              3528 	lda	hl,0(sp)
                           3529 ;	genPointerGet
                           3530 ;	AOP_STK for _set_character_sprite_sloc3_1_0
                           3531 ;	AOP_STK for _set_character_sprite_sloc2_1_0
   0AD3 22                 3532 	ld	(hl+),a
   0AD4 72                 3533 	ld	(hl),d
   0AD5 5F                 3534 	ld	e,a
   0AD6 1A                 3535 	ld	a,(de)
   0AD7 23                 3536 	inc	hl
   0AD8 77                 3537 	ld	(hl),a
                           3538 ;	genPointerGet
   0AD9 0A                 3539 	ld	a,(bc)
   0ADA 4F                 3540 	ld	c,a
                           3541 ;	genPointerGet
                           3542 ;	AOP_STK for _set_character_sprite_sloc0_1_0
   0ADB 23                 3543 	inc	hl
   0ADC 23                 3544 	inc	hl
   0ADD 5E                 3545 	ld	e,(hl)
   0ADE 23                 3546 	inc	hl
   0ADF 56                 3547 	ld	d,(hl)
   0AE0 1A                 3548 	ld	a,(de)
   0AE1 47                 3549 	ld	b,a
                           3550 ;	genIpush
                           3551 ; _saveRegsForCall: sendSetSize: 0 deInUse: 0 bcInUse: 0 deSending: 0
                           3552 ;	AOP_STK for _set_character_sprite_sloc2_1_0
   0AE2 F8 02              3553 	lda	hl,2(sp)
   0AE4 7E                 3554 	ld	a,(hl)
   0AE5 F5                 3555 	push	af
   0AE6 33                 3556 	inc	sp
                           3557 ;	genIpush
   0AE7 79                 3558 	ld	a,c
   0AE8 F5                 3559 	push	af
   0AE9 33                 3560 	inc	sp
                           3561 ;	genIpush
   0AEA 78                 3562 	ld	a,b
   0AEB F5                 3563 	push	af
   0AEC 33                 3564 	inc	sp
                           3565 ;	genCall
   0AED CD 00 00           3566 	call	_move_sprite
   0AF0 E8 03              3567 	lda	sp,3(sp)
                           3568 ;	genLabel
   0AF2                    3569 00101$:
                           3570 ;	genEndFunction
   0AF2 E8 06              3571 	lda	sp,6(sp)
   0AF4 C9                 3572 	ret
   0AF5                    3573 ___set_character_sprite_end:
                           3574 	.area _CODE
ASxxxx Assembler V01.75  (GameBoy Z80-like CPU), page 1.

Symbol Table

  1 _Characters                        0000 GR
  1 _Map1                              00F0 GR
  0 ___can_move_end                    067E R
  0 ___can_move_start                  0588 R
  0 ___init_end                        027F R
  0 ___init_start                      019E R
  0 ___is_ded_end                      0354 R
  0 ___is_ded_start                    027F R
  0 ___main_end                        0062 R
  0 ___main_start                      0027 R
  0 ___map_1_end                       019E R
  0 ___map_1_start                     011A R
  0 ___map_1_water_end                 011A R
  0 ___map_1_water_start               006B R
  0 ___move_character_end              0A97 R
  0 ___move_character_start            067E R
  0 ___performantDelay_end             0016 R
  0 ___performantDelay_start           0000 R
  0 ___player_input_end                0588 R
  0 ___player_input_start              0354 R
  0 ___set_character_sprite_end        0AF5 R
  0 ___set_character_sprite_start      0A97 R
  0 ___timers_end                      0027 R
  0 ___timers_start                    0016 R
    __initrleblock                     **** GX
    __moduchar_rrx_s                   **** GX
  0 __str_0                            0062 R
  1 _bunny                             062C GR
  0 _can_move                          0588 GR
  1 _cat                               064A GR
  1 _dog1                              0636 GR
  1 _dog2                              0640 GR
  1 _horse                             0654 GR
  0 _init                              019E GR
  1 _input_timer                       062A GR
  0 _is_ded                            027F GR
    _joypad                            **** GX
  0 _main                              0027 GR
  1 _map                               062B GR
  0 _map_1                             011A GR
  0 _map_1_water                       006B GR
  0 _move_character                    067E GR
    _move_sprite                       **** GX
  0 _performantDelay                   0000 GR
  1 _player                            065E GR
  0 _player_input                      0354 GR
    _printf                            **** GX
  1 _running                           0628 GR
    _set_bkg_data                      **** GX
    _set_bkg_tiles                     **** GX
  0 _set_character_sprite              0A97 GR
    _set_sprite_data                   **** GX
    _set_sprite_prop                   **** GX
    _set_sprite_tile                   **** GX
  1 _sprites_park                      0258 GR
  1 _timer                             0629 GR
  0 _timers                            0016 GR
    _wait_vbl_done                     **** GX

ASxxxx Assembler V01.75  (GameBoy Z80-like CPU), page 2.

Area Table

   0 _CODE                              size  AF5   flags 0
   1 _DATA                              size  660   flags 0
   2 _OVERLAY                           size    0   flags 0
   3 _ISEG                              size    0   flags 0
   4 _BSEG                              size    0   flags 0
   5 _XSEG                              size    0   flags 0
   6 _GSINIT                            size  324   flags 0
   7 _GSFINAL                           size    0   flags 0
   8 _HOME                              size    0   flags 0
