                              1 ;--------------------------------------------------------
                              2 ; File Created by SDCC : FreeWare ANSI-C Compiler
                              3 ; Version 2.3.1 Thu Mar  5 21:17:53 2020
                              4 
                              5 ;--------------------------------------------------------
                              6 	.module lcc83030
                              7 	
                              8 ;--------------------------------------------------------
                              9 ; Public variables in this module
                             10 ;--------------------------------------------------------
                             11 	.globl _rotate_player
                             12 	.globl _dog1_power
                             13 	.globl _instanciate_chars
                             14 	.globl _copy_map
                             15 	.globl _helper_copy_map_smaller
                             16 	.globl _helper_copy_map
                             17 	.globl _change_char
                             18 	.globl _map_enviroment_tiles
                             19 	.globl _spread_fire
                             20 	.globl _init
                             21 	.globl _main
                             22 	.globl _timers
                             23 	.globl _performantDelay
                             24 	.globl _item3
                             25 	.globl _item2
                             26 	.globl _item1
                             27 	.globl _key
                             28 	.globl _player
                             29 	.globl _horse
                             30 	.globl _cat
                             31 	.globl _dog2
                             32 	.globl _dog1
                             33 	.globl _bunny
                             34 	.globl _map
                             35 	.globl _current_map
                             36 	.globl _input_timer
                             37 	.globl _characters_available
                             38 	.globl _timer
                             39 	.globl _running
                             40 	.globl _spritePalette
                             41 	.globl _sprites_park
                             42 	.globl _MapTest
                             43 	.globl _mapTestSmallGrid
                             44 	.globl _Map10
                             45 	.globl _Map9
                             46 	.globl _Map8
                             47 	.globl _Map7
                             48 	.globl _Map6
                             49 	.globl _Map5
                             50 	.globl _Map4
                             51 	.globl _Map3
                             52 	.globl _Map2
                             53 	.globl _Map1
                             54 	.globl _Characters
                             55 	.globl _map_loop
                             56 	.globl _map_init
                             57 	.globl _got_key
                             58 	.globl _got_door
                             59 	.globl _is_ded
                             60 	.globl __get_next_map_position
                             61 	.globl _dog1_power_apply
                             62 	.globl __get_map_position_from_xy
                             63 	.globl _player_input
                             64 	.globl _can_move_to_map_pos
                             65 	.globl _can_move
                             66 	.globl _move_character
                             67 	.globl _set_character_sprite
                             68 ;--------------------------------------------------------
                             69 ; special function registers
                             70 ;--------------------------------------------------------
                             71 ;--------------------------------------------------------
                             72 ; special function bits 
                             73 ;--------------------------------------------------------
                             74 ;--------------------------------------------------------
                             75 ; internal ram data
                             76 ;--------------------------------------------------------
                             77 	.area _DATA
   0000                      78 _Characters::
   0000                      79 	.ds 496
   01F0                      80 _Map1::
   01F0                      81 	.ds 360
   0358                      82 _Map2::
   0358                      83 	.ds 360
   04C0                      84 _Map3::
   04C0                      85 	.ds 360
   0628                      86 _Map4::
   0628                      87 	.ds 360
   0790                      88 _Map5::
   0790                      89 	.ds 360
   08F8                      90 _Map6::
   08F8                      91 	.ds 110
   0966                      92 _Map7::
   0966                      93 	.ds 360
   0ACE                      94 _Map8::
   0ACE                      95 	.ds 360
   0C36                      96 _Map9::
   0C36                      97 	.ds 360
   0D9E                      98 _Map10::
   0D9E                      99 	.ds 360
   0F06                     100 _mapTestSmallGrid::
   0F06                     101 	.ds 90
   0F60                     102 _MapTest::
   0F60                     103 	.ds 360
   10C8                     104 _sprites_park::
   10C8                     105 	.ds 1936
   1858                     106 _spritePalette::
   1858                     107 	.ds 8
   1860                     108 _running::
   1860                     109 	.ds 1
   1861                     110 _timer::
   1861                     111 	.ds 1
   1862                     112 _characters_available::
   1862                     113 	.ds 1
   1863                     114 _input_timer::
   1863                     115 	.ds 1
   1864                     116 _current_map::
   1864                     117 	.ds 1
   1865                     118 _map::
   1865                     119 	.ds 360
   19CD                     120 _bunny::
   19CD                     121 	.ds 14
   19DB                     122 _dog1::
   19DB                     123 	.ds 14
   19E9                     124 _dog2::
   19E9                     125 	.ds 14
   19F7                     126 _cat::
   19F7                     127 	.ds 14
   1A05                     128 _horse::
   1A05                     129 	.ds 14
   1A13                     130 _player::
   1A13                     131 	.ds 2
   1A15                     132 _key::
   1A15                     133 	.ds 6
   1A1B                     134 _item1::
   1A1B                     135 	.ds 6
   1A21                     136 _item2::
   1A21                     137 	.ds 6
   1A27                     138 _item3::
   1A27                     139 	.ds 6
                            140 ;--------------------------------------------------------
                            141 ; overlayable items in internal ram 
                            142 ;--------------------------------------------------------
                            143 	.area _OVERLAY
                            144 ;--------------------------------------------------------
                            145 ; indirectly addressable internal ram data
                            146 ;--------------------------------------------------------
                            147 	.area _ISEG
                            148 ;--------------------------------------------------------
                            149 ; bit data
                            150 ;--------------------------------------------------------
                            151 	.area _BSEG
                            152 ;--------------------------------------------------------
                            153 ; external ram data
                            154 ;--------------------------------------------------------
                            155 	.area _XSEG
                            156 ;--------------------------------------------------------
                            157 ; global & static initialisations
                            158 ;--------------------------------------------------------
                            159 	.area _GSINIT
                            160 	.area _GSFINAL
                            161 	.area _GSINIT
                            162 ;	game.c 26
                            163 ;	game.c 1343
                            164 ;	genArrayInit
                            165 ; _saveRegsForCall: sendSetSize: 0 deInUse: 0 bcInUse: 0 deSending: 0
   0000 21 00 00            166 	ld	hl,#_Characters
   0003 CD 00 00            167 	call	__initrleblock
   0006 2C                  168 	.db	44
   0007 09 00 00 09 00 09   169 	.db	0x09, 0x00, 0x00, 0x09, 0x00, 0x09, 0x0F, 0x00
        0F 00
   000F CA 05 FF 00 3F 00   170 	.db	0xCA, 0x05, 0xFF, 0x00, 0x3F, 0x00, 0x00, 0x45
        00 45
   0017 09 00 00 09 00 09   171 	.db	0x09, 0x00, 0x00, 0x09, 0x00, 0x09, 0x0F, 0x00
        0F 00
   001F CA 05 FF 00 3F 00   172 	.db	0xCA, 0x05, 0xFF, 0x00, 0x3F, 0x00, 0x00, 0x2A
        00 2A
   0027 24 12 00 09 0F 00   173 	.db	0x24, 0x12, 0x00, 0x09, 0x0F, 0x00, 0xCA, 0x05
        CA 05
   002F FF 00 1A 25         174 	.db	0xFF, 0x00, 0x1A, 0x25
   0033 FB 00               175 	.db	-5,0x00
   0035 7F                  176 	.db	127
   0036 13 00 1E 0A 9E 00   177 	.db	0x13, 0x00, 0x1E, 0x0A, 0x9E, 0x00, 0x9F, 0x02
        9F 02
   003E FF 00 FF 00 7E 00   178 	.db	0xFF, 0x00, 0xFF, 0x00, 0x7E, 0x00, 0x4A, 0x00
        4A 00
   0046 13 00 1E 0A 9E 00   179 	.db	0x13, 0x00, 0x1E, 0x0A, 0x9E, 0x00, 0x9F, 0x02
        9F 02
   004E FF 00 FF 00 7E 00   180 	.db	0xFF, 0x00, 0xFF, 0x00, 0x7E, 0x00, 0x94, 0x00
        94 00
   0056 01 00 9F 02 9F 00   181 	.db	0x01, 0x00, 0x9F, 0x02, 0x9F, 0x00, 0xFF, 0x0A
        FF 0A
   005E FF 00 FD 18 60 00   182 	.db	0xFF, 0x00, 0xFD, 0x18, 0x60, 0x00, 0x94, 0x94
        94 94
   0066 00 9C 00 9E 0A FF   183 	.db	0x00, 0x9C, 0x00, 0x9E, 0x0A, 0xFF, 0x01, 0xFE
        01 FE
   006E 00 7C 00 4A 00 49   184 	.db	0x00, 0x7C, 0x00, 0x4A, 0x00, 0x49, 0x00, 0x94
        00 94
   0076 00 9C 00 9E 0A FF   185 	.db	0x00, 0x9C, 0x00, 0x9E, 0x0A, 0xFF, 0x01, 0xFE
        01 FE
   007E 00 7C 00 4A 00 92   186 	.db	0x00, 0x7C, 0x00, 0x4A, 0x00, 0x92, 0x00, 0x00
        00 00
   0086 10 05 10 05 70 05   187 	.db	0x10, 0x05, 0x10, 0x05, 0x70, 0x05, 0x50, 0x05
        50 05
   008E 70 00 00 00 00 15   188 	.db	0x70, 0x00, 0x00, 0x00, 0x00, 0x15, 0x15, 0x89
        15 89
   0096 89 4F 4F 4F 4A 8F   189 	.db	0x89, 0x4F, 0x4F, 0x4F, 0x4A, 0x8F, 0x8F, 0x9F
        8F 9F
   009E 9F 7F 7F 7F 7F 45   190 	.db	0x9F, 0x7F, 0x7F, 0x7F, 0x7F, 0x45, 0x45, 0x49
        45 49
   00A6 49 8F 8F 8F 8A 4F   191 	.db	0x49, 0x8F, 0x8F, 0x8F, 0x8A, 0x4F, 0x4F, 0x5F
        4F 5F
   00AE 5F 7F 7F 7F 7F 2A   192 	.db	0x5F, 0x7F, 0x7F, 0x7F, 0x7F, 0x2A, 0x2A
        2A
   00B5 7F                  193 	.db	127
   00B6 00 00 04 70 04 40   194 	.db	0x00, 0x00, 0x04, 0x70, 0x04, 0x40, 0x04, 0x40
        04 40
   00BE 04 70 00 00 00 00   195 	.db	0x04, 0x70, 0x00, 0x00, 0x00, 0x00, 0x15, 0x15
        15 15
   00C6 7E 7E 81 81 81 89   196 	.db	0x7E, 0x7E, 0x81, 0x81, 0x81, 0x89, 0x89, 0x85
        89 85
   00CE 91 81 A1 81 81 81   197 	.db	0x91, 0x81, 0xA1, 0x81, 0x81, 0x81, 0x7E, 0x7E
        7E 7E
   00D6 3C 3C 42 7E 81 FF   198 	.db	0x3C, 0x3C, 0x42, 0x7E, 0x81, 0xFF, 0x81, 0xFF
        81 FF
   00DE A1 FF 81 FF 81 FF   199 	.db	0xA1, 0xFF, 0x81, 0xFF, 0x81, 0xFF, 0x81, 0xFF
        81 FF
   00E6 00 00 04 02 01 09   200 	.db	0x00, 0x00, 0x04, 0x02, 0x01, 0x09, 0x09, 0xF9
        09 F9
   00EE A9 A9 06 06 00 00   201 	.db	0xA9, 0xA9, 0x06, 0x06, 0x00, 0x00, 0x00, 0x00
        00 00
   00F6 7E 7E F3 8D C1 BF   202 	.db	0x7E, 0x7E, 0xF3, 0x8D, 0xC1, 0xBF, 0xC1, 0xBF
        C1 BF
   00FE 81 FF 81 FF 81 FF   203 	.db	0x81, 0xFF, 0x81, 0xFF, 0x81, 0xFF, 0x7E, 0x7E
        7E 7E
   0106 69 96 78 00 68 90   204 	.db	0x69, 0x96, 0x78, 0x00, 0x68, 0x90, 0x79, 0x06
        79 06
   010E 60 00 40 00 30 80   205 	.db	0x60, 0x00, 0x40, 0x00, 0x30, 0x80, 0x30, 0x00
        30 00
   0116 69 16 78 80 68 10   206 	.db	0x69, 0x16, 0x78, 0x80, 0x68, 0x10, 0x79, 0x86
        79 86
   011E 60 00 60 80 30 00   207 	.db	0x60, 0x00, 0x60, 0x80, 0x30, 0x00, 0x30, 0x00
        30 00
   0126 14 2A 3C 01 15 28   208 	.db	0x14, 0x2A, 0x3C, 0x01, 0x15, 0x28, 0x3C, 0x02
        3C 02
   012E 30 01 11 20 18 00   209 	.db	0x30, 0x01, 0x11, 0x20, 0x18, 0x00, 0x18
        18
   0135 3E                  210 	.db	62
   0136 00 00 39 14 FF 00   211 	.db	0x00, 0x00, 0x39, 0x14, 0xFF, 0x00, 0x7E, 0x04
        7E 04
   013E FE 00 7F 00 70 00   212 	.db	0xFE, 0x00, 0x7F, 0x00, 0x70, 0x00, 0xF0, 0x00
        F0 00
   0146 3C 00 39 14 7F 00   213 	.db	0x3C, 0x00, 0x39, 0x14, 0x7F, 0x00, 0xFE, 0x04
        FE 04
   014E 7E 00 FF 00 70 00   214 	.db	0x7E, 0x00, 0xFF, 0x00, 0x70, 0x00, 0x70, 0x00
        70 00
   0156 BC 00 3F 14 1E 00   215 	.db	0xBC, 0x00, 0x3F, 0x14, 0x1E, 0x00, 0xBE, 0x50
        BE 50
   015E 3E 40 BE 00 78 00   216 	.db	0x3E, 0x40, 0xBE, 0x00, 0x78, 0x00, 0x78, 0x00
        78 00
   0166 BE 1C 00 79 00 5F   217 	.db	0xBE, 0x1C, 0x00, 0x79, 0x00, 0x5F, 0x00, 0x72
        00 72
   016E 00 76 00 3C 00 1C   218 	.db	0x00, 0x76, 0x00, 0x3C, 0x00, 0x1C
   0174 81 00               219 	.db	-127,0x00
   0176 04                  220 	.db	4
   0177 00 00 00 00         221 	.db	0x00, 0x00, 0x00, 0x00
   017B 00                  222 	.db	0
                            223 ;	game.c 25
                            224 ;	game.c 1343
                            225 ;	genArrayInit
                            226 ; _saveRegsForCall: sendSetSize: 0 deInUse: 0 bcInUse: 0 deSending: 0
   017C 21 F0 01            227 	ld	hl,#_Map1
   017F CD 00 00            228 	call	__initrleblock
   0182 04                  229 	.db	4
   0183 01 01 01 01         230 	.db	0x01, 0x01, 0x01, 0x01
   0187 F0 16               231 	.db	-16,0x16
   0189 04                  232 	.db	4
   018A 01 0A 02 01         233 	.db	0x01, 0x0A, 0x02, 0x01
   018E F1 09               234 	.db	-15,0x09
   0190 0C                  235 	.db	12
   0191 16 01 01 02 15 15   236 	.db	0x16, 0x01, 0x01, 0x02, 0x15, 0x15, 0x15, 0x15
        15 15
   0199 17 17 17 17         237 	.db	0x17, 0x17, 0x17, 0x17
   019D FA 15               238 	.db	-6,0x15
   019F 09                  239 	.db	9
   01A0 02 09 16 02 01 02   240 	.db	0x02, 0x09, 0x16, 0x02, 0x01, 0x02, 0x15, 0x17
        15 17
   01A8 17                  241 	.db	0x17
   01A9 FA 15               242 	.db	-6,0x15
   01AB 20                  243 	.db	32
   01AC 17 15 15 15 17 15   244 	.db	0x17, 0x15, 0x15, 0x15, 0x17, 0x15, 0x09, 0x16
        09 16
   01B4 0A 01 02 2D 01 01   245 	.db	0x0A, 0x01, 0x02, 0x2D, 0x01, 0x01, 0x02, 0x02
        02 02
   01BC 01 02 15 15 15 17   246 	.db	0x01, 0x02, 0x15, 0x15, 0x15, 0x17, 0x15, 0x15
        15 15
   01C4 15 15 09 16 15 15   247 	.db	0x15, 0x15, 0x09, 0x16, 0x15, 0x15, 0x15, 0x15
        15 15
   01CC FB 02               248 	.db	-5,0x02
   01CE 06                  249 	.db	6
   01CF 01 15 01 01 01 17   250 	.db	0x01, 0x15, 0x01, 0x01, 0x01, 0x17
   01D5 FB 0B               251 	.db	-5,0x0B
   01D7 3E                  252 	.db	62
   01D8 01 01 01 15 02 02   253 	.db	0x01, 0x01, 0x01, 0x15, 0x02, 0x02, 0x0A, 0x02
        0A 02
   01E0 01 01 15 01 66 01   254 	.db	0x01, 0x01, 0x15, 0x01, 0x66, 0x01, 0x15, 0x0B
        15 0B
   01E8 0B 05 09 05 01 2B   255 	.db	0x0B, 0x05, 0x09, 0x05, 0x01, 0x2B, 0x01, 0x15
        01 15
   01F0 01 02 02 02 01 01   256 	.db	0x01, 0x02, 0x02, 0x02, 0x01, 0x01, 0x29, 0x02
        29 02
   01F8 02 01 15 0B 05 01   257 	.db	0x02, 0x01, 0x15, 0x0B, 0x05, 0x01, 0x09, 0x02
        09 02
   0200 01 01 0A 15 01 02   258 	.db	0x01, 0x01, 0x0A, 0x15, 0x01, 0x02, 0x02, 0x02
        02 02
   0208 01 01 15 02 02 01   259 	.db	0x01, 0x01, 0x15, 0x02, 0x02, 0x01, 0x15, 0x05
        15 05
   0210 01 09 0A 02 01 01   260 	.db	0x01, 0x09, 0x0A, 0x02, 0x01, 0x01
   0216 FA 15               261 	.db	-6,0x15
   0218 0C                  262 	.db	12
   0219 02 02 15 02 02 02   263 	.db	0x02, 0x02, 0x15, 0x02, 0x02, 0x02, 0x17, 0x01
        17 01
   0221 01 09 01 01         264 	.db	0x01, 0x09, 0x01, 0x01
   0225 F8 15               265 	.db	-8,0x15
   0227 3C                  266 	.db	60
   0228 17 17 17 15 15 15   267 	.db	0x17, 0x17, 0x17, 0x15, 0x15, 0x15, 0x01, 0x01
        01 01
   0230 09 02 02 01 02 06   268 	.db	0x09, 0x02, 0x02, 0x01, 0x02, 0x06, 0x0B, 0x0B
        0B 0B
   0238 0B 04 02 01 01 02   269 	.db	0x0B, 0x04, 0x02, 0x01, 0x01, 0x02, 0x02, 0x06
        02 06
   0240 0B 04 01 09 01 02   270 	.db	0x0B, 0x04, 0x01, 0x09, 0x01, 0x02, 0x02, 0x15
        02 15
   0248 02 06 0B 0B 0B 04   271 	.db	0x02, 0x06, 0x0B, 0x0B, 0x0B, 0x04, 0x02, 0x02
        02 02
   0250 02 01 02 06 0B 09   272 	.db	0x02, 0x01, 0x02, 0x06, 0x0B, 0x09, 0x09, 0x02
        09 02
   0258 0A 02 02 17 01 02   273 	.db	0x0A, 0x02, 0x02, 0x17, 0x01, 0x02, 0x15, 0x15
        15 15
   0260 17 17 17 17         274 	.db	0x17, 0x17, 0x17, 0x17
   0264 F9 15               275 	.db	-7,0x15
   0266 07                  276 	.db	7
   0267 17 17 15 15 15 01   277 	.db	0x17, 0x17, 0x15, 0x15, 0x15, 0x01, 0x02
        02
   026E F6 15               278 	.db	-10,0x15
   0270 28                  279 	.db	40
   0271 17 15 15 15 15 17   280 	.db	0x17, 0x15, 0x15, 0x15, 0x15, 0x17, 0x15, 0x17
        15 17
   0279 02 02 02 06 0B 0B   281 	.db	0x02, 0x02, 0x02, 0x06, 0x0B, 0x0B, 0x04, 0x06
        04 06
   0281 0B 0B 04 06 0B 0B   282 	.db	0x0B, 0x0B, 0x04, 0x06, 0x0B, 0x0B, 0x09, 0x0B
        09 0B
   0289 0B 04 00 00 02 0A   283 	.db	0x0B, 0x04, 0x00, 0x00, 0x02, 0x0A, 0x02, 0x06
        02 06
   0291 0B 0B 04 06 0B 0B   284 	.db	0x0B, 0x0B, 0x04, 0x06, 0x0B, 0x0B, 0x04, 0x06
        04 06
   0299 FB 0B               285 	.db	-5,0x0B
   029B 0F                  286 	.db	15
   029C 04 2E 00 02 01 02   287 	.db	0x04, 0x2E, 0x00, 0x02, 0x01, 0x02, 0x06, 0x0B
        06 0B
   02A4 0B 04 06 0B 0B 04   288 	.db	0x0B, 0x04, 0x06, 0x0B, 0x0B, 0x04, 0x06
        06
   02AB FB 0B               289 	.db	-5,0x0B
   02AD 03                  290 	.db	3
   02AE 04 00 00            291 	.db	0x04, 0x00, 0x00
   02B1 00                  292 	.db	0
                            293 ;	game.c 25
                            294 ;	game.c 1343
                            295 ;	genArrayInit
                            296 ; _saveRegsForCall: sendSetSize: 0 deInUse: 0 bcInUse: 0 deSending: 0
   02B2 21 58 03            297 	ld	hl,#_Map2
   02B5 CD 00 00            298 	call	__initrleblock
   02B8 FB 00               299 	.db	-5,0x00
   02BA 01                  300 	.db	1
   02BB 2D                  301 	.db	0x2D
   02BC F9 00               302 	.db	-7,0x00
   02BE 04                  303 	.db	4
   02BF 2D 00 15 15         304 	.db	0x2D, 0x00, 0x15, 0x15
   02C3 FA 00               305 	.db	-6,0x00
   02C5 7F                  306 	.db	127
   02C6 0B 0B 00 0B 0B 0B   307 	.db	0x0B, 0x0B, 0x00, 0x0B, 0x0B, 0x0B, 0x00, 0x0B
        00 0B
   02CE 0B 0B 00 0B 15 15   308 	.db	0x0B, 0x0B, 0x00, 0x0B, 0x15, 0x15, 0x00, 0x2E
        00 2E
   02D6 00 00 00 00 0B 0B   309 	.db	0x00, 0x00, 0x00, 0x00, 0x0B, 0x0B, 0x00, 0x0B
        00 0B
   02DE 0B 0B 2D 0B 0B 0B   310 	.db	0x0B, 0x0B, 0x2D, 0x0B, 0x0B, 0x0B, 0x00, 0x0B
        00 0B
   02E6 0B 0B 00 00 00 15   311 	.db	0x0B, 0x0B, 0x00, 0x00, 0x00, 0x15, 0x00, 0x00
        00 00
   02EE 0B 0B 00 0B 0B 0B   312 	.db	0x0B, 0x0B, 0x00, 0x0B, 0x0B, 0x0B, 0x00, 0x0B
        00 0B
   02F6 0B 0B 00 00 00 00   313 	.db	0x0B, 0x0B, 0x00, 0x00, 0x00, 0x00, 0x0B, 0x0B
        0B 0B
   02FE 0B 15 2D 2D 00 00   314 	.db	0x0B, 0x15, 0x2D, 0x2D, 0x00, 0x00, 0x29, 0x2D
        29 2D
   0306 00 00 2D 00 00 00   315 	.db	0x00, 0x00, 0x2D, 0x00, 0x00, 0x00, 0x15, 0x0B
        15 0B
   030E 0B 00 0B 00 0B 15   316 	.db	0x0B, 0x00, 0x0B, 0x00, 0x0B, 0x15, 0x00, 0x00
        00 00
   0316 0B 0B 0B 00 00 0B   317 	.db	0x0B, 0x0B, 0x0B, 0x00, 0x00, 0x0B, 0x00, 0x0B
        00 0B
   031E 00 00 0B 0B 0B 00   318 	.db	0x00, 0x00, 0x0B, 0x0B, 0x0B, 0x00, 0x0B, 0x0B
        0B 0B
   0326 0B 15 00 00 0B 0B   319 	.db	0x0B, 0x15, 0x00, 0x00, 0x0B, 0x0B, 0x0B, 0x00
        0B 00
   032E 0B 0B 00 0B 0B 00   320 	.db	0x0B, 0x0B, 0x00, 0x0B, 0x0B, 0x00, 0x0B, 0x0B
        0B 0B
   0336 0B 00 0B 0B 0B 15   321 	.db	0x0B, 0x00, 0x0B, 0x0B, 0x0B, 0x15, 0x2D, 0x2D
        2D 2D
   033E 00 00 00 2D 2D 00   322 	.db	0x00, 0x00, 0x00, 0x2D, 0x2D, 0x00, 0x2D
        2D
   0345 35                  323 	.db	53
   0346 00 00 2D 00 00 00   324 	.db	0x00, 0x00, 0x2D, 0x00, 0x00, 0x00, 0x0B, 0x15
        0B 15
   034E 00 15 15 00 00 0B   325 	.db	0x00, 0x15, 0x15, 0x00, 0x00, 0x0B, 0x0B, 0x0B
        0B 0B
   0356 00 0B 15 00 15 0B   326 	.db	0x00, 0x0B, 0x15, 0x00, 0x15, 0x0B, 0x00, 0x0B
        00 0B
   035E 0B 0B 15 15 00 15   327 	.db	0x0B, 0x0B, 0x15, 0x15, 0x00, 0x15, 0x15, 0x00
        15 00
   0366 00 0B 0B 0B 00 0B   328 	.db	0x00, 0x0B, 0x0B, 0x0B, 0x00, 0x0B, 0x15, 0x00
        15 00
   036E 15 0B 00 0B 0B 0B   329 	.db	0x15, 0x0B, 0x00, 0x0B, 0x0B, 0x0B, 0x15, 0x15
        15 15
   0376 0B 15 15 00 15      330 	.db	0x0B, 0x15, 0x15, 0x00, 0x15
   037B FB 0B               331 	.db	-5,0x0B
   037D 03                  332 	.db	3
   037E 15 00 15            333 	.db	0x15, 0x00, 0x15
   0381 FB 0B               334 	.db	-5,0x0B
   0383 37                  335 	.db	55
   0384 15 15 0B 15 15 00   336 	.db	0x15, 0x15, 0x0B, 0x15, 0x15, 0x00, 0x15, 0x0B
        15 0B
   038C 0B 0B 0B 15 00 67   337 	.db	0x0B, 0x0B, 0x0B, 0x15, 0x00, 0x67, 0x00, 0x15
        00 15
   0394 0B 0B 0B 0B 15 0B   338 	.db	0x0B, 0x0B, 0x0B, 0x0B, 0x15, 0x0B, 0x00, 0x15
        00 15
   039C 15 00 15 15 0B 0B   339 	.db	0x15, 0x00, 0x15, 0x15, 0x0B, 0x0B, 0x0B, 0x15
        0B 15
   03A4 00 00 00 15 0B 0B   340 	.db	0x00, 0x00, 0x00, 0x15, 0x0B, 0x0B, 0x0B, 0x0B
        0B 0B
   03AC 15 15 00 15 15 00   341 	.db	0x15, 0x15, 0x00, 0x15, 0x15, 0x00, 0x15, 0x15
        15 15
   03B4 15 0B 0B 0B 15 15   342 	.db	0x15, 0x0B, 0x0B, 0x0B, 0x15, 0x15, 0x15
        15
   03BB FB 0B               343 	.db	-5,0x0B
   03BD 09                  344 	.db	9
   03BE 15 15 0B 15 15 00   345 	.db	0x15, 0x15, 0x0B, 0x15, 0x15, 0x00, 0x15, 0x15
        15 15
   03C6 15                  346 	.db	0x15
   03C7 F6 0B               347 	.db	-10,0x0B
   03C9 07                  348 	.db	7
   03CA 15 15 15 0B 15 15   349 	.db	0x15, 0x15, 0x15, 0x0B, 0x15, 0x15, 0x00
        00
   03D1 F0 15               350 	.db	-16,0x15
   03D3 09                  351 	.db	9
   03D4 00 15 15 00 00 00   352 	.db	0x00, 0x15, 0x15, 0x00, 0x00, 0x00, 0x15, 0x15
        15 15
   03DC 15                  353 	.db	0x15
   03DD F9 00               354 	.db	-7,0x00
   03DF 09                  355 	.db	9
   03E0 15 15 15 00 00 15   356 	.db	0x15, 0x15, 0x15, 0x00, 0x00, 0x15, 0x15, 0x15
        15 15
   03E8 15                  357 	.db	0x15
   03E9 FB 00               358 	.db	-5,0x00
   03EB FB 15               359 	.db	-5,0x15
   03ED FB 00               360 	.db	-5,0x00
   03EF 02                  361 	.db	2
   03F0 15 15               362 	.db	0x15, 0x15
   03F2 00                  363 	.db	0
                            364 ;	game.c 25
                            365 ;	game.c 1343
                            366 ;	genArrayInit
                            367 ; _saveRegsForCall: sendSetSize: 0 deInUse: 0 bcInUse: 0 deSending: 0
   03F3 21 C0 04            368 	ld	hl,#_Map3
   03F6 CD 00 00            369 	call	__initrleblock
   03F9 F2 01               370 	.db	-14,0x01
   03FB 03                  371 	.db	3
   03FC 2D 0B 0B            372 	.db	0x2D, 0x0B, 0x0B
   03FF FB 01               373 	.db	-5,0x01
   0401 02                  374 	.db	2
   0402 17 17               375 	.db	0x17, 0x17
   0404 FA 15               376 	.db	-6,0x15
   0406 0E                  377 	.db	14
   0407 17 17 15 15 0B 15   378 	.db	0x17, 0x17, 0x15, 0x15, 0x0B, 0x15, 0x15, 0x01
        15 01
   040F 2E 01 01 01 17 15   379 	.db	0x2E, 0x01, 0x01, 0x01, 0x17, 0x15
   0415 FB 01               380 	.db	-5,0x01
   0417 08                  381 	.db	8
   0418 29 01 01 01 2D 01   382 	.db	0x29, 0x01, 0x01, 0x01, 0x2D, 0x01, 0x15, 0x15
        15 15
   0420 FB 01               383 	.db	-5,0x01
   0422 7F                  384 	.db	127
   0423 15 15 2D 15 15 15   385 	.db	0x15, 0x15, 0x2D, 0x15, 0x15, 0x15, 0x15, 0x2D
        15 2D
   042B 15 15 15 15 01 15   386 	.db	0x15, 0x15, 0x15, 0x15, 0x01, 0x15, 0x17, 0x15
        17 15
   0433 2D 01 01 01 01 15   387 	.db	0x2D, 0x01, 0x01, 0x01, 0x01, 0x15, 0x01, 0x15
        01 15
   043B 17 15 15 01 15 01   388 	.db	0x17, 0x15, 0x15, 0x01, 0x15, 0x01, 0x01, 0x01
        01 01
   0443 2D 01 01 01 0B 01   389 	.db	0x2D, 0x01, 0x01, 0x01, 0x0B, 0x01, 0x01, 0x01
        01 01
   044B 01 15 01 15 17 15   390 	.db	0x01, 0x15, 0x01, 0x15, 0x17, 0x15, 0x17, 0x01
        17 01
   0453 15 15 01 15 01 15   391 	.db	0x15, 0x15, 0x01, 0x15, 0x01, 0x15, 0x15, 0x01
        15 01
   045B 15 15 01 01 01 15   392 	.db	0x15, 0x15, 0x01, 0x01, 0x01, 0x15, 0x01, 0x15
        01 15
   0463 15 15 15 29 15 15   393 	.db	0x15, 0x15, 0x15, 0x29, 0x15, 0x15, 0x01, 0x15
        01 15
   046B 01 15 15 01 15 17   394 	.db	0x01, 0x15, 0x15, 0x01, 0x15, 0x17, 0x01, 0x01
        01 01
   0473 01 01 29 2D 01 01   395 	.db	0x01, 0x01, 0x29, 0x2D, 0x01, 0x01, 0x29, 0x68
        29 68
   047B 29 01 2D 01 29 15   396 	.db	0x29, 0x01, 0x2D, 0x01, 0x29, 0x15, 0x15, 0x01
        15 01
   0483 15 15 01 2D 01 01   397 	.db	0x15, 0x15, 0x01, 0x2D, 0x01, 0x01, 0x01, 0x15
        01 15
   048B 15 15 15 29 17 15   398 	.db	0x15, 0x15, 0x15, 0x29, 0x17, 0x15, 0x01, 0x15
        01 15
   0493 2D 01 01 2D 01 01   399 	.db	0x2D, 0x01, 0x01, 0x2D, 0x01, 0x01, 0x15, 0x01
        15 01
   049B 15 15 01 15 15 15   400 	.db	0x15, 0x15, 0x01, 0x15, 0x15, 0x15, 0x15
        15
   04A2 3D                  401 	.db	61
   04A3 01 15 17 15 15 01   402 	.db	0x01, 0x15, 0x17, 0x15, 0x15, 0x01, 0x15, 0x15
        15 15
   04AB 01 15 01 15 01 15   403 	.db	0x01, 0x15, 0x01, 0x15, 0x01, 0x15, 0x15, 0x01
        15 01
   04B3 15 2B 15 15 01 15   404 	.db	0x15, 0x2B, 0x15, 0x15, 0x01, 0x15, 0x15, 0x17
        15 17
   04BB 15 01 15 17 01 15   405 	.db	0x15, 0x01, 0x15, 0x17, 0x01, 0x15, 0x0B, 0x15
        0B 15
   04C3 01 15 15 01 15 15   406 	.db	0x01, 0x15, 0x15, 0x01, 0x15, 0x15, 0x15, 0x15
        15 15
   04CB 2D 15 15 17 15 01   407 	.db	0x2D, 0x15, 0x15, 0x17, 0x15, 0x01, 0x15, 0x17
        15 17
   04D3 01 15 0B 01 01 15   408 	.db	0x01, 0x15, 0x0B, 0x01, 0x01, 0x15, 0x15, 0x01
        15 01
   04DB 2D 01 01 01 29      409 	.db	0x2D, 0x01, 0x01, 0x01, 0x29
   04E0 FB 01               410 	.db	-5,0x01
   04E2 0B                  411 	.db	11
   04E3 15 15 01 15 2D 01   412 	.db	0x15, 0x15, 0x01, 0x15, 0x2D, 0x01, 0x15, 0x15
        15 15
   04EB 15 15 0B            413 	.db	0x15, 0x15, 0x0B
   04EE FB 15               414 	.db	-5,0x15
   04F0 59                  415 	.db	89
   04F1 17 15 15 17 15 15   416 	.db	0x17, 0x15, 0x15, 0x17, 0x15, 0x15, 0x01, 0x15
        01 15
   04F9 01 01 2D 01 2D 01   417 	.db	0x01, 0x01, 0x2D, 0x01, 0x2D, 0x01, 0x2D, 0x15
        2D 15
   0501 2D 01 2D 01 2D 01   418 	.db	0x2D, 0x01, 0x2D, 0x01, 0x2D, 0x01, 0x2D, 0x15
        2D 15
   0509 15 15 01 15 01 2D   419 	.db	0x15, 0x15, 0x01, 0x15, 0x01, 0x2D, 0x01, 0x2D
        01 2D
   0511 0B 2D 01 2D 01 2D   420 	.db	0x0B, 0x2D, 0x01, 0x2D, 0x01, 0x2D, 0x0B, 0x2D
        0B 2D
   0519 01 2D 01 15 17 15   421 	.db	0x01, 0x2D, 0x01, 0x15, 0x17, 0x15, 0x2D, 0x01
        2D 01
   0521 01 0B 2D 0B 2D 0B   422 	.db	0x01, 0x0B, 0x2D, 0x0B, 0x2D, 0x0B, 0x2D, 0x01
        2D 01
   0529 2D 00 2D 0B 2D 01   423 	.db	0x2D, 0x00, 0x2D, 0x0B, 0x2D, 0x01, 0x2D, 0x15
        2D 15
   0531 15 15 01 17 15 2D   424 	.db	0x15, 0x15, 0x01, 0x17, 0x15, 0x2D, 0x01, 0x2D
        01 2D
   0539 01 2D 01 2D 15 2D   425 	.db	0x01, 0x2D, 0x01, 0x2D, 0x15, 0x2D, 0x29, 0x2D
        29 2D
   0541 01 2D 0B 01 01 01   426 	.db	0x01, 0x2D, 0x0B, 0x01, 0x01, 0x01, 0x01, 0x15
        01 15
   0549 17                  427 	.db	0x17
   054A 00                  428 	.db	0
                            429 ;	game.c 25
                            430 ;	game.c 1343
                            431 ;	genArrayInit
                            432 ; _saveRegsForCall: sendSetSize: 0 deInUse: 0 bcInUse: 0 deSending: 0
   054B 21 28 06            433 	ld	hl,#_Map4
   054E CD 00 00            434 	call	__initrleblock
   0551 06                  435 	.db	6
   0552 00 00 0A 0A 15 15   436 	.db	0x00, 0x00, 0x0A, 0x0A, 0x15, 0x15
   0558 FB 0B               437 	.db	-5,0x0B
   055A 01                  438 	.db	1
   055B 15                  439 	.db	0x15
   055C FA 0B               440 	.db	-6,0x0B
   055E 25                  441 	.db	37
   055F 15 15 00 0A 2D 06   442 	.db	0x15, 0x15, 0x00, 0x0A, 0x2D, 0x06, 0x0B, 0x0B
        0B 0B
   0567 01 0B 00 15 0B 0B   443 	.db	0x01, 0x0B, 0x00, 0x15, 0x0B, 0x0B, 0x15, 0x01
        15 01
   056F 01 0B 0B 02 07 15   444 	.db	0x01, 0x0B, 0x0B, 0x02, 0x07, 0x15, 0x01, 0x2D
        01 2D
   0577 01 00 0B 0B 0A 0B   445 	.db	0x01, 0x00, 0x0B, 0x0B, 0x0A, 0x0B, 0x15, 0x01
        15 01
   057F 0A 0B 0B 01 0A      446 	.db	0x0A, 0x0B, 0x0B, 0x01, 0x0A
   0584 FB 0B               447 	.db	-5,0x0B
   0586 08                  448 	.db	8
   0587 0A 07 0B 0B 15 0B   449 	.db	0x0A, 0x07, 0x0B, 0x0B, 0x15, 0x0B, 0x0B, 0x00
        0B 00
   058F FB 0B               450 	.db	-5,0x0B
   0591 01                  451 	.db	1
   0592 15                  452 	.db	0x15
   0593 F6 0B               453 	.db	-10,0x0B
   0595 42                  454 	.db	66
   0596 00 2D 0B 01 00 0B   455 	.db	0x00, 0x2D, 0x0B, 0x01, 0x00, 0x0B, 0x0B, 0x01
        0B 01
   059E 01 0B 01 0B 01 0B   456 	.db	0x01, 0x0B, 0x01, 0x0B, 0x01, 0x0B, 0x02, 0x0A
        02 0A
   05A6 0B 00 2D 0B 01 00   457 	.db	0x0B, 0x00, 0x2D, 0x0B, 0x01, 0x00, 0x0B, 0x0B
        0B 0B
   05AE 0B 02 0B 0B 0B 02   458 	.db	0x0B, 0x02, 0x0B, 0x0B, 0x0B, 0x02, 0x0B, 0x15
        0B 15
   05B6 0B 0B 0B 01 00 2D   459 	.db	0x0B, 0x0B, 0x0B, 0x01, 0x00, 0x2D, 0x00, 0x0B
        00 0B
   05BE 15 15 00 0B 0B 0B   460 	.db	0x15, 0x15, 0x00, 0x0B, 0x0B, 0x0B, 0x02, 0x0B
        02 0B
   05C6 0B 01 02 0B 0B 0B   461 	.db	0x0B, 0x01, 0x02, 0x0B, 0x0B, 0x0B, 0x02, 0x00
        02 00
   05CE 0B 0B 0B 0B 15 0B   462 	.db	0x0B, 0x0B, 0x0B, 0x0B, 0x15, 0x0B, 0x0B, 0x15
        0B 15
   05D6 15 00               463 	.db	0x15, 0x00
   05D8 F9 0B               464 	.db	-7,0x0B
   05DA 43                  465 	.db	67
   05DB 15 0B 0B 00 0B 15   466 	.db	0x15, 0x0B, 0x0B, 0x00, 0x0B, 0x15, 0x0B, 0x0B
        0B 0B
   05E3 00 01 0B 0B 0B 00   467 	.db	0x00, 0x01, 0x0B, 0x0B, 0x0B, 0x00, 0x0B, 0x0B
        0B 0B
   05EB 0B 01 01 15 0B 15   468 	.db	0x0B, 0x01, 0x01, 0x15, 0x0B, 0x15, 0x0B, 0x00
        0B 00
   05F3 15 00 0B 0B 0B 0B   469 	.db	0x15, 0x00, 0x0B, 0x0B, 0x0B, 0x0B, 0x15, 0x15
        15 15
   05FB 02 0B 15 15 0B 0B   470 	.db	0x02, 0x0B, 0x15, 0x15, 0x0B, 0x0B, 0x01, 0x01
        01 01
   0603 0B 0B 0B 07 15 01   471 	.db	0x0B, 0x0B, 0x0B, 0x07, 0x15, 0x01, 0x0B, 0x0B
        0B 0B
   060B 00 0A 00 0B 0B 02   472 	.db	0x00, 0x0A, 0x00, 0x0B, 0x0B, 0x02, 0x15, 0x15
        15 15
   0613 00 01 0B 01 0B 00   473 	.db	0x00, 0x01, 0x0B, 0x01, 0x0B, 0x00, 0x02, 0x0B
        02 0B
   061B 15 0B 15            474 	.db	0x15, 0x0B, 0x15
   061E F9 0B               475 	.db	-7,0x0B
   0620 16                  476 	.db	22
   0621 15 15 0B 0B 0B 0B   477 	.db	0x15, 0x15, 0x0B, 0x0B, 0x0B, 0x0B, 0x15, 0x15
        15 15
   0629 01 00 00 0B 0B 0B   478 	.db	0x01, 0x00, 0x00, 0x0B, 0x0B, 0x0B, 0x01, 0x0B
        01 0B
   0631 0B 00 0B 0B 15 01   479 	.db	0x0B, 0x00, 0x0B, 0x0B, 0x15, 0x01
   0637 FB 0B               480 	.db	-5,0x0B
   0639 66                  481 	.db	102
   063A 15 0A 07 15 00 02   482 	.db	0x15, 0x0A, 0x07, 0x15, 0x00, 0x02, 0x0B, 0x0B
        0B 0B
   0642 0B 02 0B 0B 0B 00   483 	.db	0x0B, 0x02, 0x0B, 0x0B, 0x0B, 0x00, 0x0B, 0x0B
        0B 0B
   064A 01 0B 0B 0B 0B 04   484 	.db	0x01, 0x0B, 0x0B, 0x0B, 0x0B, 0x04, 0x0B, 0x00
        0B 00
   0652 0A 0B 0B 0B 02 0B   485 	.db	0x0A, 0x0B, 0x0B, 0x0B, 0x02, 0x0B, 0x0B, 0x0B
        0B 0B
   065A 0A 0B 0B 15 69 15   486 	.db	0x0A, 0x0B, 0x0B, 0x15, 0x69, 0x15, 0x0B, 0x0B
        0B 0B
   0662 15 01 0B 01 00 0B   487 	.db	0x15, 0x01, 0x0B, 0x01, 0x00, 0x0B, 0x15, 0x0B
        15 0B
   066A 0B 0B 15 15 01 0B   488 	.db	0x0B, 0x0B, 0x15, 0x15, 0x01, 0x0B, 0x0B, 0x0B
        0B 0B
   0672 15 0B 0B 15 15 0A   489 	.db	0x15, 0x0B, 0x0B, 0x15, 0x15, 0x0A, 0x0B, 0x15
        0B 15
   067A 0B 15 0B 01 01 01   490 	.db	0x0B, 0x15, 0x0B, 0x01, 0x01, 0x01, 0x0B, 0x15
        0B 15
   0682 15 0B 0B 0B 15 0B   491 	.db	0x15, 0x0B, 0x0B, 0x0B, 0x15, 0x0B, 0x15, 0x15
        15 15
   068A 15 00 01 01 00 0A   492 	.db	0x15, 0x00, 0x01, 0x01, 0x00, 0x0A, 0x01, 0x00
        01 00
   0692 2D 00 01 00 0A 00   493 	.db	0x2D, 0x00, 0x01, 0x00, 0x0A, 0x00, 0x01, 0x00
        01 00
   069A 01 00 0A 00 0A 01   494 	.db	0x01, 0x00, 0x0A, 0x00, 0x0A, 0x01
   06A0 00                  495 	.db	0
                            496 ;	game.c 25
                            497 ;	game.c 1343
                            498 ;	genArrayInit
                            499 ; _saveRegsForCall: sendSetSize: 0 deInUse: 0 bcInUse: 0 deSending: 0
   06A1 21 90 07            500 	ld	hl,#_Map5
   06A4 CD 00 00            501 	call	__initrleblock
   06A7 3E                  502 	.db	62
   06A8 00 00 01 02 02 01   503 	.db	0x00, 0x00, 0x01, 0x02, 0x02, 0x01, 0x01, 0x02
        01 02
   06B0 02 0B 0B 0B 01 02   504 	.db	0x02, 0x0B, 0x0B, 0x0B, 0x01, 0x02, 0x02, 0x01
        02 01
   06B8 02 15 15 15 00 00   505 	.db	0x02, 0x15, 0x15, 0x15, 0x00, 0x00, 0x01, 0x01
        01 01
   06C0 2D 01 2D 02 2D 0B   506 	.db	0x2D, 0x01, 0x2D, 0x02, 0x2D, 0x0B, 0x0B, 0x0B
        0B 0B
   06C8 01 01 01 02 02 02   507 	.db	0x01, 0x01, 0x01, 0x02, 0x02, 0x02, 0x15, 0x15
        15 15
   06D0 15 01 01 0D 0D 0D   508 	.db	0x15, 0x01, 0x01, 0x0D, 0x0D, 0x0D, 0x0D, 0x0F
        0D 0F
   06D8 0D 0D 0D 0D 0E 0D   509 	.db	0x0D, 0x0D, 0x0D, 0x0D, 0x0E, 0x0D, 0x0D, 0x0D
        0D 0D
   06E0 0F 0F 15 15 15 15   510 	.db	0x0F, 0x0F, 0x15, 0x15, 0x15, 0x15
   06E6 F6 0D               511 	.db	-10,0x0D
   06E8 01                  512 	.db	1
   06E9 0E                  513 	.db	0x0E
   06EA FA 0D               514 	.db	-6,0x0D
   06EC 07                  515 	.db	7
   06ED 15 0D 0D 0D 15 01   516 	.db	0x15, 0x0D, 0x0D, 0x0D, 0x15, 0x01, 0x01
        01
   06F4 FB 0D               517 	.db	-5,0x0D
   06F6 01                  518 	.db	1
   06F7 0E                  519 	.db	0x0E
   06F8 F6 0D               520 	.db	-10,0x0D
   06FA 0A                  521 	.db	10
   06FB 15 15 01 01 01 0D   522 	.db	0x15, 0x15, 0x01, 0x01, 0x01, 0x0D, 0x0D, 0x0D
        0D 0D
   0703 0E 0E               523 	.db	0x0E, 0x0E
   0705 F5 0D               524 	.db	-11,0x0D
   0707 0A                  525 	.db	10
   0708 15 01 01 0D 0D 0D   526 	.db	0x15, 0x01, 0x01, 0x0D, 0x0D, 0x0D, 0x0D, 0x0E
        0D 0E
   0710 0D 10               527 	.db	0x0D, 0x10
   0712 FA 0D               528 	.db	-6,0x0D
   0714 06                  529 	.db	6
   0715 0F 0D 0D 0D 0D 0E   530 	.db	0x0F, 0x0D, 0x0D, 0x0D, 0x0D, 0x0E
   071B FB 0D               531 	.db	-5,0x0D
   071D 04                  532 	.db	4
   071E 0E 10 0D 10         533 	.db	0x0E, 0x10, 0x0D, 0x10
   0722 FA 0D               534 	.db	-6,0x0D
   0724 16                  535 	.db	22
   0725 0E 0D 0D 0D 0E 0D   536 	.db	0x0E, 0x0D, 0x0D, 0x0D, 0x0E, 0x0D, 0x0D, 0x0D
        0D 0D
   072D 0E 02 0D 0C 0D 0C   537 	.db	0x0E, 0x02, 0x0D, 0x0C, 0x0D, 0x0C, 0x0D, 0x0D
        0D 0D
   0735 0C 0D 0D 0D 0C 10   538 	.db	0x0C, 0x0D, 0x0D, 0x0D, 0x0C, 0x10
   073B FA 0D               539 	.db	-6,0x0D
   073D 09                  540 	.db	9
   073E 0C 02 01 0C 29 0C   541 	.db	0x0C, 0x02, 0x01, 0x0C, 0x29, 0x0C, 0x0D, 0x0D
        0D 0D
   0746 0C                  542 	.db	0x0C
   0747 FB 0D               543 	.db	-5,0x0D
   0749 01                  544 	.db	1
   074A 0F                  545 	.db	0x0F
   074B FB 0D               546 	.db	-5,0x0D
   074D 0E                  547 	.db	14
   074E 0C 01 15 0C 0D 0C   548 	.db	0x0C, 0x01, 0x15, 0x0C, 0x0D, 0x0C, 0x0F, 0x0D
        0F 0D
   0756 0C 0D 0D 0D 00 0F   549 	.db	0x0C, 0x0D, 0x0D, 0x0D, 0x00, 0x0F
   075C FA 0D               550 	.db	-6,0x0D
   075E 09                  551 	.db	9
   075F 0C 10 10 0C 0D 0C   552 	.db	0x0C, 0x10, 0x10, 0x0C, 0x0D, 0x0C, 0x0D, 0x0F
        0D 0F
   0767 0C                  553 	.db	0x0C
   0768 FA 0D               554 	.db	-6,0x0D
   076A 28                  555 	.db	40
   076B 10 0D 0D 10 0B 0C   556 	.db	0x10, 0x0D, 0x0D, 0x10, 0x0B, 0x0C, 0x0D, 0x0D
        0D 0D
   0773 0C 34 0C 0D 0D 0C   557 	.db	0x0C, 0x34, 0x0C, 0x0D, 0x0D, 0x0C, 0x0D, 0x0D
        0D 0D
   077B 0D 0C 0C 0C 0C 0D   558 	.db	0x0D, 0x0C, 0x0C, 0x0C, 0x0C, 0x0D, 0x0D, 0x0C
        0D 0C
   0783 0C 0D 0D 0D 0C 6A   559 	.db	0x0C, 0x0D, 0x0D, 0x0D, 0x0C, 0x6A, 0x0C, 0x0D
        0C 0D
   078B 0D 0C 01 01 0D 01   560 	.db	0x0D, 0x0C, 0x01, 0x01, 0x0D, 0x01, 0x01, 0x10
        01 10
   0793 F3 0D               561 	.db	-13,0x0D
   0795 09                  562 	.db	9
   0796 10 0B 0D 01 01 01   563 	.db	0x10, 0x0B, 0x0D, 0x01, 0x01, 0x01, 0x10, 0x0D
        10 0D
   079E 10                  564 	.db	0x10
   079F F9 0D               565 	.db	-7,0x0D
   07A1 0B                  566 	.db	11
   07A2 0C 0D 0D 0D 0D 01   567 	.db	0x0C, 0x0D, 0x0D, 0x0D, 0x0D, 0x01, 0x01, 0x01
        01 01
   07AA 01 10 0E            568 	.db	0x01, 0x10, 0x0E
   07AD F3 0D               569 	.db	-13,0x0D
   07AF 07                  570 	.db	7
   07B0 01 01 01 15 2E 01   571 	.db	0x01, 0x01, 0x01, 0x15, 0x2E, 0x01, 0x10
        10
   07B7 F6 0D               572 	.db	-10,0x0D
   07B9 07                  573 	.db	7
   07BA 10 0D 01 01 01 15   574 	.db	0x10, 0x0D, 0x01, 0x01, 0x01, 0x15, 0x15
        15
   07C1 00                  575 	.db	0
                            576 ;	game.c 25
                            577 ;	game.c 1343
                            578 ;	genArrayInit
                            579 ; _saveRegsForCall: sendSetSize: 0 deInUse: 0 bcInUse: 0 deSending: 0
   07C2 21 F8 08            580 	ld	hl,#_Map6
   07C5 CD 00 00            581 	call	__initrleblock
   07C8 02                  582 	.db	2
   07C9 00 00               583 	.db	0x00, 0x00
   07CB F9 0D               584 	.db	-7,0x0D
   07CD 04                  585 	.db	4
   07CE 02 01 00 00         586 	.db	0x02, 0x01, 0x00, 0x00
   07D2 F9 0D               587 	.db	-7,0x0D
   07D4 02                  588 	.db	2
   07D5 02 02               589 	.db	0x02, 0x02
   07D7 F1 0D               590 	.db	-15,0x0D
   07D9 03                  591 	.db	3
   07DA 0C 0C 0C            592 	.db	0x0C, 0x0C, 0x0C
   07DD F8 0D               593 	.db	-8,0x0D
   07DF 02                  594 	.db	2
   07E0 0C 6E               595 	.db	0x0C, 0x6E
   07E2 F7 0D               596 	.db	-9,0x0D
   07E4 03                  597 	.db	3
   07E5 0C 0C 0C            598 	.db	0x0C, 0x0C, 0x0C
   07E8 DD 0D               599 	.db	-35,0x0D
   07EA 02                  600 	.db	2
   07EB 02 01               601 	.db	0x02, 0x01
   07ED F7 0D               602 	.db	-9,0x0D
   07EF 02                  603 	.db	2
   07F0 01 02               604 	.db	0x01, 0x02
   07F2 00                  605 	.db	0
                            606 ;	game.c 25
                            607 ;	game.c 1343
                            608 ;	genArrayInit
                            609 ; _saveRegsForCall: sendSetSize: 0 deInUse: 0 bcInUse: 0 deSending: 0
   07F3 21 66 09            610 	ld	hl,#_Map7
   07F6 CD 00 00            611 	call	__initrleblock
   07F9 BF 00               612 	.db	-65,0x00
   07FB 02                  613 	.db	2
   07FC 0C 0C               614 	.db	0x0C, 0x0C
   07FE EE 00               615 	.db	-18,0x00
   0800 02                  616 	.db	2
   0801 0C 0C               617 	.db	0x0C, 0x0C
   0803 81 00               618 	.db	-127,0x00
   0805 81 00               619 	.db	-127,0x00
   0807 ED 00               620 	.db	-19,0x00
   0809 00                  621 	.db	0
                            622 ;	game.c 25
                            623 ;	game.c 1343
                            624 ;	genArrayInit
                            625 ; _saveRegsForCall: sendSetSize: 0 deInUse: 0 bcInUse: 0 deSending: 0
   080A 21 CE 0A            626 	ld	hl,#_Map8
   080D CD 00 00            627 	call	__initrleblock
   0810 BF 00               628 	.db	-65,0x00
   0812 02                  629 	.db	2
   0813 0C 0C               630 	.db	0x0C, 0x0C
   0815 EE 00               631 	.db	-18,0x00
   0817 02                  632 	.db	2
   0818 0C 0C               633 	.db	0x0C, 0x0C
   081A 81 00               634 	.db	-127,0x00
   081C 81 00               635 	.db	-127,0x00
   081E ED 00               636 	.db	-19,0x00
   0820 00                  637 	.db	0
                            638 ;	game.c 25
                            639 ;	game.c 1343
                            640 ;	genArrayInit
                            641 ; _saveRegsForCall: sendSetSize: 0 deInUse: 0 bcInUse: 0 deSending: 0
   0821 21 36 0C            642 	ld	hl,#_Map9
   0824 CD 00 00            643 	call	__initrleblock
   0827 BF 00               644 	.db	-65,0x00
   0829 02                  645 	.db	2
   082A 0C 0C               646 	.db	0x0C, 0x0C
   082C EE 00               647 	.db	-18,0x00
   082E 02                  648 	.db	2
   082F 0C 0C               649 	.db	0x0C, 0x0C
   0831 81 00               650 	.db	-127,0x00
   0833 81 00               651 	.db	-127,0x00
   0835 ED 00               652 	.db	-19,0x00
   0837 00                  653 	.db	0
                            654 ;	game.c 25
                            655 ;	game.c 1343
                            656 ;	genArrayInit
                            657 ; _saveRegsForCall: sendSetSize: 0 deInUse: 0 bcInUse: 0 deSending: 0
   0838 21 9E 0D            658 	ld	hl,#_Map10
   083B CD 00 00            659 	call	__initrleblock
   083E BF 00               660 	.db	-65,0x00
   0840 02                  661 	.db	2
   0841 0C 0C               662 	.db	0x0C, 0x0C
   0843 EE 00               663 	.db	-18,0x00
   0845 02                  664 	.db	2
   0846 0C 0C               665 	.db	0x0C, 0x0C
   0848 81 00               666 	.db	-127,0x00
   084A 81 00               667 	.db	-127,0x00
   084C ED 00               668 	.db	-19,0x00
   084E 00                  669 	.db	0
                            670 ;	game.c 25
                            671 ;	game.c 1343
                            672 ;	genArrayInit
                            673 ; _saveRegsForCall: sendSetSize: 0 deInUse: 0 bcInUse: 0 deSending: 0
   084F 21 06 0F            674 	ld	hl,#_mapTestSmallGrid
   0852 CD 00 00            675 	call	__initrleblock
   0855 02                  676 	.db	2
   0856 00 01               677 	.db	0x00, 0x01
   0858 FA 0D               678 	.db	-6,0x0D
   085A 04                  679 	.db	4
   085B 02 01 01 01         680 	.db	0x02, 0x01, 0x01, 0x01
   085F FA 0D               681 	.db	-6,0x0D
   0861 02                  682 	.db	2
   0862 01 01               683 	.db	0x01, 0x01
   0864 F3 0D               684 	.db	-13,0x0D
   0866 03                  685 	.db	3
   0867 0C 0C 0C            686 	.db	0x0C, 0x0C, 0x0C
   086A F9 0D               687 	.db	-7,0x0D
   086C 02                  688 	.db	2
   086D 0C 6D               689 	.db	0x0C, 0x6D
   086F F8 0D               690 	.db	-8,0x0D
   0871 03                  691 	.db	3
   0872 0C 0C 0C            692 	.db	0x0C, 0x0C, 0x0C
   0875 EA 0D               693 	.db	-22,0x0D
   0877 02                  694 	.db	2
   0878 02 01               695 	.db	0x02, 0x01
   087A F8 0D               696 	.db	-8,0x0D
   087C 02                  697 	.db	2
   087D 01 02               698 	.db	0x01, 0x02
   087F 00                  699 	.db	0
                            700 ;	game.c 25
                            701 ;	game.c 1343
                            702 ;	genArrayInit
                            703 ; _saveRegsForCall: sendSetSize: 0 deInUse: 0 bcInUse: 0 deSending: 0
   0880 21 60 0F            704 	ld	hl,#_MapTest
   0883 CD 00 00            705 	call	__initrleblock
   0886 04                  706 	.db	4
   0887 00 00 00 00         707 	.db	0x00, 0x00, 0x00, 0x00
   088B F8 15               708 	.db	-8,0x15
   088D 26                  709 	.db	38
   088E 1A 1A 00 00 00 15   710 	.db	0x1A, 0x1A, 0x00, 0x00, 0x00, 0x15, 0x15, 0x15
        15 15
   0896 6E 00 00 00 47 4A   711 	.db	0x6E, 0x00, 0x00, 0x00, 0x47, 0x4A, 0x59, 0x46
        59 46
   089E 00 5F 00 00 00 00   712 	.db	0x00, 0x5F, 0x00, 0x00, 0x00, 0x00, 0x6E, 0x00
        6E 00
   08A6 00 15 19 15 15 00   713 	.db	0x00, 0x15, 0x19, 0x15, 0x15, 0x00, 0x19, 0x19
        19 19
   08AE 15 15 15 17 17 17   714 	.db	0x15, 0x15, 0x15, 0x17, 0x17, 0x17
   08B4 F9 00               715 	.db	-7,0x00
   08B6 46                  716 	.db	70
   08B7 15 15 15 15 2D 0D   717 	.db	0x15, 0x15, 0x15, 0x15, 0x2D, 0x0D, 0x0D, 0x0D
        0D 0D
   08BF 0D 00 00 00 4B 46   718 	.db	0x0D, 0x00, 0x00, 0x00, 0x4B, 0x46, 0x58, 0x4A
        58 4A
   08C7 00 5F 00 62 00 65   719 	.db	0x00, 0x5F, 0x00, 0x62, 0x00, 0x65, 0x00, 0x15
        00 15
   08CF 2D 0D 0D 0D 0D 2D   720 	.db	0x2D, 0x0D, 0x0D, 0x0D, 0x0D, 0x2D, 0x00, 0x00
        00 00
   08D7 4B 46 58 4A 00 60   721 	.db	0x4B, 0x46, 0x58, 0x4A, 0x00, 0x60, 0x00, 0x62
        00 62
   08DF 00 66 00 00 2D 0D   722 	.db	0x00, 0x66, 0x00, 0x00, 0x2D, 0x0D, 0x0E, 0x0E
        0E 0E
   08E7 0E 00 00 00 4B 46   723 	.db	0x0E, 0x00, 0x00, 0x00, 0x4B, 0x46, 0x58, 0x4A
        58 4A
   08EF 00 5C 00 62 00 67   724 	.db	0x00, 0x5C, 0x00, 0x62, 0x00, 0x67, 0x00, 0x00
        00 00
   08F7 2D 0D 0D 0E 0E 2D   725 	.db	0x2D, 0x0D, 0x0D, 0x0E, 0x0E, 0x2D
   08FD F5 00               726 	.db	-11,0x00
   08FF 0A                  727 	.db	10
   0900 68 00 00 2D 0D 0D   728 	.db	0x68, 0x00, 0x00, 0x2D, 0x0D, 0x0D, 0x0D, 0x0D
        0D 0D
   0908 12 2D               729 	.db	0x12, 0x2D
   090A FB 00               730 	.db	-5,0x00
   090C 2D                  731 	.db	45
   090D 15 00 00 00 00 69   732 	.db	0x15, 0x00, 0x00, 0x00, 0x00, 0x69, 0x00, 0x46
        00 46
   0915 62 55 54 49 4A 57   733 	.db	0x62, 0x55, 0x54, 0x49, 0x4A, 0x57, 0x00, 0x49
        00 49
   091D 54 00 00 15 19 15   734 	.db	0x54, 0x00, 0x00, 0x15, 0x19, 0x15, 0x00, 0x00
        00 00
   0925 00 6A 00 00 00 55   735 	.db	0x00, 0x6A, 0x00, 0x00, 0x00, 0x55, 0x4A, 0x57
        4A 57
   092D 58 54 53 46 4C 4A   736 	.db	0x58, 0x54, 0x53, 0x46, 0x4C, 0x4A, 0x52, 0x00
        52 00
   0935 15 00 00 00 2E      737 	.db	0x15, 0x00, 0x00, 0x00, 0x2E
   093A EF 00               738 	.db	-17,0x00
   093C 0C                  739 	.db	12
   093D 2D 00 00 00 00 47   740 	.db	0x2D, 0x00, 0x00, 0x00, 0x00, 0x47, 0x62, 0x59
        62 59
   0945 57 54 48 46         741 	.db	0x57, 0x54, 0x48, 0x46
   0949 F8 00               742 	.db	-8,0x00
   094B 18                  743 	.db	24
   094C 2D 00 0B 0B 00 00   744 	.db	0x2D, 0x00, 0x0B, 0x0B, 0x00, 0x00, 0x00, 0x55
        00 55
   0954 4A 57 58 54 53 46   745 	.db	0x4A, 0x57, 0x58, 0x54, 0x53, 0x46, 0x4C, 0x4A
        4C 4A
   095C 52 00 00 00 2D 00   746 	.db	0x52, 0x00, 0x00, 0x00, 0x2D, 0x00, 0x0C, 0x0C
        0C 0C
   0964 F0 00               747 	.db	-16,0x00
   0966 0B                  748 	.db	11
   0967 2D 00 0D 0D 00 32   749 	.db	0x2D, 0x00, 0x0D, 0x0D, 0x00, 0x32, 0x62, 0x55
        62 55
   096F 5A 51 46            750 	.db	0x5A, 0x51, 0x46
   0972 F7 00               751 	.db	-9,0x00
   0974 0E                  752 	.db	14
   0975 2D 00 0E 0E 00 33   753 	.db	0x2D, 0x00, 0x0E, 0x0E, 0x00, 0x33, 0x62, 0x4A
        62 4A
   097D 52 55 5A 57 57 46   754 	.db	0x52, 0x55, 0x5A, 0x57, 0x57, 0x46
   0983 FA 00               755 	.db	-6,0x00
   0985 0D                  756 	.db	13
   0986 2D 00 29 29 15 15   757 	.db	0x2D, 0x00, 0x29, 0x29, 0x15, 0x15, 0x00, 0x47
        00 47
   098E 51 54 48 54 58      758 	.db	0x51, 0x54, 0x48, 0x54, 0x58
   0993 F5 00               759 	.db	-11,0x00
   0995 04                  760 	.db	4
   0996 15 15 15 15         761 	.db	0x15, 0x15, 0x15, 0x15
   099A F2 00               762 	.db	-14,0x00
   099C 03                  763 	.db	3
   099D 15 15 15            764 	.db	0x15, 0x15, 0x15
   09A0 00                  765 	.db	0
                            766 ;	game.c 26
                            767 ;	game.c 1343
                            768 ;	genArrayInit
                            769 ; _saveRegsForCall: sendSetSize: 0 deInUse: 0 bcInUse: 0 deSending: 0
   09A1 21 C8 10            770 	ld	hl,#_sprites_park
   09A4 CD 00 00            771 	call	__initrleblock
   09A7 EC 00               772 	.db	-20,0x00
   09A9 09                  773 	.db	9
   09AA 10 00 00 00 02 00   774 	.db	0x10, 0x00, 0x00, 0x00, 0x02, 0x00, 0x00, 0x00
        00 00
   09B2 20                  775 	.db	0x20
   09B3 F7 00               776 	.db	-9,0x00
   09B5 01                  777 	.db	1
   09B6 10                  778 	.db	0x10
   09B7 F7 00               779 	.db	-9,0x00
   09B9 21                  780 	.db	33
   09BA 94 08 00 00 42 00   781 	.db	0x94, 0x08, 0x00, 0x00, 0x42, 0x00, 0x00, 0x08
        00 08
   09C2 00 80 25 00 50 00   782 	.db	0x00, 0x80, 0x25, 0x00, 0x50, 0x00, 0x02, 0x40
        02 40
   09CA 00 00 90 00 00 00   783 	.db	0x00, 0x00, 0x90, 0x00, 0x00, 0x00, 0x84, 0x00
        84 00
   09D2 80 00 00 10 80 00   784 	.db	0x80, 0x00, 0x00, 0x10, 0x80, 0x00, 0x00, 0x00
        00 00
   09DA 5A                  785 	.db	0x5A
   09DB FB 00               786 	.db	-5,0x00
   09DD 05                  787 	.db	5
   09DE 02 20 00 00 08      788 	.db	0x02, 0x20, 0x00, 0x00, 0x08
   09E3 F9 00               789 	.db	-7,0x00
   09E5 0B                  790 	.db	11
   09E6 01 00 00 08 01 00   791 	.db	0x01, 0x00, 0x00, 0x08, 0x01, 0x00, 0x21, 0x00
        21 00
   09EE 00 00 09            792 	.db	0x00, 0x00, 0x09
   09F1 F9 00               793 	.db	-7,0x00
   09F3 4C                  794 	.db	76
   09F4 10 08 00 00 40 04   795 	.db	0x10, 0x08, 0x00, 0x00, 0x40, 0x04, 0x00, 0x00
        00 00
   09FC 00 00 5A 00 7F 00   796 	.db	0x00, 0x00, 0x5A, 0x00, 0x7F, 0x00, 0x80, 0x00
        80 00
   0A04 80 00 80 00 80 00   797 	.db	0x80, 0x00, 0x80, 0x00, 0x80, 0x00, 0x80, 0x00
        80 00
   0A0C 80 00 80 00 7E 00   798 	.db	0x80, 0x00, 0x80, 0x00, 0x7E, 0x00, 0x81, 0x00
        81 00
   0A14 81 00 81 00 81 00   799 	.db	0x81, 0x00, 0x81, 0x00, 0x81, 0x00, 0x81, 0x00
        81 00
   0A1C 81 00 7E 00 00 00   800 	.db	0x81, 0x00, 0x7E, 0x00, 0x00, 0x00, 0x20, 0x00
        20 00
   0A24 50 00 20 00 00 00   801 	.db	0x50, 0x00, 0x20, 0x00, 0x00, 0x00, 0x04, 0x00
        04 00
   0A2C 0A 00 04 00 FF 00   802 	.db	0x0A, 0x00, 0x04, 0x00, 0xFF, 0x00, 0xDD, 0x00
        DD 00
   0A34 AA 00 FF 00 FF 00   803 	.db	0xAA, 0x00, 0xFF, 0x00, 0xFF, 0x00, 0xBB, 0x00
        BB 00
   0A3C 55 00 FF 00         804 	.db	0x55, 0x00, 0xFF, 0x00
   0A40 EF FF               805 	.db	-17,0xFF
   0A42 7F                  806 	.db	127
   0A43 00 DD 00 BB 00 F7   807 	.db	0x00, 0xDD, 0x00, 0xBB, 0x00, 0xF7, 0x00, 0xFF
        00 FF
   0A4B 00 EE 00 DD 00 FF   808 	.db	0x00, 0xEE, 0x00, 0xDD, 0x00, 0xFF, 0x00, 0xDF
        00 DF
   0A53 20 CD 10 99 22 EA   809 	.db	0x20, 0xCD, 0x10, 0x99, 0x22, 0xEA, 0x15, 0x47
        15 47
   0A5B B8 B6 48 CD 10 F7   810 	.db	0xB8, 0xB6, 0x48, 0xCD, 0x10, 0xF7, 0x08, 0xFF
        08 FF
   0A63 7E F3 8D C1 BF C1   811 	.db	0x7E, 0xF3, 0x8D, 0xC1, 0xBF, 0xC1, 0xBF, 0x81
        BF 81
   0A6B FF 81 FF 81 FF FF   812 	.db	0xFF, 0x81, 0xFF, 0x81, 0xFF, 0xFF, 0x7E, 0xFF
        7E FF
   0A73 7E F3 8D C1 BF C1   813 	.db	0x7E, 0xF3, 0x8D, 0xC1, 0xBF, 0xC1, 0xBF, 0x81
        BF 81
   0A7B FF 81 FF 81 FF FF   814 	.db	0xFF, 0x81, 0xFF, 0x81, 0xFF, 0xFF, 0x7E, 0xDD
        7E DD
   0A83 22 ED 14 79 AA BA   815 	.db	0x22, 0xED, 0x14, 0x79, 0xAA, 0xBA, 0x5D, 0x7F
        5D 7F
   0A8B B8 FD 4A AF 54 77   816 	.db	0xB8, 0xFD, 0x4A, 0xAF, 0x54, 0x77, 0x88, 0x04
        88 04
   0A93 20 80 10 00 22 00   817 	.db	0x20, 0x80, 0x10, 0x00, 0x22, 0x00, 0x15, 0x00
        15 00
   0A9B B8 02 48 00 10 40   818 	.db	0xB8, 0x02, 0x48, 0x00, 0x10, 0x40, 0x08, 0x00
        08 00
   0AA3 22 04 14 28 AA 18   819 	.db	0x22, 0x04, 0x14, 0x28, 0xAA, 0x18, 0x5D, 0x38
        5D 38
   0AAB B8 48 4A 04 54 00   820 	.db	0xB8, 0x48, 0x4A, 0x04, 0x54, 0x00, 0x88, 0x00
        88 00
   0AB3 00 42 00 24 00 18   821 	.db	0x00, 0x42, 0x00, 0x24, 0x00, 0x18, 0x00, 0x18
        00 18
   0ABB 00 24 00 42 00 00   822 	.db	0x00, 0x24, 0x00, 0x42, 0x00, 0x00, 0x00
        00
   0AC2 7D                  823 	.db	125
   0AC3 3C 00 6E 10 FF 00   824 	.db	0x3C, 0x00, 0x6E, 0x10, 0xFF, 0x00, 0xBF, 0x40
        BF 40
   0ACB DD 22 76 08 00 3C   825 	.db	0xDD, 0x22, 0x76, 0x08, 0x00, 0x3C, 0x00, 0x3C
        00 3C
   0AD3 7E 81 80 7F 80 7F   826 	.db	0x7E, 0x81, 0x80, 0x7F, 0x80, 0x7F, 0x80, 0x7F
        80 7F
   0ADB 80 7F 80 7F 80 7F   827 	.db	0x80, 0x7F, 0x80, 0x7F, 0x80, 0x7F, 0x00, 0xFF
        00 FF
   0AE3 3C 00 7E 00 DF 20   828 	.db	0x3C, 0x00, 0x7E, 0x00, 0xDF, 0x20, 0xFF, 0x00
        FF 00
   0AEB F3 0C 7E 00 18 24   829 	.db	0xF3, 0x0C, 0x7E, 0x00, 0x18, 0x24, 0x00, 0x3C
        00 3C
   0AF3 00 00 42 00 24 00   830 	.db	0x00, 0x00, 0x42, 0x00, 0x24, 0x00, 0x18, 0x00
        18 00
   0AFB 18 00 24 00 42 00   831 	.db	0x18, 0x00, 0x24, 0x00, 0x42, 0x00, 0x00, 0x00
        00 00
   0B03 18 00 28 10 6C 10   832 	.db	0x18, 0x00, 0x28, 0x10, 0x6C, 0x10, 0x56, 0x28
        56 28
   0B0B 5A 24 5A 24 66 18   833 	.db	0x5A, 0x24, 0x5A, 0x24, 0x66, 0x18, 0x3C, 0x00
        3C 00
   0B13 00 00 10 00 28 10   834 	.db	0x00, 0x00, 0x10, 0x00, 0x28, 0x10, 0x2C, 0x10
        2C 10
   0B1B 56 28 5A 24 66 18   835 	.db	0x56, 0x28, 0x5A, 0x24, 0x66, 0x18, 0x3C, 0x00
        3C 00
   0B23 2C 10 54 38 D6 38   836 	.db	0x2C, 0x10, 0x54, 0x38, 0xD6, 0x38, 0xAB, 0x7C
        AB 7C
   0B2B A5 7E A5 7E DB 3C   837 	.db	0xA5, 0x7E, 0xA5, 0x7E, 0xDB, 0x3C, 0x66, 0x18
        66 18
   0B33 00 00 42 00 24 00   838 	.db	0x00, 0x00, 0x42, 0x00, 0x24, 0x00, 0x18, 0x00
        18 00
   0B3B 18 00 24 00 42      839 	.db	0x18, 0x00, 0x24, 0x00, 0x42
   0B40 FB 00               840 	.db	-5,0x00
   0B42 0B                  841 	.db	11
   0B43 42 00 24 00 18 00   842 	.db	0x42, 0x00, 0x24, 0x00, 0x18, 0x00, 0x18, 0x00
        18 00
   0B4B 24 00 42            843 	.db	0x24, 0x00, 0x42
   0B4E FB 00               844 	.db	-5,0x00
   0B50 0B                  845 	.db	11
   0B51 42 00 24 00 18 00   846 	.db	0x42, 0x00, 0x24, 0x00, 0x18, 0x00, 0x18, 0x00
        18 00
   0B59 24 00 42            847 	.db	0x24, 0x00, 0x42
   0B5C FB 00               848 	.db	-5,0x00
   0B5E 0B                  849 	.db	11
   0B5F 42 00 24 00 18 00   850 	.db	0x42, 0x00, 0x24, 0x00, 0x18, 0x00, 0x18, 0x00
        18 00
   0B67 24 00 42            851 	.db	0x24, 0x00, 0x42
   0B6A FB 00               852 	.db	-5,0x00
   0B6C 0B                  853 	.db	11
   0B6D 42 00 24 00 18 00   854 	.db	0x42, 0x00, 0x24, 0x00, 0x18, 0x00, 0x18, 0x00
        18 00
   0B75 24 00 42            855 	.db	0x24, 0x00, 0x42
   0B78 EB 00               856 	.db	-21,0x00
   0B7A 0B                  857 	.db	11
   0B7B 42 00 24 00 18 00   858 	.db	0x42, 0x00, 0x24, 0x00, 0x18, 0x00, 0x18, 0x00
        18 00
   0B83 24 00 42            859 	.db	0x24, 0x00, 0x42
   0B86 FB 00               860 	.db	-5,0x00
   0B88 0B                  861 	.db	11
   0B89 42 00 24 00 18 00   862 	.db	0x42, 0x00, 0x24, 0x00, 0x18, 0x00, 0x18, 0x00
        18 00
   0B91 24 00 42            863 	.db	0x24, 0x00, 0x42
   0B94 FB 00               864 	.db	-5,0x00
   0B96 0B                  865 	.db	11
   0B97 42 00 24 00 18 00   866 	.db	0x42, 0x00, 0x24, 0x00, 0x18, 0x00, 0x18, 0x00
        18 00
   0B9F 24 00 42            867 	.db	0x24, 0x00, 0x42
   0BA2 FB 00               868 	.db	-5,0x00
   0BA4 0B                  869 	.db	11
   0BA5 42 00 24 00 18 00   870 	.db	0x42, 0x00, 0x24, 0x00, 0x18, 0x00, 0x18, 0x00
        18 00
   0BAD 24 00 42            871 	.db	0x24, 0x00, 0x42
   0BB0 FB 00               872 	.db	-5,0x00
   0BB2 0B                  873 	.db	11
   0BB3 42 00 24 00 18 00   874 	.db	0x42, 0x00, 0x24, 0x00, 0x18, 0x00, 0x18, 0x00
        18 00
   0BBB 24 00 42            875 	.db	0x24, 0x00, 0x42
   0BBE FB 00               876 	.db	-5,0x00
   0BC0 0B                  877 	.db	11
   0BC1 42 00 24 00 18 00   878 	.db	0x42, 0x00, 0x24, 0x00, 0x18, 0x00, 0x18, 0x00
        18 00
   0BC9 24 00 42            879 	.db	0x24, 0x00, 0x42
   0BCC FB 00               880 	.db	-5,0x00
   0BCE 7F                  881 	.db	127
   0BCF 42 00 24 00 18 00   882 	.db	0x42, 0x00, 0x24, 0x00, 0x18, 0x00, 0x18, 0x00
        18 00
   0BD7 24 00 42 00 00 00   883 	.db	0x24, 0x00, 0x42, 0x00, 0x00, 0x00, 0x7E, 0xFF
        7E FF
   0BDF C7 C7 BB BB BB BB   884 	.db	0xC7, 0xC7, 0xBB, 0xBB, 0xBB, 0xBB, 0xD7, 0xD7
        D7 D7
   0BE7 D7 D7 DB DB 42 C3   885 	.db	0xD7, 0xD7, 0xDB, 0xDB, 0x42, 0xC3, 0xFF, 0x00
        FF 00
   0BEF FF 00 C7 00 C7 00   886 	.db	0xFF, 0x00, 0xC7, 0x00, 0xC7, 0x00, 0xEF, 0x00
        EF 00
   0BF7 EF 00 E7 00 FF 00   887 	.db	0xEF, 0x00, 0xE7, 0x00, 0xFF, 0x00, 0x3C, 0x00
        3C 00
   0BFF 76 00 FF 00 BF 00   888 	.db	0x76, 0x00, 0xFF, 0x00, 0xBF, 0x00, 0xFB, 0x00
        FB 00
   0C07 7E 00 00 3C 00 3C   889 	.db	0x7E, 0x00, 0x00, 0x3C, 0x00, 0x3C, 0x3C, 0x3C
        3C 3C
   0C0F 42 7E 81 FF 81 FF   890 	.db	0x42, 0x7E, 0x81, 0xFF, 0x81, 0xFF, 0xA1, 0xFF
        A1 FF
   0C17 81 FF 81 FF 81 FF   891 	.db	0x81, 0xFF, 0x81, 0xFF, 0x81, 0xFF, 0x7E, 0x7E
        7E 7E
   0C1F F3 8D C1 BF C1 BF   892 	.db	0xF3, 0x8D, 0xC1, 0xBF, 0xC1, 0xBF, 0x81, 0xFF
        81 FF
   0C27 81 FF 81 FF 7E 7E   893 	.db	0x81, 0xFF, 0x81, 0xFF, 0x7E, 0x7E, 0x00, 0x00
        00 00
   0C2F 04 02 01 09 09 F9   894 	.db	0x04, 0x02, 0x01, 0x09, 0x09, 0xF9, 0xA9, 0xA9
        A9 A9
   0C37 06 06 00 00 00 00   895 	.db	0x06, 0x06, 0x00, 0x00, 0x00, 0x00, 0x55, 0x00
        55 00
   0C3F AA 00 55 00 AA 00   896 	.db	0xAA, 0x00, 0x55, 0x00, 0xAA, 0x00, 0x55, 0x00
        55 00
   0C47 AA 00 55 00 AA 00   897 	.db	0xAA, 0x00, 0x55, 0x00, 0xAA, 0x00, 0x55
        55
   0C4E 6C                  898 	.db	108
   0C4F AA AA 55 55 AA AA   899 	.db	0xAA, 0xAA, 0x55, 0x55, 0xAA, 0xAA, 0x55, 0x55
        55 55
   0C57 AA AA 55 55 AA AA   900 	.db	0xAA, 0xAA, 0x55, 0x55, 0xAA, 0xAA, 0x55, 0x28
        55 28
   0C5F 00 40 14 A8 2A 15   901 	.db	0x00, 0x40, 0x14, 0xA8, 0x2A, 0x15, 0x54, 0xA8
        54 A8
   0C67 2A 15 54 02 28 14   902 	.db	0x2A, 0x15, 0x54, 0x02, 0x28, 0x14, 0x00, 0x09
        00 09
   0C6F 00 00 09 00 09 0F   903 	.db	0x00, 0x00, 0x09, 0x00, 0x09, 0x0F, 0x00, 0xCA
        00 CA
   0C77 05 FF 00 3F 00 00   904 	.db	0x05, 0xFF, 0x00, 0x3F, 0x00, 0x00, 0x45, 0x00
        45 00
   0C7F 13 00 1E 0A 9E 00   905 	.db	0x13, 0x00, 0x1E, 0x0A, 0x9E, 0x00, 0x9F, 0x02
        9F 02
   0C87 FF 00 FF 00 7E 00   906 	.db	0xFF, 0x00, 0xFF, 0x00, 0x7E, 0x00, 0x4A, 0x94
        4A 94
   0C8F 00 9C 00 9E 0A FF   907 	.db	0x00, 0x9C, 0x00, 0x9E, 0x0A, 0xFF, 0x01, 0xFE
        01 FE
   0C97 00 7C 00 4A 00 49   908 	.db	0x00, 0x7C, 0x00, 0x4A, 0x00, 0x49, 0x00, 0x89
        00 89
   0C9F 89 4F 4F 4F 4A 8F   909 	.db	0x89, 0x4F, 0x4F, 0x4F, 0x4A, 0x8F, 0x8F, 0x9F
        8F 9F
   0CA7 9F 7F 7F 7F 7F 45   910 	.db	0x9F, 0x7F, 0x7F, 0x7F, 0x7F, 0x45, 0x45, 0x00
        45 00
   0CAF 00 42 00 24 00 18   911 	.db	0x00, 0x42, 0x00, 0x24, 0x00, 0x18, 0x00, 0x18
        00 18
   0CB7 00 24 00 42         912 	.db	0x00, 0x24, 0x00, 0x42
   0CBB FB 00               913 	.db	-5,0x00
   0CBD 0B                  914 	.db	11
   0CBE 42 00 24 00 18 00   915 	.db	0x42, 0x00, 0x24, 0x00, 0x18, 0x00, 0x18, 0x00
        18 00
   0CC6 24 00 42            916 	.db	0x24, 0x00, 0x42
   0CC9 FB 00               917 	.db	-5,0x00
   0CCB 0B                  918 	.db	11
   0CCC 42 00 24 00 18 00   919 	.db	0x42, 0x00, 0x24, 0x00, 0x18, 0x00, 0x18, 0x00
        18 00
   0CD4 24 00 42            920 	.db	0x24, 0x00, 0x42
   0CD7 FB 00               921 	.db	-5,0x00
   0CD9 0B                  922 	.db	11
   0CDA 42 00 24 00 18 00   923 	.db	0x42, 0x00, 0x24, 0x00, 0x18, 0x00, 0x18, 0x00
        18 00
   0CE2 24 00 42            924 	.db	0x24, 0x00, 0x42
   0CE5 FB 00               925 	.db	-5,0x00
   0CE7 0B                  926 	.db	11
   0CE8 42 00 24 00 18 00   927 	.db	0x42, 0x00, 0x24, 0x00, 0x18, 0x00, 0x18, 0x00
        18 00
   0CF0 24 00 42            928 	.db	0x24, 0x00, 0x42
   0CF3 FB 00               929 	.db	-5,0x00
   0CF5 0B                  930 	.db	11
   0CF6 42 00 24 00 18 00   931 	.db	0x42, 0x00, 0x24, 0x00, 0x18, 0x00, 0x18, 0x00
        18 00
   0CFE 24 00 42            932 	.db	0x24, 0x00, 0x42
   0D01 FB 00               933 	.db	-5,0x00
   0D03 0B                  934 	.db	11
   0D04 42 00 24 00 18 00   935 	.db	0x42, 0x00, 0x24, 0x00, 0x18, 0x00, 0x18, 0x00
        18 00
   0D0C 24 00 42            936 	.db	0x24, 0x00, 0x42
   0D0F FB 00               937 	.db	-5,0x00
   0D11 0B                  938 	.db	11
   0D12 42 00 24 00 18 00   939 	.db	0x42, 0x00, 0x24, 0x00, 0x18, 0x00, 0x18, 0x00
        18 00
   0D1A 24 00 42            940 	.db	0x24, 0x00, 0x42
   0D1D FB 00               941 	.db	-5,0x00
   0D1F 0B                  942 	.db	11
   0D20 42 00 24 00 18 00   943 	.db	0x42, 0x00, 0x24, 0x00, 0x18, 0x00, 0x18, 0x00
        18 00
   0D28 24 00 42            944 	.db	0x24, 0x00, 0x42
   0D2B FB 00               945 	.db	-5,0x00
   0D2D 0B                  946 	.db	11
   0D2E 42 00 24 00 18 00   947 	.db	0x42, 0x00, 0x24, 0x00, 0x18, 0x00, 0x18, 0x00
        18 00
   0D36 24 00 42            948 	.db	0x24, 0x00, 0x42
   0D39 EB 00               949 	.db	-21,0x00
   0D3B 0B                  950 	.db	11
   0D3C 42 00 24 00 18 00   951 	.db	0x42, 0x00, 0x24, 0x00, 0x18, 0x00, 0x18, 0x00
        18 00
   0D44 24 00 42            952 	.db	0x24, 0x00, 0x42
   0D47 FB 00               953 	.db	-5,0x00
   0D49 0B                  954 	.db	11
   0D4A 42 00 24 00 18 00   955 	.db	0x42, 0x00, 0x24, 0x00, 0x18, 0x00, 0x18, 0x00
        18 00
   0D52 24 00 42            956 	.db	0x24, 0x00, 0x42
   0D55 FB 00               957 	.db	-5,0x00
   0D57 0B                  958 	.db	11
   0D58 42 00 24 00 18 00   959 	.db	0x42, 0x00, 0x24, 0x00, 0x18, 0x00, 0x18, 0x00
        18 00
   0D60 24 00 42            960 	.db	0x24, 0x00, 0x42
   0D63 FB 00               961 	.db	-5,0x00
   0D65 0B                  962 	.db	11
   0D66 42 00 24 00 18 00   963 	.db	0x42, 0x00, 0x24, 0x00, 0x18, 0x00, 0x18, 0x00
        18 00
   0D6E 24 00 42            964 	.db	0x24, 0x00, 0x42
   0D71 FB 00               965 	.db	-5,0x00
   0D73 0B                  966 	.db	11
   0D74 42 00 24 00 18 00   967 	.db	0x42, 0x00, 0x24, 0x00, 0x18, 0x00, 0x18, 0x00
        18 00
   0D7C 24 00 42            968 	.db	0x24, 0x00, 0x42
   0D7F FA 00               969 	.db	-6,0x00
   0D81 7F                  970 	.db	127
   0D82 38 00 44 00 44 00   971 	.db	0x38, 0x00, 0x44, 0x00, 0x44, 0x00, 0x7C, 0x00
        7C 00
   0D8A 44 00 44 00 44 00   972 	.db	0x44, 0x00, 0x44, 0x00, 0x44, 0x00, 0x00, 0x00
        00 00
   0D92 78 00 44 00 44 00   973 	.db	0x78, 0x00, 0x44, 0x00, 0x44, 0x00, 0x78, 0x00
        78 00
   0D9A 44 00 44 00 78 00   974 	.db	0x44, 0x00, 0x44, 0x00, 0x78, 0x00, 0x00, 0x00
        00 00
   0DA2 1C 00 20 00 40 00   975 	.db	0x1C, 0x00, 0x20, 0x00, 0x40, 0x00, 0x40, 0x00
        40 00
   0DAA 40 00 20 00 1C 00   976 	.db	0x40, 0x00, 0x20, 0x00, 0x1C, 0x00, 0x00, 0x00
        00 00
   0DB2 78 00 44 00 44 00   977 	.db	0x78, 0x00, 0x44, 0x00, 0x44, 0x00, 0x44, 0x00
        44 00
   0DBA 44 00 44 00 78 00   978 	.db	0x44, 0x00, 0x44, 0x00, 0x78, 0x00, 0x00, 0x00
        00 00
   0DC2 7C 00 40 00 40 00   979 	.db	0x7C, 0x00, 0x40, 0x00, 0x40, 0x00, 0x78, 0x00
        78 00
   0DCA 40 00 40 00 7C 00   980 	.db	0x40, 0x00, 0x40, 0x00, 0x7C, 0x00, 0x00, 0x00
        00 00
   0DD2 7C 00 40 00 40 00   981 	.db	0x7C, 0x00, 0x40, 0x00, 0x40, 0x00, 0x78, 0x00
        78 00
   0DDA 40 00 40 00 40 00   982 	.db	0x40, 0x00, 0x40, 0x00, 0x40, 0x00, 0x00, 0x00
        00 00
   0DE2 18 00 20 00 40 00   983 	.db	0x18, 0x00, 0x20, 0x00, 0x40, 0x00, 0x4E, 0x00
        4E 00
   0DEA 42 00 24 00 18 00   984 	.db	0x42, 0x00, 0x24, 0x00, 0x18, 0x00, 0x00, 0x00
        00 00
   0DF2 44 00 44 00 44 00   985 	.db	0x44, 0x00, 0x44, 0x00, 0x44, 0x00, 0x7C, 0x00
        7C 00
   0DFA 44 00 44 00 44 00   986 	.db	0x44, 0x00, 0x44, 0x00, 0x44, 0x00, 0x00
        00
   0E01 7F                  987 	.db	127
   0E02 00 10 00 00 00 10   988 	.db	0x00, 0x10, 0x00, 0x00, 0x00, 0x10, 0x00, 0x10
        00 10
   0E0A 00 10 00 10 00 10   989 	.db	0x00, 0x10, 0x00, 0x10, 0x00, 0x10, 0x00, 0x00
        00 00
   0E12 00 3E 00 08 00 08   990 	.db	0x00, 0x3E, 0x00, 0x08, 0x00, 0x08, 0x00, 0x08
        00 08
   0E1A 00 08 00 48 00 30   991 	.db	0x00, 0x08, 0x00, 0x48, 0x00, 0x30, 0x00, 0x00
        00 00
   0E22 00 44 00 48 00 50   992 	.db	0x00, 0x44, 0x00, 0x48, 0x00, 0x50, 0x00, 0x60
        00 60
   0E2A 00 50 00 48 00 44   993 	.db	0x00, 0x50, 0x00, 0x48, 0x00, 0x44, 0x00, 0x00
        00 00
   0E32 00 40 00 40 00 40   994 	.db	0x00, 0x40, 0x00, 0x40, 0x00, 0x40, 0x00, 0x40
        00 40
   0E3A 00 40 00 40 00 78   995 	.db	0x00, 0x40, 0x00, 0x40, 0x00, 0x78, 0x00, 0x00
        00 00
   0E42 00 44 00 6C 00 54   996 	.db	0x00, 0x44, 0x00, 0x6C, 0x00, 0x54, 0x00, 0x44
        00 44
   0E4A 00 44 00 44 00 44   997 	.db	0x00, 0x44, 0x00, 0x44, 0x00, 0x44, 0x00, 0x00
        00 00
   0E52 00 44 00 64 00 64   998 	.db	0x00, 0x44, 0x00, 0x64, 0x00, 0x64, 0x00, 0x54
        00 54
   0E5A 00 54 00 4C 00 4C   999 	.db	0x00, 0x54, 0x00, 0x4C, 0x00, 0x4C, 0x00, 0x00
        00 00
   0E62 00 38 00 44 00 44  1000 	.db	0x00, 0x38, 0x00, 0x44, 0x00, 0x44, 0x00, 0x44
        00 44
   0E6A 00 44 00 44 00 38  1001 	.db	0x00, 0x44, 0x00, 0x44, 0x00, 0x38, 0x00, 0x00
        00 00
   0E72 00 78 00 44 00 44  1002 	.db	0x00, 0x78, 0x00, 0x44, 0x00, 0x44, 0x00, 0x78
        00 78
   0E7A 00 40 00 40 00 40  1003 	.db	0x00, 0x40, 0x00, 0x40, 0x00, 0x40, 0x00
        00
   0E81 7F                 1004 	.db	127
   0E82 00 00 38 00 44 00  1005 	.db	0x00, 0x00, 0x38, 0x00, 0x44, 0x00, 0x44, 0x00
        44 00
   0E8A 44 00 54 00 38 00  1006 	.db	0x44, 0x00, 0x54, 0x00, 0x38, 0x00, 0x08, 0x00
        08 00
   0E92 00 00 78 00 44 00  1007 	.db	0x00, 0x00, 0x78, 0x00, 0x44, 0x00, 0x44, 0x00
        44 00
   0E9A 78 00 50 00 48 00  1008 	.db	0x78, 0x00, 0x50, 0x00, 0x48, 0x00, 0x44, 0x00
        44 00
   0EA2 00 00 38 00 40 00  1009 	.db	0x00, 0x00, 0x38, 0x00, 0x40, 0x00, 0x40, 0x00
        40 00
   0EAA 38 00 04 00 04 00  1010 	.db	0x38, 0x00, 0x04, 0x00, 0x04, 0x00, 0x38, 0x00
        38 00
   0EB2 00 00 7C 00 10 00  1011 	.db	0x00, 0x00, 0x7C, 0x00, 0x10, 0x00, 0x10, 0x00
        10 00
   0EBA 10 00 10 00 10 00  1012 	.db	0x10, 0x00, 0x10, 0x00, 0x10, 0x00, 0x10, 0x00
        10 00
   0EC2 00 00 44 00 44 00  1013 	.db	0x00, 0x00, 0x44, 0x00, 0x44, 0x00, 0x44, 0x00
        44 00
   0ECA 44 00 44 00 44 00  1014 	.db	0x44, 0x00, 0x44, 0x00, 0x44, 0x00, 0x38, 0x00
        38 00
   0ED2 00 00 41 00 41 00  1015 	.db	0x00, 0x00, 0x41, 0x00, 0x41, 0x00, 0x41, 0x00
        41 00
   0EDA 49 00 2A 00 2A 00  1016 	.db	0x49, 0x00, 0x2A, 0x00, 0x2A, 0x00, 0x14, 0x00
        14 00
   0EE2 00 00 44 00 44 00  1017 	.db	0x00, 0x00, 0x44, 0x00, 0x44, 0x00, 0x28, 0x00
        28 00
   0EEA 10 00 28 00 44 00  1018 	.db	0x10, 0x00, 0x28, 0x00, 0x44, 0x00, 0x44, 0x00
        44 00
   0EF2 00 00 44 00 28 00  1019 	.db	0x00, 0x00, 0x44, 0x00, 0x28, 0x00, 0x10, 0x00
        10 00
   0EFA 10 00 10 00 10 00  1020 	.db	0x10, 0x00, 0x10, 0x00, 0x10, 0x00, 0x10
        10
   0F01 7F                 1021 	.db	127
   0F02 00 00 00 7C 00 04  1022 	.db	0x00, 0x00, 0x00, 0x7C, 0x00, 0x04, 0x00, 0x08
        00 08
   0F0A 00 10 00 20 00 40  1023 	.db	0x00, 0x10, 0x00, 0x20, 0x00, 0x40, 0x00, 0x7C
        00 7C
   0F12 00 08 00 18 00 28  1024 	.db	0x00, 0x08, 0x00, 0x18, 0x00, 0x28, 0x00, 0x08
        00 08
   0F1A 00 08 00 08 00 08  1025 	.db	0x00, 0x08, 0x00, 0x08, 0x00, 0x08, 0x00, 0x3E
        00 3E
   0F22 00 00 00 38 00 44  1026 	.db	0x00, 0x00, 0x00, 0x38, 0x00, 0x44, 0x00, 0x04
        00 04
   0F2A 00 08 00 10 00 20  1027 	.db	0x00, 0x08, 0x00, 0x10, 0x00, 0x20, 0x00, 0x7C
        00 7C
   0F32 00 00 00 70 00 08  1028 	.db	0x00, 0x00, 0x00, 0x70, 0x00, 0x08, 0x00, 0x08
        00 08
   0F3A 00 30 00 08 00 08  1029 	.db	0x00, 0x30, 0x00, 0x08, 0x00, 0x08, 0x00, 0x70
        00 70
   0F42 00 00 00 10 00 08  1030 	.db	0x00, 0x00, 0x00, 0x10, 0x00, 0x08, 0x00, 0x04
        00 04
   0F4A 00 7E 00 04 00 08  1031 	.db	0x00, 0x7E, 0x00, 0x04, 0x00, 0x08, 0x00, 0x10
        00 10
   0F52 00 00 00 44 00 44  1032 	.db	0x00, 0x00, 0x00, 0x44, 0x00, 0x44, 0x00, 0x28
        00 28
   0F5A 00 28 00 10 00 10  1033 	.db	0x00, 0x28, 0x00, 0x10, 0x00, 0x10, 0x00, 0x10
        00 10
   0F62 3C 3C 42 7E 81 FF  1034 	.db	0x3C, 0x3C, 0x42, 0x7E, 0x81, 0xFF, 0x81, 0xFF
        81 FF
   0F6A A1 FF 81 FF 81 FF  1035 	.db	0xA1, 0xFF, 0x81, 0xFF, 0x81, 0xFF, 0x81, 0xFF
        81 FF
   0F72 3C 3C 42 7E 81 FF  1036 	.db	0x3C, 0x3C, 0x42, 0x7E, 0x81, 0xFF, 0x81, 0xFF
        81 FF
   0F7A A1 FF 81 FF 81 FF  1037 	.db	0xA1, 0xFF, 0x81, 0xFF, 0x81, 0xFF, 0x81
        81
   0F81 7F                 1038 	.db	127
   0F82 FF 3C 3C 42 7E 81  1039 	.db	0xFF, 0x3C, 0x3C, 0x42, 0x7E, 0x81, 0xFF, 0x81
        FF 81
   0F8A FF A1 FF 81 FF 81  1040 	.db	0xFF, 0xA1, 0xFF, 0x81, 0xFF, 0x81, 0xFF, 0x81
        FF 81
   0F92 FF 3C 3C 42 7E 81  1041 	.db	0xFF, 0x3C, 0x3C, 0x42, 0x7E, 0x81, 0xFF, 0x81
        FF 81
   0F9A FF A1 FF 81 FF 81  1042 	.db	0xFF, 0xA1, 0xFF, 0x81, 0xFF, 0x81, 0xFF, 0x81
        FF 81
   0FA2 FF 3C 3C 42 7E 81  1043 	.db	0xFF, 0x3C, 0x3C, 0x42, 0x7E, 0x81, 0xFF, 0x81
        FF 81
   0FAA FF A1 FF 81 FF 81  1044 	.db	0xFF, 0xA1, 0xFF, 0x81, 0xFF, 0x81, 0xFF, 0x81
        FF 81
   0FB2 FF 3C 3C 42 7E 81  1045 	.db	0xFF, 0x3C, 0x3C, 0x42, 0x7E, 0x81, 0xFF, 0x81
        FF 81
   0FBA FF A1 FF 81 FF 81  1046 	.db	0xFF, 0xA1, 0xFF, 0x81, 0xFF, 0x81, 0xFF, 0x81
        FF 81
   0FC2 FF 3C 3C 42 7E 81  1047 	.db	0xFF, 0x3C, 0x3C, 0x42, 0x7E, 0x81, 0xFF, 0x81
        FF 81
   0FCA FF A1 FF 81 FF 81  1048 	.db	0xFF, 0xA1, 0xFF, 0x81, 0xFF, 0x81, 0xFF, 0x81
        FF 81
   0FD2 FF 3C 3C 42 7E 81  1049 	.db	0xFF, 0x3C, 0x3C, 0x42, 0x7E, 0x81, 0xFF, 0x81
        FF 81
   0FDA FF A1 FF 81 FF 81  1050 	.db	0xFF, 0xA1, 0xFF, 0x81, 0xFF, 0x81, 0xFF, 0x81
        FF 81
   0FE2 FF 3C 3C 42 7E 81  1051 	.db	0xFF, 0x3C, 0x3C, 0x42, 0x7E, 0x81, 0xFF, 0x81
        FF 81
   0FEA FF A1 FF 81 FF 81  1052 	.db	0xFF, 0xA1, 0xFF, 0x81, 0xFF, 0x81, 0xFF, 0x81
        FF 81
   0FF2 FF 3C 3C 42 7E 81  1053 	.db	0xFF, 0x3C, 0x3C, 0x42, 0x7E, 0x81, 0xFF, 0x81
        FF 81
   0FFA FF A1 FF 81 FF 81  1054 	.db	0xFF, 0xA1, 0xFF, 0x81, 0xFF, 0x81, 0xFF
        FF
   1001 7F                 1055 	.db	127
   1002 81 FF 3C 3C 42 7E  1056 	.db	0x81, 0xFF, 0x3C, 0x3C, 0x42, 0x7E, 0x81, 0xFF
        81 FF
   100A 81 FF A1 FF 81 FF  1057 	.db	0x81, 0xFF, 0xA1, 0xFF, 0x81, 0xFF, 0x81, 0xFF
        81 FF
   1012 81 FF 3C 3C 42 7E  1058 	.db	0x81, 0xFF, 0x3C, 0x3C, 0x42, 0x7E, 0x81, 0xFF
        81 FF
   101A 81 FF A1 FF 81 FF  1059 	.db	0x81, 0xFF, 0xA1, 0xFF, 0x81, 0xFF, 0x81, 0xFF
        81 FF
   1022 81 FF 3C 3C 42 7E  1060 	.db	0x81, 0xFF, 0x3C, 0x3C, 0x42, 0x7E, 0x81, 0xFF
        81 FF
   102A 81 FF A1 FF 81 FF  1061 	.db	0x81, 0xFF, 0xA1, 0xFF, 0x81, 0xFF, 0x81, 0xFF
        81 FF
   1032 81 FF 3C 3C 42 7E  1062 	.db	0x81, 0xFF, 0x3C, 0x3C, 0x42, 0x7E, 0x81, 0xFF
        81 FF
   103A 81 FF A1 FF 81 FF  1063 	.db	0x81, 0xFF, 0xA1, 0xFF, 0x81, 0xFF, 0x81, 0xFF
        81 FF
   1042 81 FF 3C 3C 42 7E  1064 	.db	0x81, 0xFF, 0x3C, 0x3C, 0x42, 0x7E, 0x81, 0xFF
        81 FF
   104A 81 FF A1 FF 81 FF  1065 	.db	0x81, 0xFF, 0xA1, 0xFF, 0x81, 0xFF, 0x81, 0xFF
        81 FF
   1052 81 FF 3C 3C 42 7E  1066 	.db	0x81, 0xFF, 0x3C, 0x3C, 0x42, 0x7E, 0x81, 0xFF
        81 FF
   105A 81 FF A1 FF 81 FF  1067 	.db	0x81, 0xFF, 0xA1, 0xFF, 0x81, 0xFF, 0x81, 0xFF
        81 FF
   1062 81 FF 3C 3C 42 7E  1068 	.db	0x81, 0xFF, 0x3C, 0x3C, 0x42, 0x7E, 0x81, 0xFF
        81 FF
   106A 81 FF A1 FF 81 FF  1069 	.db	0x81, 0xFF, 0xA1, 0xFF, 0x81, 0xFF, 0x81, 0xFF
        81 FF
   1072 81 FF 3C 3C 42 7E  1070 	.db	0x81, 0xFF, 0x3C, 0x3C, 0x42, 0x7E, 0x81, 0xFF
        81 FF
   107A 81 FF A1 FF 81 FF  1071 	.db	0x81, 0xFF, 0xA1, 0xFF, 0x81, 0xFF, 0x81
        81
   1081 33                 1072 	.db	51
   1082 FF 81 FF 3C 3C 42  1073 	.db	0xFF, 0x81, 0xFF, 0x3C, 0x3C, 0x42, 0x7E, 0x81
        7E 81
   108A FF 81 FF A1 FF 81  1074 	.db	0xFF, 0x81, 0xFF, 0xA1, 0xFF, 0x81, 0xFF, 0x81
        FF 81
   1092 FF 81 FF 3C 3C 42  1075 	.db	0xFF, 0x81, 0xFF, 0x3C, 0x3C, 0x42, 0x7E, 0x81
        7E 81
   109A FF 81 FF A1 FF 81  1076 	.db	0xFF, 0x81, 0xFF, 0xA1, 0xFF, 0x81, 0xFF, 0x81
        FF 81
   10A2 FF 81 FF 3C 3C 42  1077 	.db	0xFF, 0x81, 0xFF, 0x3C, 0x3C, 0x42, 0x7E, 0x81
        7E 81
   10AA FF 81 FF A1 FF 81  1078 	.db	0xFF, 0x81, 0xFF, 0xA1, 0xFF, 0x81, 0xFF, 0x81
        FF 81
   10B2 FF 81 FF           1079 	.db	0xFF, 0x81, 0xFF
   10B5 00                 1080 	.db	0
                           1081 ;	game.c 45
                           1082 ;	game.c 1343
                           1083 ;	genArrayInit
                           1084 ; _saveRegsForCall: sendSetSize: 0 deInUse: 0 bcInUse: 0 deSending: 0
   10B6 21 58 18           1085 	ld	hl,#_spritePalette
   10B9 CD 00 00           1086 	call	__initrleblock
   10BC 08                 1087 	.db	8
   10BD DC 6B D2 3A 87 29  1088 	.db	0xDC, 0x6B, 0xD2, 0x3A, 0x87, 0x29, 0x61, 0x10
        61 10
   10C5 00                 1089 	.db	0
                           1090 ;--------------------------------------------------------
                           1091 ; Home
                           1092 ;--------------------------------------------------------
                           1093 	.area _HOME
                           1094 	.area _CODE
                           1095 ;--------------------------------------------------------
                           1096 ; code
                           1097 ;--------------------------------------------------------
                           1098 	.area _CODE
                           1099 ;	game.c 71
                           1100 ;	genLabel
                           1101 ;	genFunction
                           1102 ;	---------------------------------
                           1103 ; Function performantDelay
                           1104 ; ---------------------------------
   0000                    1105 ___performantDelay_start:
   0000                    1106 _performantDelay:
                           1107 	
                           1108 ;	game.c 73
                           1109 ;	genAssign
   0000 0E 00              1110 	ld	c,#0x00
                           1111 ;	genLabel
   0002                    1112 00101$:
                           1113 ;	genCmpEq
                           1114 ;	AOP_STK for 
                           1115 ; genCmpEq: left 1, right 1, result 0
   0002 F8 02              1116 	lda	hl,2(sp)
   0004 7E                 1117 	ld	a,(hl)
   0005 B9                 1118 	cp	c
   0006 20 03              1119 	jr	nz,00109$
   0008 C3 15 00           1120 	jp	00105$
   000B                    1121 00109$:
                           1122 ;	game.c 74
                           1123 ;	genCall
                           1124 ; _saveRegsForCall: sendSetSize: 0 deInUse: 0 bcInUse: 1 deSending: 0
   000B C5                 1125 	push	bc
   000C CD 00 00           1126 	call	_wait_vbl_done
   000F E1                 1127 	pop	hl
   0010 4D                 1128 	ld	c,l
                           1129 ;	game.c 73
                           1130 ;	genPlus
                           1131 ;	genPlusIncr
                           1132 ; Removed redundent load
   0011 0C                 1133 	inc	c
                           1134 ;	genGoto
   0012 C3 02 00           1135 	jp	00101$
                           1136 ;	genLabel
   0015                    1137 00105$:
                           1138 ;	genEndFunction
                           1139 	
   0015 C9                 1140 	ret
   0016                    1141 ___performantDelay_end:
                           1142 ;	game.c 108
                           1143 ;	genLabel
                           1144 ;	genFunction
                           1145 ;	---------------------------------
                           1146 ; Function timers
                           1147 ; ---------------------------------
   0016                    1148 ___timers_start:
   0016                    1149 _timers:
                           1150 	
                           1151 ;	game.c 113
                           1152 ;	genPlus
                           1153 ;	AOP_HL for _timer
                           1154 ;	genPlusIncr
   0016 21 61 18           1155 	ld	hl,#_timer
   0019 34                 1156 	inc	(hl)
                           1157 ;	genLabel
   001A                    1158 00101$:
                           1159 ;	genEndFunction
                           1160 	
   001A C9                 1161 	ret
   001B                    1162 ___timers_end:
                           1163 ;	game.c 117
                           1164 ;	genLabel
                           1165 ;	genFunction
                           1166 ;	---------------------------------
                           1167 ; Function main
                           1168 ; ---------------------------------
   001B                    1169 ___main_start:
   001B                    1170 _main:
                           1171 	
                           1172 ;	game.c 119
                           1173 ;	genCall
                           1174 ; _saveRegsForCall: sendSetSize: 0 deInUse: 0 bcInUse: 0 deSending: 0
   001B CD 51 00           1175 	call	_init
                           1176 ;	game.c 120
                           1177 ;	genCall
                           1178 ; _saveRegsForCall: sendSetSize: 0 deInUse: 0 bcInUse: 0 deSending: 0
   001E CD F5 07           1179 	call	_map_init
                           1180 ;	game.c 122
                           1181 ;	genLabel
   0021                    1182 00101$:
                           1183 ;	genIfx
                           1184 ;	AOP_HL for _running
   0021 AF                 1185 	xor	a,a
   0022 21 60 18           1186 	ld	hl,#_running
   0025 B6                 1187 	or	a,(hl)
   0026 CA 3B 00           1188 	jp	z,00103$
                           1189 ;	game.c 124
                           1190 ;	genCall
                           1191 ; _saveRegsForCall: sendSetSize: 0 deInUse: 0 bcInUse: 0 deSending: 0
   0029 CD 16 00           1192 	call	_timers
                           1193 ;	game.c 125
                           1194 ;	genCall
                           1195 ; _saveRegsForCall: sendSetSize: 0 deInUse: 0 bcInUse: 0 deSending: 0
   002C CD EA 05           1196 	call	_map_loop
                           1197 ;	game.c 126
                           1198 ;	genIpush
                           1199 ; _saveRegsForCall: sendSetSize: 0 deInUse: 0 bcInUse: 0 deSending: 0
   002F 3E 02              1200 	ld	a,#0x02
   0031 F5                 1201 	push	af
   0032 33                 1202 	inc	sp
                           1203 ;	genCall
   0033 CD 00 00           1204 	call	_performantDelay
   0036 E8 01              1205 	lda	sp,1(sp)
                           1206 ;	genGoto
   0038 C3 21 00           1207 	jp	00101$
                           1208 ;	genLabel
   003B                    1209 00103$:
                           1210 ;	game.c 130
                           1211 ;	genIpush
                           1212 ; _saveRegsForCall: sendSetSize: 0 deInUse: 0 bcInUse: 0 deSending: 0
   003B 21 48 00           1213 	ld	hl,#__str_0
   003E E5                 1214 	push	hl
                           1215 ;	genCall
   003F CD 00 00           1216 	call	_printf
   0042 E8 02              1217 	lda	sp,2(sp)
                           1218 ;	game.c 131
                           1219 ;	genLabel
   0044                    1220 00105$:
                           1221 ;	genGoto
   0044 C3 44 00           1222 	jp	00105$
                           1223 ;	genLabel
   0047                    1224 00107$:
                           1225 ;	genEndFunction
                           1226 	
   0047 C9                 1227 	ret
   0048                    1228 ___main_end:
   0048                    1229 __str_0:
   0048 54 68 65 20 65 6E  1230 	.ascii "The end"
        64
   004F 0A                 1231 	.db 0x0A
   0050 00                 1232 	.db 0x00
                           1233 ;	game.c 136
                           1234 ;	genLabel
                           1235 ;	genFunction
                           1236 ;	---------------------------------
                           1237 ; Function init
                           1238 ; ---------------------------------
   0051                    1239 ___init_start:
   0051                    1240 _init:
   0051 E8 FD              1241 	lda	sp,-3(sp)
                           1242 ;	game.c 137
                           1243 ;	genAssign
                           1244 ;	AOP_HL for _current_map
   0053 21 64 18           1245 	ld	hl,#_current_map
   0056 36 C8              1246 	ld	(hl),#0xC8
                           1247 ;	game.c 138
                           1248 ;	genAssign
                           1249 ;	AOP_HL for _characters_available
   0058 21 62 18           1250 	ld	hl,#_characters_available
   005B 36 02              1251 	ld	(hl),#0x02
                           1252 ;	game.c 140
                           1253 ;	genCall
                           1254 ; _saveRegsForCall: sendSetSize: 0 deInUse: 0 bcInUse: 0 deSending: 0
   005D CD 34 07           1255 	call	_copy_map
                           1256 ;	game.c 141
                           1257 ;	genIpush
                           1258 ; _saveRegsForCall: sendSetSize: 0 deInUse: 0 bcInUse: 0 deSending: 0
   0060 21 C8 10           1259 	ld	hl,#_sprites_park
   0063 E5                 1260 	push	hl
                           1261 ;	genIpush
   0064 21 00 78           1262 	ld	hl,#0x7800
   0067 E5                 1263 	push	hl
                           1264 ;	genCall
   0068 CD 00 00           1265 	call	_set_bkg_data
   006B E8 04              1266 	lda	sp,4(sp)
                           1267 ;	game.c 142
                           1268 ;	genIpush
                           1269 ; _saveRegsForCall: sendSetSize: 0 deInUse: 0 bcInUse: 0 deSending: 0
   006D 21 65 18           1270 	ld	hl,#_map
   0070 E5                 1271 	push	hl
                           1272 ;	genIpush
   0071 21 14 12           1273 	ld	hl,#0x1214
   0074 E5                 1274 	push	hl
                           1275 ;	genIpush
   0075 21 00 00           1276 	ld	hl,#0x0000
   0078 E5                 1277 	push	hl
                           1278 ;	genCall
   0079 CD 00 00           1279 	call	_set_bkg_tiles
   007C E8 06              1280 	lda	sp,6(sp)
                           1281 ;	game.c 144
                           1282 ;	genIpush
                           1283 ; _saveRegsForCall: sendSetSize: 0 deInUse: 0 bcInUse: 0 deSending: 0
   007E 21 00 00           1284 	ld	hl,#_Characters
   0081 E5                 1285 	push	hl
                           1286 ;	genIpush
   0082 21 00 1E           1287 	ld	hl,#0x1E00
   0085 E5                 1288 	push	hl
                           1289 ;	genCall
   0086 CD 00 00           1290 	call	_set_sprite_data
   0089 E8 04              1291 	lda	sp,4(sp)
                           1292 ;	game.c 145
                           1293 ;	genIpush
                           1294 ; _saveRegsForCall: sendSetSize: 0 deInUse: 0 bcInUse: 0 deSending: 0
   008B 21 58 18           1295 	ld	hl,#_spritePalette
   008E E5                 1296 	push	hl
                           1297 ;	genIpush
   008F 21 00 04           1298 	ld	hl,#0x0400
   0092 E5                 1299 	push	hl
                           1300 ;	genCall
   0093 CD 00 00           1301 	call	_set_sprite_palette
   0096 E8 04              1302 	lda	sp,4(sp)
                           1303 ;	game.c 149
                           1304 ;	genIpush
                           1305 ; _saveRegsForCall: sendSetSize: 0 deInUse: 0 bcInUse: 0 deSending: 0
   0098 21 58 18           1306 	ld	hl,#_spritePalette
   009B E5                 1307 	push	hl
                           1308 ;	genIpush
   009C 21 00 03           1309 	ld	hl,#0x0300
   009F E5                 1310 	push	hl
                           1311 ;	genCall
   00A0 CD 00 00           1312 	call	_set_bkg_palette
   00A3 E8 04              1313 	lda	sp,4(sp)
                           1314 ;	game.c 150
                           1315 ;	genIpush
                           1316 ; _saveRegsForCall: sendSetSize: 0 deInUse: 0 bcInUse: 0 deSending: 0
   00A5 21 00 00           1317 	ld	hl,#0x0000
   00A8 E5                 1318 	push	hl
                           1319 ;	genCall
   00A9 CD 00 00           1320 	call	_set_sprite_prop
   00AC E8 02              1321 	lda	sp,2(sp)
                           1322 ;	game.c 155
                           1323 ;	genAssign
   00AE 01 47 FF           1324 	ld	bc,#0xFF47
                           1325 ;	genAssign (pointer)
   00B1 3E E4              1326 	ld	a,#0xE4
   00B3 02                 1327 	ld	(bc),a
                           1328 ;	game.c 157
                           1329 ;	genAssign
   00B4 01 40 FF           1330 	ld	bc,#0xFF40
                           1331 ;	genAssign
                           1332 ;	AOP_STK for _init_sloc0_1_0
   00B7 F8 01              1333 	lda	hl,1(sp)
   00B9 36 40              1334 	ld	(hl),#0x40
   00BB 23                 1335 	inc	hl
   00BC 36 FF              1336 	ld	(hl),#0xFF
                           1337 ;	genPointerGet
                           1338 ;	AOP_STK for _init_sloc0_1_0
                           1339 ;	AOP_STK for _init_sloc1_1_0
   00BE 2B                 1340 	dec	hl
   00BF 5E                 1341 	ld	e,(hl)
   00C0 23                 1342 	inc	hl
   00C1 56                 1343 	ld	d,(hl)
   00C2 1A                 1344 	ld	a,(de)
   00C3 2B                 1345 	dec	hl
   00C4 2B                 1346 	dec	hl
                           1347 ;	genOr
                           1348 ;	AOP_STK for _init_sloc1_1_0
   00C5 77                 1349 	ld      (hl),a
   00C6 7F                 1350 	ld      a,a
   00C7 F6 80              1351 	or	a,#0x80
                           1352 ;	genAssign (pointer)
   00C9 02                 1353 	ld	(bc),a
                           1354 ;	game.c 159
                           1355 ;	genAssign
   00CA 01 40 FF           1356 	ld	bc,#0xFF40
                           1357 ;	genAssign
                           1358 ;	AOP_STK for _init_sloc0_1_0
   00CD 23                 1359 	inc	hl
   00CE 36 40              1360 	ld	(hl),#0x40
   00D0 23                 1361 	inc	hl
   00D1 36 FF              1362 	ld	(hl),#0xFF
                           1363 ;	genPointerGet
                           1364 ;	AOP_STK for _init_sloc0_1_0
                           1365 ;	AOP_STK for _init_sloc1_1_0
   00D3 2B                 1366 	dec	hl
   00D4 5E                 1367 	ld	e,(hl)
   00D5 23                 1368 	inc	hl
   00D6 56                 1369 	ld	d,(hl)
   00D7 1A                 1370 	ld	a,(de)
   00D8 2B                 1371 	dec	hl
   00D9 2B                 1372 	dec	hl
                           1373 ;	genOr
                           1374 ;	AOP_STK for _init_sloc1_1_0
   00DA 77                 1375 	ld      (hl),a
   00DB 7F                 1376 	ld      a,a
   00DC F6 01              1377 	or	a,#0x01
                           1378 ;	genAssign (pointer)
   00DE 02                 1379 	ld	(bc),a
                           1380 ;	game.c 161
                           1381 ;	genAssign
   00DF 01 40 FF           1382 	ld	bc,#0xFF40
                           1383 ;	genAssign
                           1384 ;	AOP_STK for _init_sloc0_1_0
   00E2 23                 1385 	inc	hl
   00E3 36 40              1386 	ld	(hl),#0x40
   00E5 23                 1387 	inc	hl
   00E6 36 FF              1388 	ld	(hl),#0xFF
                           1389 ;	genPointerGet
                           1390 ;	AOP_STK for _init_sloc0_1_0
                           1391 ;	AOP_STK for _init_sloc1_1_0
   00E8 2B                 1392 	dec	hl
   00E9 5E                 1393 	ld	e,(hl)
   00EA 23                 1394 	inc	hl
   00EB 56                 1395 	ld	d,(hl)
   00EC 1A                 1396 	ld	a,(de)
   00ED 2B                 1397 	dec	hl
   00EE 2B                 1398 	dec	hl
                           1399 ;	genOr
                           1400 ;	AOP_STK for _init_sloc1_1_0
   00EF 77                 1401 	ld      (hl),a
   00F0 7F                 1402 	ld      a,a
   00F1 F6 02              1403 	or	a,#0x02
                           1404 ;	genAssign (pointer)
   00F3 02                 1405 	ld	(bc),a
                           1406 ;	game.c 163
                           1407 ;	genAssign
                           1408 ;	AOP_HL for _input_timer
   00F4 21 63 18           1409 	ld	hl,#_input_timer
   00F7 36 00              1410 	ld	(hl),#0x00
                           1411 ;	game.c 164
                           1412 ;	genAssign
                           1413 ;	AOP_HL for _running
   00F9 21 60 18           1414 	ld	hl,#_running
   00FC 36 01              1415 	ld	(hl),#0x01
                           1416 ;	game.c 165
                           1417 ;	genAssign
                           1418 ;	AOP_HL for _timer
   00FE 21 61 18           1419 	ld	hl,#_timer
   0101 36 01              1420 	ld	(hl),#0x01
                           1421 ;	game.c 166
                           1422 ;	genAddrOf
                           1423 ;	AOP_HL for _player
   0103 11 CD 19           1424 	ld	de,#_bunny
   0106 21 13 1A           1425 	ld	hl,#_player
   0109 73                 1426 	ld	(hl),e
   010A 23                 1427 	inc	hl
   010B 72                 1428 	ld	(hl),d
                           1429 ;	genLabel
   010C                    1430 00101$:
                           1431 ;	genEndFunction
   010C E8 03              1432 	lda	sp,3(sp)
   010E C9                 1433 	ret
   010F                    1434 ___init_end:
                           1435 ;	game.c 169
                           1436 ;	genLabel
                           1437 ;	genFunction
                           1438 ;	---------------------------------
                           1439 ; Function spread_fire
                           1440 ; ---------------------------------
   010F                    1441 ___spread_fire_start:
   010F                    1442 _spread_fire:
   010F E8 FC              1443 	lda	sp,-4(sp)
                           1444 ;	game.c 173
                           1445 ;	genPlus
                           1446 ;	AOP_STK for 
                           1447 ;	genPlusIncr
   0111 F8 06              1448 	lda	hl,6(sp)
   0113 4E                 1449 	ld	c,(hl)
   0114 23                 1450 	inc	hl
   0115 46                 1451 	ld	b,(hl)
   0116 03                 1452 	inc	bc
                           1453 ;	genIpush
                           1454 ; _saveRegsForCall: sendSetSize: 0 deInUse: 0 bcInUse: 1 deSending: 0
   0117 C5                 1455 	push	bc
   0118 21 14 00           1456 	ld	hl,#0x0014
   011B E5                 1457 	push	hl
                           1458 ;	genIpush
   011C C5                 1459 	push	bc
                           1460 ;	genCall
   011D CD 00 00           1461 	call	__moduint_rrx_s
                           1462 ;	AOP_STK for _spread_fire_sloc0_1_0
   0120 F8 07              1463 	lda	hl,7(sp)
   0122 72                 1464 	ld	(hl),d
   0123 2B                 1465 	dec	hl
   0124 73                 1466 	ld	(hl),e
   0125 E8 04              1467 	lda	sp,4(sp)
   0127 C1                 1468 	pop	bc
                           1469 ;	genCmpEq
                           1470 ;	AOP_STK for _spread_fire_sloc0_1_0
                           1471 ; genCmpEq: left 2, right 2, result 0
   0128 F8 00              1472 	lda	hl,0(sp)
   012A 2A                 1473 	ld	a,(hl+)
   012B B6                 1474 	or	a,(hl)
   012C CA 5D 01           1475 	jp	z,00105$
   012F                    1476 00131$:
                           1477 ;	game.c 174
                           1478 ;	genAssign
                           1479 ;	(registers are the same)
                           1480 ;	genAssign
                           1481 ;	AOP_STK for _spread_fire_map_test_1_1
   012F F8 02              1482 	lda	hl,2(sp)
   0131 71                 1483 	ld	(hl),c
   0132 23                 1484 	inc	hl
   0133 70                 1485 	ld	(hl),b
                           1486 ;	game.c 175
                           1487 ;	genPlus
                           1488 ;	AOP_STK for _spread_fire_map_test_1_1
                           1489 ;	AOP_STK for _spread_fire_sloc0_1_0
                           1490 ;	Can't optimise plus by inc, falling back to the normal way
   0134 11 65 18           1491 	ld	de,#_map
   0137 2B                 1492 	dec	hl
   0138 2A                 1493 	ld	a,(hl+)
   0139 66                 1494 	ld	h,(hl)
   013A 6F                 1495 	ld	l,a
   013B 19                 1496 	add	hl,de
   013C 7D                 1497 	ld	a,l
   013D 54                 1498 	ld	d,h
   013E F8 00              1499 	lda	hl,0(sp)
                           1500 ;	genPointerGet
                           1501 ;	AOP_STK for _spread_fire_sloc0_1_0
   0140 22                 1502 	ld	(hl+),a
   0141 72                 1503 	ld	(hl),d
   0142 5F                 1504 	ld	e,a
   0143 1A                 1505 	ld	a,(de)
                           1506 ;	genCmpEq
                           1507 ; genCmpEq: left 1, right 1, result 0
   0144 4F                 1508 	ld	c,a
   0145 FE 15              1509 	cp	a,#0x15
   0147 CA 55 01           1510 	jp	z,00101$
   014A                    1511 00132$:
                           1512 ;	genCmpEq
                           1513 ; genCmpEq: left 1, right 1, result 0
   014A 79                 1514 	ld	a,c
   014B FE 17              1515 	cp	a,#0x17
   014D C2 5D 01           1516 	jp	nz,00105$
   0150 18 03              1517 	jr	00134$
   0152                    1518 00133$:
   0152 C3 5D 01           1519 	jp	00105$
   0155                    1520 00134$:
                           1521 ;	genLabel
   0155                    1522 00101$:
                           1523 ;	game.c 176
                           1524 ;	genAssign (pointer)
                           1525 ;	AOP_STK for _spread_fire_sloc0_1_0
   0155 F8 00              1526 	lda	hl,0(sp)
   0157 5E                 1527 	ld	e,(hl)
   0158 23                 1528 	inc	hl
   0159 56                 1529 	ld	d,(hl)
   015A 3E 1B              1530 	ld	a,#0x1B
   015C 12                 1531 	ld	(de),a
                           1532 ;	genLabel
   015D                    1533 00105$:
                           1534 ;	game.c 181
                           1535 ;	genIpush
                           1536 ; _saveRegsForCall: sendSetSize: 0 deInUse: 0 bcInUse: 0 deSending: 0
   015D 21 14 00           1537 	ld	hl,#0x0014
   0160 E5                 1538 	push	hl
                           1539 ;	genIpush
                           1540 ;	AOP_STK for 
   0161 F8 08              1541 	lda	hl,8(sp)
   0163 2A                 1542 	ld	a,(hl+)
   0164 66                 1543 	ld	h,(hl)
   0165 6F                 1544 	ld	l,a
   0166 E5                 1545 	push	hl
                           1546 ;	genCall
   0167 CD 00 00           1547 	call	__moduint_rrx_s
   016A 42                 1548 	ld	b,d
   016B 4B                 1549 	ld	c,e
   016C E8 04              1550 	lda	sp,4(sp)
                           1551 ;	genCmpEq
                           1552 ; genCmpEq: left 2, right 2, result 0
   016E 79                 1553 	ld	a,c
   016F B0                 1554 	or	a,b
   0170 CA A6 01           1555 	jp	z,00110$
   0173                    1556 00135$:
                           1557 ;	game.c 182
                           1558 ;	genMinus
                           1559 ;	AOP_STK for 
                           1560 ;	AOP_STK for _spread_fire_map_test_1_1
   0173 F8 06              1561 	lda	hl,6(sp)
   0175 5E                 1562 	ld	e,(hl)
   0176 23                 1563 	inc	hl
   0177 56                 1564 	ld	d,(hl)
   0178 21 01 00           1565 	ld	hl,#0x0001
   017B 7B                 1566 	ld	a,e
   017C 95                 1567 	sub	a,l
   017D 5F                 1568 	ld	e,a
   017E 7A                 1569 	ld	a,d
   017F 9C                 1570 	sbc	a,h
   0180 F8 03              1571 	lda	hl,3(sp)
   0182 32                 1572 	ld      (hl-),a
   0183 73                 1573 	ld	(hl),e
                           1574 ;	game.c 183
                           1575 ;	genPlus
                           1576 ;	AOP_STK for _spread_fire_map_test_1_1
                           1577 ;	Can't optimise plus by inc, falling back to the normal way
   0184 11 65 18           1578 	ld	de,#_map
   0187 2A                 1579 	ld	a,(hl+)
   0188 66                 1580 	ld	h,(hl)
   0189 6F                 1581 	ld	l,a
   018A 19                 1582 	add	hl,de
   018B 4D                 1583 	ld	c,l
   018C 44                 1584 	ld	b,h
                           1585 ;	genPointerGet
                           1586 ;	AOP_STK for _spread_fire_sloc0_1_0
   018D 0A                 1587 	ld	a,(bc)
   018E F8 00              1588 	lda	hl,0(sp)
                           1589 ;	genCmpEq
                           1590 ;	AOP_STK for _spread_fire_sloc0_1_0
                           1591 ; genCmpEq: left 1, right 1, result 0
   0190 77                 1592 	ld      (hl),a
                           1593 ; Removed redundent load
   0191 FE 15              1594 	cp	a,#0x15
   0193 CA A3 01           1595 	jp	z,00106$
   0196                    1596 00136$:
                           1597 ;	genCmpEq
                           1598 ;	AOP_STK for _spread_fire_sloc0_1_0
                           1599 ; genCmpEq: left 1, right 1, result 0
   0196 F8 00              1600 	lda	hl,0(sp)
   0198 7E                 1601 	ld	a,(hl)
   0199 FE 17              1602 	cp	a,#0x17
   019B C2 A6 01           1603 	jp	nz,00110$
   019E 18 03              1604 	jr	00138$
   01A0                    1605 00137$:
   01A0 C3 A6 01           1606 	jp	00110$
   01A3                    1607 00138$:
                           1608 ;	genLabel
   01A3                    1609 00106$:
                           1610 ;	game.c 184
                           1611 ;	genAssign (pointer)
   01A3 3E 1B              1612 	ld	a,#0x1B
   01A5 02                 1613 	ld	(bc),a
                           1614 ;	genLabel
   01A6                    1615 00110$:
                           1616 ;	game.c 189
                           1617 ;	genCmpGt
                           1618 ;	AOP_STK for 
   01A6 3E 13              1619 	ld	a,#0x13
   01A8 F8 06              1620 	lda	hl,6(sp)
   01AA 96                 1621 	sub	a,(hl)
   01AB 3E 00              1622 	ld	a,#0x00
   01AD 23                 1623 	inc	hl
   01AE 9E                 1624 	sbc	a,(hl)
   01AF D2 E4 01           1625 	jp	nc,00115$
                           1626 ;	game.c 190
                           1627 ;	genMinus
                           1628 ;	AOP_STK for 
                           1629 ;	AOP_STK for _spread_fire_map_test_1_1
   01B2 2B                 1630 	dec	hl
   01B3 5E                 1631 	ld	e,(hl)
   01B4 23                 1632 	inc	hl
   01B5 56                 1633 	ld	d,(hl)
   01B6 21 14 00           1634 	ld	hl,#0x0014
   01B9 7B                 1635 	ld	a,e
   01BA 95                 1636 	sub	a,l
   01BB 5F                 1637 	ld	e,a
   01BC 7A                 1638 	ld	a,d
   01BD 9C                 1639 	sbc	a,h
   01BE F8 03              1640 	lda	hl,3(sp)
   01C0 32                 1641 	ld      (hl-),a
   01C1 73                 1642 	ld	(hl),e
                           1643 ;	game.c 191
                           1644 ;	genPlus
                           1645 ;	AOP_STK for _spread_fire_map_test_1_1
                           1646 ;	Can't optimise plus by inc, falling back to the normal way
   01C2 11 65 18           1647 	ld	de,#_map
   01C5 2A                 1648 	ld	a,(hl+)
   01C6 66                 1649 	ld	h,(hl)
   01C7 6F                 1650 	ld	l,a
   01C8 19                 1651 	add	hl,de
   01C9 4D                 1652 	ld	c,l
   01CA 44                 1653 	ld	b,h
                           1654 ;	genPointerGet
                           1655 ;	AOP_STK for _spread_fire_sloc0_1_0
   01CB 0A                 1656 	ld	a,(bc)
   01CC F8 00              1657 	lda	hl,0(sp)
                           1658 ;	genCmpEq
                           1659 ;	AOP_STK for _spread_fire_sloc0_1_0
                           1660 ; genCmpEq: left 1, right 1, result 0
   01CE 77                 1661 	ld      (hl),a
                           1662 ; Removed redundent load
   01CF FE 15              1663 	cp	a,#0x15
   01D1 CA E1 01           1664 	jp	z,00111$
   01D4                    1665 00139$:
                           1666 ;	genCmpEq
                           1667 ;	AOP_STK for _spread_fire_sloc0_1_0
                           1668 ; genCmpEq: left 1, right 1, result 0
   01D4 F8 00              1669 	lda	hl,0(sp)
   01D6 7E                 1670 	ld	a,(hl)
   01D7 FE 17              1671 	cp	a,#0x17
   01D9 C2 E4 01           1672 	jp	nz,00115$
   01DC 18 03              1673 	jr	00141$
   01DE                    1674 00140$:
   01DE C3 E4 01           1675 	jp	00115$
   01E1                    1676 00141$:
                           1677 ;	genLabel
   01E1                    1678 00111$:
                           1679 ;	game.c 192
                           1680 ;	genAssign (pointer)
   01E1 3E 1B              1681 	ld	a,#0x1B
   01E3 02                 1682 	ld	(bc),a
                           1683 ;	genLabel
   01E4                    1684 00115$:
                           1685 ;	game.c 197
                           1686 ;	genCmpLt
                           1687 ;	AOP_STK for 
   01E4 F8 06              1688 	lda	hl,6(sp)
   01E6 7E                 1689 	ld	a,(hl)
   01E7 D6 54              1690 	sub	a,#0x54
   01E9 23                 1691 	inc	hl
   01EA 7E                 1692 	ld	a,(hl)
   01EB DE 01              1693 	sbc	a,#0x01
   01ED D2 21 02           1694 	jp	nc,00121$
                           1695 ;	game.c 198
                           1696 ;	genPlus
                           1697 ;	AOP_STK for 
                           1698 ;	AOP_STK for _spread_fire_map_test_1_1
                           1699 ;	genPlusIncr
                           1700 ;	Can't optimise plus by inc, falling back to the normal way
   01F0 2B                 1701 	dec	hl
   01F1 5E                 1702 	ld	e,(hl)
   01F2 23                 1703 	inc	hl
   01F3 56                 1704 	ld	d,(hl)
   01F4 21 14 00           1705 	ld	hl,#0x0014
   01F7 19                 1706 	add	hl,de
   01F8 7D                 1707 	ld	a,l
   01F9 54                 1708 	ld	d,h
   01FA F8 02              1709 	lda	hl,2(sp)
   01FC 22                 1710 	ld	(hl+),a
   01FD 72                 1711 	ld	(hl),d
                           1712 ;	game.c 199
                           1713 ;	genPlus
                           1714 ;	AOP_STK for _spread_fire_map_test_1_1
                           1715 ;	Can't optimise plus by inc, falling back to the normal way
   01FE 11 65 18           1716 	ld	de,#_map
   0201 2B                 1717 	dec	hl
   0202 2A                 1718 	ld	a,(hl+)
   0203 66                 1719 	ld	h,(hl)
   0204 6F                 1720 	ld	l,a
   0205 19                 1721 	add	hl,de
   0206 4D                 1722 	ld	c,l
   0207 44                 1723 	ld	b,h
                           1724 ;	genPointerGet
                           1725 ;	AOP_STK for _spread_fire_sloc0_1_0
   0208 0A                 1726 	ld	a,(bc)
   0209 F8 00              1727 	lda	hl,0(sp)
                           1728 ;	genCmpEq
                           1729 ;	AOP_STK for _spread_fire_sloc0_1_0
                           1730 ; genCmpEq: left 1, right 1, result 0
   020B 77                 1731 	ld      (hl),a
                           1732 ; Removed redundent load
   020C FE 15              1733 	cp	a,#0x15
   020E CA 1E 02           1734 	jp	z,00116$
   0211                    1735 00142$:
                           1736 ;	genCmpEq
                           1737 ;	AOP_STK for _spread_fire_sloc0_1_0
                           1738 ; genCmpEq: left 1, right 1, result 0
   0211 F8 00              1739 	lda	hl,0(sp)
   0213 7E                 1740 	ld	a,(hl)
   0214 FE 17              1741 	cp	a,#0x17
   0216 C2 21 02           1742 	jp	nz,00121$
   0219 18 03              1743 	jr	00144$
   021B                    1744 00143$:
   021B C3 21 02           1745 	jp	00121$
   021E                    1746 00144$:
                           1747 ;	genLabel
   021E                    1748 00116$:
                           1749 ;	game.c 200
                           1750 ;	genAssign (pointer)
   021E 3E 1B              1751 	ld	a,#0x1B
   0220 02                 1752 	ld	(bc),a
                           1753 ;	genLabel
   0221                    1754 00121$:
                           1755 ;	genEndFunction
   0221 E8 04              1756 	lda	sp,4(sp)
   0223 C9                 1757 	ret
   0224                    1758 ___spread_fire_end:
                           1759 ;	game.c 207
                           1760 ;	genLabel
                           1761 ;	genFunction
                           1762 ;	---------------------------------
                           1763 ; Function map_enviroment_tiles
                           1764 ; ---------------------------------
   0224                    1765 ___map_enviroment_tiles_start:
   0224                    1766 _map_enviroment_tiles:
   0224 E8 A3              1767 	lda	sp,-93(sp)
                           1768 ;	game.c 211
                           1769 ;	genAddrOf
   0226 F8 4B              1770 	lda	hl,75(sp)
   0228 4D                 1771 	ld	c,l
   0229 44                 1772 	ld	b,h
                           1773 ;	genAssign
                           1774 ;	AOP_STK for _map_enviroment_tiles_sloc0_1_0
   022A F8 09              1775 	lda	hl,9(sp)
   022C 71                 1776 	ld	(hl),c
   022D 23                 1777 	inc	hl
   022E 70                 1778 	ld	(hl),b
                           1779 ;	genArrayInit
                           1780 ;	AOP_STK for _map_enviroment_tiles_sloc0_1_0
                           1781 ; _saveRegsForCall: sendSetSize: 0 deInUse: 0 bcInUse: 1 deSending: 0
   022F C5                 1782 	push	bc
   0230 2B                 1783 	dec	hl
   0231 2A                 1784 	ld	a,(hl+)
   0232 66                 1785 	ld	h,(hl)
   0233 6F                 1786 	ld	l,a
   0234 CD 00 00           1787 	call	__initrleblock
   0237 10                 1788 	.db	16
   0238 FF 00 DD 00 AA 00  1789 	.db	0xFF, 0x00, 0xDD, 0x00, 0xAA, 0x00, 0xFF, 0x00
        FF 00
   0240 FF 00 BB 00 55 00  1790 	.db	0xFF, 0x00, 0xBB, 0x00, 0x55, 0x00, 0xFF, 0x00
        FF 00
   0248 00                 1791 	.db	0
   0249 C1                 1792 	pop	bc
                           1793 ;	game.c 217
                           1794 ;	genAddrOf
                           1795 ;	AOP_STK for _map_enviroment_tiles_sloc0_1_0
   024A F8 3B              1796 	lda	hl,59(sp)
   024C 7D                 1797 	ld	a,l
   024D 54                 1798 	ld	d,h
   024E F8 09              1799 	lda	hl,9(sp)
   0250 22                 1800 	ld	(hl+),a
   0251 72                 1801 	ld	(hl),d
                           1802 ;	genAssign
                           1803 ;	AOP_STK for _map_enviroment_tiles_sloc0_1_0
                           1804 ;	AOP_STK for _map_enviroment_tiles_sloc1_1_0
   0252 2B                 1805 	dec	hl
   0253 2A                 1806 	ld	a,(hl+)
   0254 5E                 1807 	ld	e,(hl)
   0255 F8 07              1808 	lda	hl,7(sp)
   0257 22                 1809 	ld	(hl+),a
   0258 73                 1810 	ld	(hl),e
                           1811 ;	genArrayInit
                           1812 ;	AOP_STK for _map_enviroment_tiles_sloc1_1_0
                           1813 ; _saveRegsForCall: sendSetSize: 0 deInUse: 0 bcInUse: 1 deSending: 0
   0259 C5                 1814 	push	bc
   025A 2B                 1815 	dec	hl
   025B 2A                 1816 	ld	a,(hl+)
   025C 66                 1817 	ld	h,(hl)
   025D 6F                 1818 	ld	l,a
   025E CD 00 00           1819 	call	__initrleblock
   0261 10                 1820 	.db	16
   0262 FF 00 BB 00 55 00  1821 	.db	0xFF, 0x00, 0xBB, 0x00, 0x55, 0x00, 0xFF, 0x00
        FF 00
   026A FF 00 DD 00 AA 00  1822 	.db	0xFF, 0x00, 0xDD, 0x00, 0xAA, 0x00, 0xFF, 0x00
        FF 00
   0272 00                 1823 	.db	0
   0273 C1                 1824 	pop	bc
                           1825 ;	game.c 224
                           1826 ;	genAddrOf
                           1827 ;	AOP_STK for _map_enviroment_tiles_sloc1_1_0
   0274 F8 2B              1828 	lda	hl,43(sp)
   0276 7D                 1829 	ld	a,l
   0277 54                 1830 	ld	d,h
   0278 F8 07              1831 	lda	hl,7(sp)
   027A 22                 1832 	ld	(hl+),a
   027B 72                 1833 	ld	(hl),d
                           1834 ;	genAssign
                           1835 ;	AOP_STK for _map_enviroment_tiles_sloc1_1_0
                           1836 ;	AOP_STK for _map_enviroment_tiles_sloc2_1_0
   027C 2B                 1837 	dec	hl
   027D 2A                 1838 	ld	a,(hl+)
   027E 5E                 1839 	ld	e,(hl)
   027F F8 05              1840 	lda	hl,5(sp)
   0281 22                 1841 	ld	(hl+),a
   0282 73                 1842 	ld	(hl),e
                           1843 ;	genArrayInit
                           1844 ;	AOP_STK for _map_enviroment_tiles_sloc2_1_0
                           1845 ; _saveRegsForCall: sendSetSize: 0 deInUse: 0 bcInUse: 1 deSending: 0
   0283 C5                 1846 	push	bc
   0284 2B                 1847 	dec	hl
   0285 2A                 1848 	ld	a,(hl+)
   0286 66                 1849 	ld	h,(hl)
   0287 6F                 1850 	ld	l,a
   0288 CD 00 00           1851 	call	__initrleblock
   028B 10                 1852 	.db	16
   028C 18 00 28 10 6C 10  1853 	.db	0x18, 0x00, 0x28, 0x10, 0x6C, 0x10, 0x56, 0x28
        56 28
   0294 5A 24 5A 24 66 18  1854 	.db	0x5A, 0x24, 0x5A, 0x24, 0x66, 0x18, 0x3C, 0x00
        3C 00
   029C 00                 1855 	.db	0
   029D C1                 1856 	pop	bc
                           1857 ;	game.c 230
                           1858 ;	genAddrOf
                           1859 ;	AOP_STK for _map_enviroment_tiles_sloc2_1_0
   029E F8 1B              1860 	lda	hl,27(sp)
   02A0 7D                 1861 	ld	a,l
   02A1 54                 1862 	ld	d,h
   02A2 F8 05              1863 	lda	hl,5(sp)
   02A4 22                 1864 	ld	(hl+),a
   02A5 72                 1865 	ld	(hl),d
                           1866 ;	genAssign
                           1867 ;	AOP_STK for _map_enviroment_tiles_sloc2_1_0
                           1868 ;	AOP_STK for _map_enviroment_tiles_sloc3_1_0
   02A6 2B                 1869 	dec	hl
   02A7 2A                 1870 	ld	a,(hl+)
   02A8 5E                 1871 	ld	e,(hl)
   02A9 F8 03              1872 	lda	hl,3(sp)
   02AB 22                 1873 	ld	(hl+),a
   02AC 73                 1874 	ld	(hl),e
                           1875 ;	genArrayInit
                           1876 ;	AOP_STK for _map_enviroment_tiles_sloc3_1_0
                           1877 ; _saveRegsForCall: sendSetSize: 0 deInUse: 0 bcInUse: 1 deSending: 0
   02AD C5                 1878 	push	bc
   02AE 2B                 1879 	dec	hl
   02AF 2A                 1880 	ld	a,(hl+)
   02B0 66                 1881 	ld	h,(hl)
   02B1 6F                 1882 	ld	l,a
   02B2 CD 00 00           1883 	call	__initrleblock
   02B5 10                 1884 	.db	16
   02B6 00 00 10 00 28 10  1885 	.db	0x00, 0x00, 0x10, 0x00, 0x28, 0x10, 0x2C, 0x10
        2C 10
   02BE 56 28 5A 24 66 18  1886 	.db	0x56, 0x28, 0x5A, 0x24, 0x66, 0x18, 0x3C, 0x00
        3C 00
   02C6 00                 1887 	.db	0
   02C7 C1                 1888 	pop	bc
                           1889 ;	game.c 236
                           1890 ;	genAddrOf
                           1891 ;	AOP_STK for _map_enviroment_tiles_sloc3_1_0
   02C8 F8 0B              1892 	lda	hl,11(sp)
   02CA 7D                 1893 	ld	a,l
   02CB 54                 1894 	ld	d,h
   02CC F8 03              1895 	lda	hl,3(sp)
   02CE 22                 1896 	ld	(hl+),a
   02CF 72                 1897 	ld	(hl),d
                           1898 ;	genAssign
                           1899 ;	AOP_STK for _map_enviroment_tiles_sloc3_1_0
                           1900 ;	AOP_STK for _map_enviroment_tiles_sloc4_1_0
   02D0 2B                 1901 	dec	hl
   02D1 2A                 1902 	ld	a,(hl+)
   02D2 5E                 1903 	ld	e,(hl)
   02D3 F8 01              1904 	lda	hl,1(sp)
   02D5 22                 1905 	ld	(hl+),a
   02D6 73                 1906 	ld	(hl),e
                           1907 ;	genArrayInit
                           1908 ;	AOP_STK for _map_enviroment_tiles_sloc4_1_0
                           1909 ; _saveRegsForCall: sendSetSize: 0 deInUse: 0 bcInUse: 1 deSending: 0
   02D7 C5                 1910 	push	bc
   02D8 2B                 1911 	dec	hl
   02D9 2A                 1912 	ld	a,(hl+)
   02DA 66                 1913 	ld	h,(hl)
   02DB 6F                 1914 	ld	l,a
   02DC CD 00 00           1915 	call	__initrleblock
   02DF 10                 1916 	.db	16
   02E0 00 00 00 00 10 00  1917 	.db	0x00, 0x00, 0x00, 0x00, 0x10, 0x00, 0x28, 0x10
        28 10
   02E8 2C 10 56 28 66 18  1918 	.db	0x2C, 0x10, 0x56, 0x28, 0x66, 0x18, 0x3C, 0x00
        3C 00
   02F0 00                 1919 	.db	0
   02F1 C1                 1920 	pop	bc
                           1921 ;	game.c 246
                           1922 ;	genIpush
                           1923 ; _saveRegsForCall: sendSetSize: 0 deInUse: 0 bcInUse: 1 deSending: 0
   02F2 C5                 1924 	push	bc
   02F3 3E 20              1925 	ld	a,#0x20
   02F5 F5                 1926 	push	af
   02F6 33                 1927 	inc	sp
                           1928 ;	genIpush
                           1929 ;	AOP_HL for _timer
   02F7 21 61 18           1930 	ld	hl,#_timer
   02FA 7E                 1931 	ld	a,(hl)
   02FB F5                 1932 	push	af
   02FC 33                 1933 	inc	sp
                           1934 ;	genCall
   02FD CD 00 00           1935 	call	__moduchar_rrx_s
                           1936 ;	AOP_STK for _map_enviroment_tiles_sloc4_1_0
   0300 F8 05              1937 	lda	hl,5(sp)
   0302 73                 1938 	ld	(hl),e
   0303 E8 02              1939 	lda	sp,2(sp)
   0305 C1                 1940 	pop	bc
                           1941 ;	genCmpEq
                           1942 ;	AOP_STK for _map_enviroment_tiles_sloc4_1_0
                           1943 ;	AOP_STK for _map_enviroment_tiles_sloc5_1_0
                           1944 ; genCmpEq: left 1, right 1, result 1
   0306 F8 01              1945 	lda	hl,1(sp)
   0308 7E                 1946 	ld	a,(hl)
   0309 B7                 1947 	or	a,a
   030A C2 11 03           1948 	jp	nz,00150$
   030D 3E 01              1949 	ld	a,#0x01
   030F 18 01              1950 	jr	00151$
   0311                    1951 00150$:
   0311 AF                 1952 	xor	a,a
   0312                    1953 00151$:
   0312 F8 00              1954 	lda	hl,0(sp)
   0314 77                 1955 	ld	(hl),a
                           1956 ;	genIfx
                           1957 ;	AOP_STK for _map_enviroment_tiles_sloc5_1_0
   0315 AF                 1958 	xor	a,a
   0316 B6                 1959 	or	a,(hl)
   0317 CA 56 03           1960 	jp	z,00105$
                           1961 ;	game.c 247
                           1962 ;	genIpush
                           1963 ; _saveRegsForCall: sendSetSize: 0 deInUse: 0 bcInUse: 1 deSending: 0
   031A C5                 1964 	push	bc
   031B 3E 40              1965 	ld	a,#0x40
   031D F5                 1966 	push	af
   031E 33                 1967 	inc	sp
                           1968 ;	genIpush
                           1969 ;	AOP_HL for _timer
   031F 21 61 18           1970 	ld	hl,#_timer
   0322 7E                 1971 	ld	a,(hl)
   0323 F5                 1972 	push	af
   0324 33                 1973 	inc	sp
                           1974 ;	genCall
   0325 CD 00 00           1975 	call	__moduchar_rrx_s
                           1976 ;	AOP_STK for _map_enviroment_tiles_sloc4_1_0
   0328 F8 05              1977 	lda	hl,5(sp)
   032A 73                 1978 	ld	(hl),e
   032B E8 02              1979 	lda	sp,2(sp)
   032D C1                 1980 	pop	bc
                           1981 ;	genCmpEq
                           1982 ;	AOP_STK for _map_enviroment_tiles_sloc4_1_0
                           1983 ; genCmpEq: left 1, right 1, result 0
   032E F8 01              1984 	lda	hl,1(sp)
   0330 7E                 1985 	ld	a,(hl)
   0331 B7                 1986 	or	a,a
   0332 C2 47 03           1987 	jp	nz,00102$
   0335 18 03              1988 	jr	00153$
   0337                    1989 00152$:
   0337 C3 47 03           1990 	jp	00102$
   033A                    1991 00153$:
                           1992 ;	game.c 248
                           1993 ;	genIpush
                           1994 ; _saveRegsForCall: sendSetSize: 0 deInUse: 0 bcInUse: 0 deSending: 0
   033A C5                 1995 	push	bc
                           1996 ;	genIpush
   033B 21 0B 01           1997 	ld	hl,#0x010B
   033E E5                 1998 	push	hl
                           1999 ;	genCall
   033F CD 00 00           2000 	call	_set_bkg_data
   0342 E8 04              2001 	lda	sp,4(sp)
                           2002 ;	genGoto
   0344 C3 56 03           2003 	jp	00105$
                           2004 ;	genLabel
   0347                    2005 00102$:
                           2006 ;	game.c 252
                           2007 ;	genIpush
                           2008 ; _saveRegsForCall: sendSetSize: 0 deInUse: 0 bcInUse: 0 deSending: 0
                           2009 ;	AOP_STK for _map_enviroment_tiles_sloc0_1_0
   0347 F8 09              2010 	lda	hl,9(sp)
   0349 2A                 2011 	ld	a,(hl+)
   034A 66                 2012 	ld	h,(hl)
   034B 6F                 2013 	ld	l,a
   034C E5                 2014 	push	hl
                           2015 ;	genIpush
   034D 21 0B 01           2016 	ld	hl,#0x010B
   0350 E5                 2017 	push	hl
                           2018 ;	genCall
   0351 CD 00 00           2019 	call	_set_bkg_data
   0354 E8 04              2020 	lda	sp,4(sp)
                           2021 ;	genLabel
   0356                    2022 00105$:
                           2023 ;	game.c 258
                           2024 ;	genIfx
                           2025 ;	AOP_STK for _map_enviroment_tiles_sloc5_1_0
   0356 AF                 2026 	xor	a,a
   0357 F8 00              2027 	lda	hl,0(sp)
   0359 B6                 2028 	or	a,(hl)
   035A CA B6 03           2029 	jp	z,00110$
                           2030 ;	game.c 259
                           2031 ;	genIpush
                           2032 ; _saveRegsForCall: sendSetSize: 0 deInUse: 0 bcInUse: 0 deSending: 0
   035D 3E 40              2033 	ld	a,#0x40
   035F F5                 2034 	push	af
   0360 33                 2035 	inc	sp
                           2036 ;	genIpush
                           2037 ;	AOP_HL for _timer
   0361 21 61 18           2038 	ld	hl,#_timer
   0364 7E                 2039 	ld	a,(hl)
   0365 F5                 2040 	push	af
   0366 33                 2041 	inc	sp
                           2042 ;	genCall
   0367 CD 00 00           2043 	call	__moduchar_rrx_s
   036A 4B                 2044 	ld	c,e
   036B E8 02              2045 	lda	sp,2(sp)
                           2046 ;	genCmpEq
                           2047 ; genCmpEq: left 1, right 1, result 0
   036D 79                 2048 	ld	a,c
   036E B7                 2049 	or	a,a
   036F C2 98 03           2050 	jp	nz,00107$
   0372 18 03              2051 	jr	00155$
   0374                    2052 00154$:
   0374 C3 98 03           2053 	jp	00107$
   0377                    2054 00155$:
                           2055 ;	game.c 260
                           2056 ;	genIpush
                           2057 ; _saveRegsForCall: sendSetSize: 0 deInUse: 0 bcInUse: 0 deSending: 0
                           2058 ;	AOP_STK for _map_enviroment_tiles_sloc1_1_0
   0377 F8 07              2059 	lda	hl,7(sp)
   0379 2A                 2060 	ld	a,(hl+)
   037A 66                 2061 	ld	h,(hl)
   037B 6F                 2062 	ld	l,a
   037C E5                 2063 	push	hl
                           2064 ;	genIpush
   037D 21 19 01           2065 	ld	hl,#0x0119
   0380 E5                 2066 	push	hl
                           2067 ;	genCall
   0381 CD 00 00           2068 	call	_set_bkg_data
   0384 E8 04              2069 	lda	sp,4(sp)
                           2070 ;	game.c 261
                           2071 ;	genIpush
                           2072 ; _saveRegsForCall: sendSetSize: 0 deInUse: 0 bcInUse: 0 deSending: 0
                           2073 ;	AOP_STK for _map_enviroment_tiles_sloc3_1_0
   0386 F8 03              2074 	lda	hl,3(sp)
   0388 2A                 2075 	ld	a,(hl+)
   0389 66                 2076 	ld	h,(hl)
   038A 6F                 2077 	ld	l,a
   038B E5                 2078 	push	hl
                           2079 ;	genIpush
   038C 21 1A 01           2080 	ld	hl,#0x011A
   038F E5                 2081 	push	hl
                           2082 ;	genCall
   0390 CD 00 00           2083 	call	_set_bkg_data
   0393 E8 04              2084 	lda	sp,4(sp)
                           2085 ;	genGoto
   0395 C3 B6 03           2086 	jp	00110$
                           2087 ;	genLabel
   0398                    2088 00107$:
                           2089 ;	game.c 265
                           2090 ;	genIpush
                           2091 ; _saveRegsForCall: sendSetSize: 0 deInUse: 0 bcInUse: 0 deSending: 0
                           2092 ;	AOP_STK for _map_enviroment_tiles_sloc2_1_0
   0398 F8 05              2093 	lda	hl,5(sp)
   039A 2A                 2094 	ld	a,(hl+)
   039B 66                 2095 	ld	h,(hl)
   039C 6F                 2096 	ld	l,a
   039D E5                 2097 	push	hl
                           2098 ;	genIpush
   039E 21 19 01           2099 	ld	hl,#0x0119
   03A1 E5                 2100 	push	hl
                           2101 ;	genCall
   03A2 CD 00 00           2102 	call	_set_bkg_data
   03A5 E8 04              2103 	lda	sp,4(sp)
                           2104 ;	game.c 266
                           2105 ;	genIpush
                           2106 ; _saveRegsForCall: sendSetSize: 0 deInUse: 0 bcInUse: 0 deSending: 0
                           2107 ;	AOP_STK for _map_enviroment_tiles_sloc2_1_0
   03A7 F8 05              2108 	lda	hl,5(sp)
   03A9 2A                 2109 	ld	a,(hl+)
   03AA 66                 2110 	ld	h,(hl)
   03AB 6F                 2111 	ld	l,a
   03AC E5                 2112 	push	hl
                           2113 ;	genIpush
   03AD 21 1A 01           2114 	ld	hl,#0x011A
   03B0 E5                 2115 	push	hl
                           2116 ;	genCall
   03B1 CD 00 00           2117 	call	_set_bkg_data
   03B4 E8 04              2118 	lda	sp,4(sp)
                           2119 ;	genLabel
   03B6                    2120 00110$:
                           2121 ;	game.c 272
                           2122 ;	genCmpEq
                           2123 ;	AOP_HL for _input_timer
                           2124 ;	AOP_STK for _map_enviroment_tiles_sloc4_1_0
                           2125 ; genCmpEq: left 1, right 1, result 1
   03B6 21 63 18           2126 	ld	hl,#_input_timer
   03B9 7E                 2127 	ld	a,(hl)
   03BA B7                 2128 	or	a,a
   03BB C2 C2 03           2129 	jp	nz,00156$
   03BE 3E 01              2130 	ld	a,#0x01
   03C0 18 01              2131 	jr	00157$
   03C2                    2132 00156$:
   03C2 AF                 2133 	xor	a,a
   03C3                    2134 00157$:
   03C3 F8 01              2135 	lda	hl,1(sp)
   03C5 77                 2136 	ld	(hl),a
                           2137 ;	genIfx
                           2138 ;	AOP_STK for _map_enviroment_tiles_sloc4_1_0
   03C6 AF                 2139 	xor	a,a
   03C7 B6                 2140 	or	a,(hl)
   03C8 CA 48 04           2141 	jp	z,00120$
                           2142 ;	game.c 274
                           2143 ;	genCmpEq
                           2144 ;	AOP_HL for _timer
                           2145 ; genCmpEq: left 1, right 1, result 0
   03CB 21 61 18           2146 	ld	hl,#_timer
   03CE 7E                 2147 	ld	a,(hl)
   03CF B7                 2148 	or	a,a
   03D0 C2 48 04           2149 	jp	nz,00120$
   03D3 18 03              2150 	jr	00159$
   03D5                    2151 00158$:
   03D5 C3 48 04           2152 	jp	00120$
   03D8                    2153 00159$:
                           2154 ;	game.c 275
                           2155 ;	genAssign
                           2156 ;	AOP_STK for _map_enviroment_tiles_map_position_1_1
   03D8 F8 5B              2157 	lda	hl,91(sp)
   03DA 36 68              2158 	ld	(hl),#0x68
   03DC 23                 2159 	inc	hl
   03DD 36 01              2160 	ld	(hl),#0x01
                           2161 ;	game.c 276
                           2162 ;	genLabel
   03DF                    2163 00114$:
                           2164 ;	genCmpEq
                           2165 ;	AOP_STK for _map_enviroment_tiles_map_position_1_1
                           2166 ; genCmpEq: left 2, right 2, result 0
   03DF F8 5B              2167 	lda	hl,91(sp)
   03E1 2A                 2168 	ld	a,(hl+)
   03E2 B6                 2169 	or	a,(hl)
   03E3 CA 48 04           2170 	jp	z,00120$
   03E6                    2171 00160$:
                           2172 ;	game.c 277
                           2173 ;	genMinus
                           2174 ;	AOP_STK for _map_enviroment_tiles_map_position_1_1
   03E6 F8 5B              2175 	lda	hl,91(sp)
   03E8 5E                 2176 	ld	e,(hl)
   03E9 23                 2177 	inc	hl
   03EA 56                 2178 	ld	d,(hl)
   03EB 1B                 2179 	dec	de
   03EC 2B                 2180 	dec	hl
   03ED 73                 2181 	ld	(hl),e
   03EE 23                 2182 	inc	hl
   03EF 72                 2183 	ld	(hl),d
                           2184 ;	game.c 279
                           2185 ;	genPlus
                           2186 ;	AOP_STK for _map_enviroment_tiles_map_position_1_1
                           2187 ;	AOP_STK for _map_enviroment_tiles_sloc3_1_0
                           2188 ;	Can't optimise plus by inc, falling back to the normal way
   03F0 11 65 18           2189 	ld	de,#_map
   03F3 2B                 2190 	dec	hl
   03F4 2A                 2191 	ld	a,(hl+)
   03F5 66                 2192 	ld	h,(hl)
   03F6 6F                 2193 	ld	l,a
   03F7 19                 2194 	add	hl,de
   03F8 7D                 2195 	ld	a,l
   03F9 54                 2196 	ld	d,h
   03FA F8 03              2197 	lda	hl,3(sp)
                           2198 ;	genPointerGet
                           2199 ;	AOP_STK for _map_enviroment_tiles_sloc3_1_0
   03FC 22                 2200 	ld	(hl+),a
   03FD 72                 2201 	ld	(hl),d
   03FE 5F                 2202 	ld	e,a
   03FF 1A                 2203 	ld	a,(de)
   0400 4F                 2204 	ld	c,a
                           2205 ;	genCast
                           2206 ; Removed redundent load
   0401 06 00              2207 	ld	b,#0x00
                           2208 ;	genCmpEq
                           2209 ; genCmpEq: left 2, right 2, result 0
   0403 79                 2210 	ld	a,c
   0404 FE 19              2211 	cp	a,#0x19
   0406 C2 0E 04           2212 	jp	nz,00161$
   0409 78                 2213 	ld	a,b
   040A B7                 2214 	or	a,a
   040B CA 1C 04           2215 	jp	z,00111$
   040E                    2216 00161$:
                           2217 ;	genCmpEq
                           2218 ; genCmpEq: left 2, right 2, result 0
   040E 79                 2219 	ld	a,c
   040F FE 1A              2220 	cp	a,#0x1A
   0411 C2 19 04           2221 	jp	nz,00162$
   0414 78                 2222 	ld	a,b
   0415 B7                 2223 	or	a,a
   0416 CA 32 04           2224 	jp	z,00112$
   0419                    2225 00162$:
                           2226 ;	genGoto
   0419 C3 DF 03           2227 	jp	00114$
                           2228 ;	game.c 281
                           2229 ;	genLabel
   041C                    2230 00111$:
                           2231 ;	genAssign (pointer)
                           2232 ;	AOP_STK for _map_enviroment_tiles_sloc3_1_0
   041C F8 03              2233 	lda	hl,3(sp)
   041E 5E                 2234 	ld	e,(hl)
   041F 23                 2235 	inc	hl
   0420 56                 2236 	ld	d,(hl)
   0421 3E 1A              2237 	ld	a,#0x1A
   0423 12                 2238 	ld	(de),a
                           2239 ;	game.c 282
                           2240 ;	genIpush
                           2241 ; _saveRegsForCall: sendSetSize: 0 deInUse: 0 bcInUse: 0 deSending: 0
                           2242 ;	AOP_STK for _map_enviroment_tiles_map_position_1_1
   0424 F8 5B              2243 	lda	hl,91(sp)
   0426 2A                 2244 	ld	a,(hl+)
   0427 66                 2245 	ld	h,(hl)
   0428 6F                 2246 	ld	l,a
   0429 E5                 2247 	push	hl
                           2248 ;	genCall
   042A CD 0F 01           2249 	call	_spread_fire
   042D E8 02              2250 	lda	sp,2(sp)
                           2251 ;	game.c 283
                           2252 ;	genGoto
   042F C3 DF 03           2253 	jp	00114$
                           2254 ;	game.c 286
                           2255 ;	genLabel
   0432                    2256 00112$:
                           2257 ;	genIpush
                           2258 ; _saveRegsForCall: sendSetSize: 0 deInUse: 0 bcInUse: 0 deSending: 0
                           2259 ;	AOP_STK for _map_enviroment_tiles_map_position_1_1
   0432 F8 5B              2260 	lda	hl,91(sp)
   0434 2A                 2261 	ld	a,(hl+)
   0435 66                 2262 	ld	h,(hl)
   0436 6F                 2263 	ld	l,a
   0437 E5                 2264 	push	hl
                           2265 ;	genCall
   0438 CD 0F 01           2266 	call	_spread_fire
   043B E8 02              2267 	lda	sp,2(sp)
                           2268 ;	game.c 287
                           2269 ;	genAssign (pointer)
                           2270 ;	AOP_STK for _map_enviroment_tiles_sloc3_1_0
   043D F8 03              2271 	lda	hl,3(sp)
   043F 5E                 2272 	ld	e,(hl)
   0440 23                 2273 	inc	hl
   0441 56                 2274 	ld	d,(hl)
   0442 3E 31              2275 	ld	a,#0x31
   0444 12                 2276 	ld	(de),a
                           2277 ;	game.c 290
                           2278 ;	genGoto
   0445 C3 DF 03           2279 	jp	00114$
                           2280 ;	genLabel
   0448                    2281 00120$:
                           2282 ;	game.c 346
                           2283 ;	genIfx
                           2284 ;	AOP_STK for _map_enviroment_tiles_sloc4_1_0
   0448 AF                 2285 	xor	a,a
   0449 F8 01              2286 	lda	hl,1(sp)
   044B B6                 2287 	or	a,(hl)
   044C CA BD 04           2288 	jp	z,00129$
                           2289 ;	genIfx
                           2290 ;	AOP_STK for _map_enviroment_tiles_sloc5_1_0
   044F AF                 2291 	xor	a,a
   0450 2B                 2292 	dec	hl
   0451 B6                 2293 	or	a,(hl)
   0452 CA BD 04           2294 	jp	z,00129$
                           2295 ;	game.c 347
                           2296 ;	genAssign
                           2297 ;	AOP_STK for _map_enviroment_tiles_map_position_1_1
   0455 F8 5B              2298 	lda	hl,91(sp)
   0457 36 68              2299 	ld	(hl),#0x68
   0459 23                 2300 	inc	hl
   045A 36 01              2301 	ld	(hl),#0x01
                           2302 ;	game.c 348
                           2303 ;	genLabel
   045C                    2304 00125$:
                           2305 ;	genCmpEq
                           2306 ;	AOP_STK for _map_enviroment_tiles_map_position_1_1
                           2307 ; genCmpEq: left 2, right 2, result 0
   045C F8 5B              2308 	lda	hl,91(sp)
   045E 2A                 2309 	ld	a,(hl+)
   045F B6                 2310 	or	a,(hl)
   0460 CA BD 04           2311 	jp	z,00129$
   0463                    2312 00163$:
                           2313 ;	game.c 349
                           2314 ;	genMinus
                           2315 ;	AOP_STK for _map_enviroment_tiles_map_position_1_1
   0463 F8 5B              2316 	lda	hl,91(sp)
   0465 5E                 2317 	ld	e,(hl)
   0466 23                 2318 	inc	hl
   0467 56                 2319 	ld	d,(hl)
   0468 1B                 2320 	dec	de
   0469 2B                 2321 	dec	hl
   046A 73                 2322 	ld	(hl),e
   046B 23                 2323 	inc	hl
   046C 72                 2324 	ld	(hl),d
                           2325 ;	game.c 351
                           2326 ;	genPlus
                           2327 ;	AOP_STK for _map_enviroment_tiles_map_position_1_1
                           2328 ;	Can't optimise plus by inc, falling back to the normal way
   046D 11 65 18           2329 	ld	de,#_map
   0470 2B                 2330 	dec	hl
   0471 2A                 2331 	ld	a,(hl+)
   0472 66                 2332 	ld	h,(hl)
   0473 6F                 2333 	ld	l,a
   0474 19                 2334 	add	hl,de
   0475 4D                 2335 	ld	c,l
   0476 44                 2336 	ld	b,h
                           2337 ;	genPointerGet
                           2338 ;	AOP_STK for _map_enviroment_tiles_sloc5_1_0
   0477 0A                 2339 	ld	a,(bc)
   0478 F8 00              2340 	lda	hl,0(sp)
   047A 77                 2341 	ld	(hl),a
                           2342 ;	genCast
                           2343 ;	AOP_STK for _map_enviroment_tiles_sloc5_1_0
                           2344 ;	AOP_STK for _map_enviroment_tiles_sloc4_1_0
   047B 2A                 2345 	ld	a,(hl+)
   047C 22                 2346 	ld	(hl+),a
   047D 36 00              2347 	ld	(hl),#0x00
                           2348 ;	genCmpEq
                           2349 ;	AOP_STK for _map_enviroment_tiles_sloc4_1_0
                           2350 ; genCmpEq: left 2, right 2, result 0
   047F 2B                 2351 	dec	hl
   0480 7E                 2352 	ld	a,(hl)
   0481 FE 11              2353 	cp	a,#0x11
   0483 C2 8C 04           2354 	jp	nz,00164$
   0486 23                 2355 	inc	hl
   0487 7E                 2356 	ld	a,(hl)
   0488 B7                 2357 	or	a,a
   0489 CA AB 04           2358 	jp	z,00121$
   048C                    2359 00164$:
                           2360 ;	genCmpEq
                           2361 ;	AOP_STK for _map_enviroment_tiles_sloc4_1_0
                           2362 ; genCmpEq: left 2, right 2, result 0
   048C F8 01              2363 	lda	hl,1(sp)
   048E 7E                 2364 	ld	a,(hl)
   048F FE 13              2365 	cp	a,#0x13
   0491 C2 9A 04           2366 	jp	nz,00165$
   0494 23                 2367 	inc	hl
   0495 7E                 2368 	ld	a,(hl)
   0496 B7                 2369 	or	a,a
   0497 CA B1 04           2370 	jp	z,00122$
   049A                    2371 00165$:
                           2372 ;	genCmpEq
                           2373 ;	AOP_STK for _map_enviroment_tiles_sloc4_1_0
                           2374 ; genCmpEq: left 2, right 2, result 0
   049A F8 01              2375 	lda	hl,1(sp)
   049C 7E                 2376 	ld	a,(hl)
   049D FE 1B              2377 	cp	a,#0x1B
   049F C2 A8 04           2378 	jp	nz,00166$
   04A2 23                 2379 	inc	hl
   04A3 7E                 2380 	ld	a,(hl)
   04A4 B7                 2381 	or	a,a
   04A5 CA B7 04           2382 	jp	z,00123$
   04A8                    2383 00166$:
                           2384 ;	genGoto
   04A8 C3 5C 04           2385 	jp	00125$
                           2386 ;	game.c 353
                           2387 ;	genLabel
   04AB                    2388 00121$:
                           2389 ;	genAssign (pointer)
   04AB 3E 0C              2390 	ld	a,#0x0C
   04AD 02                 2391 	ld	(bc),a
                           2392 ;	game.c 354
                           2393 ;	genGoto
   04AE C3 5C 04           2394 	jp	00125$
                           2395 ;	game.c 356
                           2396 ;	genLabel
   04B1                    2397 00122$:
                           2398 ;	genAssign (pointer)
   04B1 3E 0C              2399 	ld	a,#0x0C
   04B3 02                 2400 	ld	(bc),a
                           2401 ;	game.c 358
                           2402 ;	genGoto
   04B4 C3 5C 04           2403 	jp	00125$
                           2404 ;	game.c 360
                           2405 ;	genLabel
   04B7                    2406 00123$:
                           2407 ;	genAssign (pointer)
   04B7 3E 19              2408 	ld	a,#0x19
   04B9 02                 2409 	ld	(bc),a
                           2410 ;	game.c 362
                           2411 ;	genGoto
   04BA C3 5C 04           2412 	jp	00125$
                           2413 ;	genLabel
   04BD                    2414 00129$:
                           2415 ;	game.c 366
                           2416 ;	genIpush
                           2417 ; _saveRegsForCall: sendSetSize: 0 deInUse: 0 bcInUse: 0 deSending: 0
   04BD 21 65 18           2418 	ld	hl,#_map
   04C0 E5                 2419 	push	hl
                           2420 ;	genIpush
   04C1 21 14 12           2421 	ld	hl,#0x1214
   04C4 E5                 2422 	push	hl
                           2423 ;	genIpush
   04C5 21 00 00           2424 	ld	hl,#0x0000
   04C8 E5                 2425 	push	hl
                           2426 ;	genCall
   04C9 CD 00 00           2427 	call	_set_bkg_tiles
   04CC E8 06              2428 	lda	sp,6(sp)
                           2429 ;	genLabel
   04CE                    2430 00131$:
                           2431 ;	genEndFunction
   04CE E8 5D              2432 	lda	sp,93(sp)
   04D0 C9                 2433 	ret
   04D1                    2434 ___map_enviroment_tiles_end:
                           2435 ;	game.c 370
                           2436 ;	genLabel
                           2437 ;	genFunction
                           2438 ;	---------------------------------
                           2439 ; Function change_char
                           2440 ; ---------------------------------
   04D1                    2441 ___change_char_start:
   04D1                    2442 _change_char:
                           2443 	
                           2444 ;	game.c 372
                           2445 ;	genCmpEq
                           2446 ;	AOP_HL for _characters_available
                           2447 ; genCmpEq: left 1, right 1, result 0
   04D1 21 62 18           2448 	ld	hl,#_characters_available
   04D4 7E                 2449 	ld	a,(hl)
   04D5 FE 01              2450 	cp	a,#0x01
   04D7 C2 E5 04           2451 	jp	nz,00102$
   04DA 18 03              2452 	jr	00135$
   04DC                    2453 00134$:
   04DC C3 E5 04           2454 	jp	00102$
   04DF                    2455 00135$:
                           2456 ;	game.c 373
                           2457 ;	genRet
   04DF 11 00 00           2458 	ld	de,#0x0000
   04E2 C3 E9 05           2459 	jp	00121$
                           2460 ;	genLabel
   04E5                    2461 00102$:
                           2462 ;	game.c 378
                           2463 ;	genCmpEq
                           2464 ;	AOP_HL for _characters_available
                           2465 ; genCmpEq: left 1, right 1, result 0
   04E5 21 62 18           2466 	ld	hl,#_characters_available
   04E8 7E                 2467 	ld	a,(hl)
   04E9 FE 02              2468 	cp	a,#0x02
   04EB C2 26 05           2469 	jp	nz,00107$
   04EE 18 03              2470 	jr	00137$
   04F0                    2471 00136$:
   04F0 C3 26 05           2472 	jp	00107$
   04F3                    2473 00137$:
                           2474 ;	game.c 379
                           2475 ;	genAssign
                           2476 ;	AOP_HL for _player
   04F3 21 13 1A           2477 	ld	hl,#_player
   04F6 4E                 2478 	ld	c,(hl)
   04F7 23                 2479 	inc	hl
   04F8 46                 2480 	ld	b,(hl)
                           2481 ;	genPlus
                           2482 ;	genPlusIncr
                           2483 ;	Can't optimise plus by inc, falling back to the normal way
   04F9 79                 2484 	ld	a,c
   04FA C6 0B              2485 	add	a,#0x0B
   04FC 4F                 2486 	ld	c,a
   04FD 78                 2487 	ld	a,b
   04FE CE 00              2488 	adc	a,#0x00
   0500 47                 2489 	ld	b,a
                           2490 ;	genPointerGet
   0501 0A                 2491 	ld	a,(bc)
                           2492 ;	genCmpEq
                           2493 ; genCmpEq: left 1, right 1, result 0
   0502 4F                 2494 	ld	c,a
   0503 FE 01              2495 	cp	a,#0x01
   0505 CA 11 05           2496 	jp	z,00103$
   0508                    2497 00138$:
                           2498 ;	genCmpEq
                           2499 ; genCmpEq: left 1, right 1, result 0
   0508 79                 2500 	ld	a,c
   0509 FE 02              2501 	cp	a,#0x02
   050B CA 1D 05           2502 	jp	z,00104$
   050E                    2503 00139$:
                           2504 ;	genGoto
   050E C3 26 05           2505 	jp	00107$
                           2506 ;	game.c 381
                           2507 ;	genLabel
   0511                    2508 00103$:
                           2509 ;	genAddrOf
                           2510 ;	AOP_HL for _player
   0511 11 DB 19           2511 	ld	de,#_dog1
   0514 21 13 1A           2512 	ld	hl,#_player
   0517 73                 2513 	ld	(hl),e
   0518 23                 2514 	inc	hl
   0519 72                 2515 	ld	(hl),d
                           2516 ;	game.c 382
                           2517 ;	genGoto
   051A C3 26 05           2518 	jp	00107$
                           2519 ;	game.c 384
                           2520 ;	genLabel
   051D                    2521 00104$:
                           2522 ;	genAddrOf
                           2523 ;	AOP_HL for _player
   051D 11 CD 19           2524 	ld	de,#_bunny
   0520 21 13 1A           2525 	ld	hl,#_player
   0523 73                 2526 	ld	(hl),e
   0524 23                 2527 	inc	hl
   0525 72                 2528 	ld	(hl),d
                           2529 ;	game.c 386
                           2530 ;	genLabel
   0526                    2531 00107$:
                           2532 ;	game.c 388
                           2533 ;	genCmpEq
                           2534 ;	AOP_HL for _characters_available
                           2535 ; genCmpEq: left 1, right 1, result 0
   0526 21 62 18           2536 	ld	hl,#_characters_available
   0529 7E                 2537 	ld	a,(hl)
   052A FE 03              2538 	cp	a,#0x03
   052C C2 79 05           2539 	jp	nz,00113$
   052F 18 03              2540 	jr	00141$
   0531                    2541 00140$:
   0531 C3 79 05           2542 	jp	00113$
   0534                    2543 00141$:
                           2544 ;	game.c 389
                           2545 ;	genAssign
                           2546 ;	AOP_HL for _player
   0534 21 13 1A           2547 	ld	hl,#_player
   0537 4E                 2548 	ld	c,(hl)
   0538 23                 2549 	inc	hl
   0539 46                 2550 	ld	b,(hl)
                           2551 ;	genPlus
                           2552 ;	genPlusIncr
                           2553 ;	Can't optimise plus by inc, falling back to the normal way
   053A 79                 2554 	ld	a,c
   053B C6 0B              2555 	add	a,#0x0B
   053D 4F                 2556 	ld	c,a
   053E 78                 2557 	ld	a,b
   053F CE 00              2558 	adc	a,#0x00
   0541 47                 2559 	ld	b,a
                           2560 ;	genPointerGet
   0542 0A                 2561 	ld	a,(bc)
                           2562 ;	genCmpEq
                           2563 ; genCmpEq: left 1, right 1, result 0
   0543 4F                 2564 	ld	c,a
   0544 FE 01              2565 	cp	a,#0x01
   0546 CA 58 05           2566 	jp	z,00108$
   0549                    2567 00142$:
                           2568 ;	genCmpEq
                           2569 ; genCmpEq: left 1, right 1, result 0
   0549 79                 2570 	ld	a,c
   054A FE 02              2571 	cp	a,#0x02
   054C CA 64 05           2572 	jp	z,00109$
   054F                    2573 00143$:
                           2574 ;	genCmpEq
                           2575 ; genCmpEq: left 1, right 1, result 0
   054F 79                 2576 	ld	a,c
   0550 FE 03              2577 	cp	a,#0x03
   0552 CA 70 05           2578 	jp	z,00110$
   0555                    2579 00144$:
                           2580 ;	genGoto
   0555 C3 79 05           2581 	jp	00113$
                           2582 ;	game.c 391
                           2583 ;	genLabel
   0558                    2584 00108$:
                           2585 ;	genAddrOf
                           2586 ;	AOP_HL for _player
   0558 11 DB 19           2587 	ld	de,#_dog1
   055B 21 13 1A           2588 	ld	hl,#_player
   055E 73                 2589 	ld	(hl),e
   055F 23                 2590 	inc	hl
   0560 72                 2591 	ld	(hl),d
                           2592 ;	game.c 392
                           2593 ;	genGoto
   0561 C3 79 05           2594 	jp	00113$
                           2595 ;	game.c 394
                           2596 ;	genLabel
   0564                    2597 00109$:
                           2598 ;	genAddrOf
                           2599 ;	AOP_HL for _player
   0564 11 E9 19           2600 	ld	de,#_dog2
   0567 21 13 1A           2601 	ld	hl,#_player
   056A 73                 2602 	ld	(hl),e
   056B 23                 2603 	inc	hl
   056C 72                 2604 	ld	(hl),d
                           2605 ;	game.c 395
                           2606 ;	genGoto
   056D C3 79 05           2607 	jp	00113$
                           2608 ;	game.c 397
                           2609 ;	genLabel
   0570                    2610 00110$:
                           2611 ;	genAddrOf
                           2612 ;	AOP_HL for _player
   0570 11 CD 19           2613 	ld	de,#_bunny
   0573 21 13 1A           2614 	ld	hl,#_player
   0576 73                 2615 	ld	(hl),e
   0577 23                 2616 	inc	hl
   0578 72                 2617 	ld	(hl),d
                           2618 ;	game.c 399
                           2619 ;	genLabel
   0579                    2620 00113$:
                           2621 ;	game.c 401
                           2622 ;	genCmpEq
                           2623 ;	AOP_HL for _characters_available
                           2624 ; genCmpEq: left 1, right 1, result 0
   0579 21 62 18           2625 	ld	hl,#_characters_available
   057C 7E                 2626 	ld	a,(hl)
   057D FE 04              2627 	cp	a,#0x04
   057F C2 E6 05           2628 	jp	nz,00120$
   0582 18 03              2629 	jr	00146$
   0584                    2630 00145$:
   0584 C3 E6 05           2631 	jp	00120$
   0587                    2632 00146$:
                           2633 ;	game.c 402
                           2634 ;	genAssign
                           2635 ;	AOP_HL for _player
   0587 21 13 1A           2636 	ld	hl,#_player
   058A 4E                 2637 	ld	c,(hl)
   058B 23                 2638 	inc	hl
   058C 46                 2639 	ld	b,(hl)
                           2640 ;	genPlus
                           2641 ;	genPlusIncr
                           2642 ;	Can't optimise plus by inc, falling back to the normal way
   058D 79                 2643 	ld	a,c
   058E C6 0B              2644 	add	a,#0x0B
   0590 4F                 2645 	ld	c,a
   0591 78                 2646 	ld	a,b
   0592 CE 00              2647 	adc	a,#0x00
   0594 47                 2648 	ld	b,a
                           2649 ;	genPointerGet
   0595 0A                 2650 	ld	a,(bc)
                           2651 ;	genCmpLt
   0596 4F                 2652 	ld	c,a
   0597 FE 01              2653 	cp	#0x01
   0599 DA E6 05           2654 	jp	c,00120$
                           2655 ;	genCmpGt
   059C 3E 04              2656 	ld	a,#0x04
   059E 91                 2657 	sub	a,c
   059F DA E6 05           2658 	jp	c,00120$
                           2659 ;	genMinus
   05A2 0D                 2660 	dec	c
                           2661 ;	genJumpTab
   05A3 59                 2662 	ld	e,c
   05A4 16 00              2663 	ld	d,#0x00
   05A6 21 AD 05           2664 	ld	hl,#00147$
   05A9 19                 2665 	add	hl,de
   05AA 19                 2666 	add	hl,de
   05AB 19                 2667 	add	hl,de
   05AC E9                 2668 	jp	(hl)
   05AD                    2669 00147$:
   05AD C3 B9 05           2670 	jp	00114$
   05B0 C3 C5 05           2671 	jp	00115$
   05B3 C3 D1 05           2672 	jp	00116$
   05B6 C3 DD 05           2673 	jp	00117$
                           2674 ;	game.c 404
                           2675 ;	genLabel
   05B9                    2676 00114$:
                           2677 ;	genAddrOf
                           2678 ;	AOP_HL for _player
   05B9 11 DB 19           2679 	ld	de,#_dog1
   05BC 21 13 1A           2680 	ld	hl,#_player
   05BF 73                 2681 	ld	(hl),e
   05C0 23                 2682 	inc	hl
   05C1 72                 2683 	ld	(hl),d
                           2684 ;	game.c 405
                           2685 ;	genGoto
   05C2 C3 E6 05           2686 	jp	00120$
                           2687 ;	game.c 407
                           2688 ;	genLabel
   05C5                    2689 00115$:
                           2690 ;	genAddrOf
                           2691 ;	AOP_HL for _player
   05C5 11 E9 19           2692 	ld	de,#_dog2
   05C8 21 13 1A           2693 	ld	hl,#_player
   05CB 73                 2694 	ld	(hl),e
   05CC 23                 2695 	inc	hl
   05CD 72                 2696 	ld	(hl),d
                           2697 ;	game.c 408
                           2698 ;	genGoto
   05CE C3 E6 05           2699 	jp	00120$
                           2700 ;	game.c 410
                           2701 ;	genLabel
   05D1                    2702 00116$:
                           2703 ;	genAddrOf
                           2704 ;	AOP_HL for _player
   05D1 11 F7 19           2705 	ld	de,#_cat
   05D4 21 13 1A           2706 	ld	hl,#_player
   05D7 73                 2707 	ld	(hl),e
   05D8 23                 2708 	inc	hl
   05D9 72                 2709 	ld	(hl),d
                           2710 ;	game.c 411
                           2711 ;	genGoto
   05DA C3 E6 05           2712 	jp	00120$
                           2713 ;	game.c 413
                           2714 ;	genLabel
   05DD                    2715 00117$:
                           2716 ;	genAddrOf
                           2717 ;	AOP_HL for _player
   05DD 11 CD 19           2718 	ld	de,#_bunny
   05E0 21 13 1A           2719 	ld	hl,#_player
   05E3 73                 2720 	ld	(hl),e
   05E4 23                 2721 	inc	hl
   05E5 72                 2722 	ld	(hl),d
                           2723 ;	game.c 415
                           2724 ;	genLabel
   05E6                    2725 00120$:
                           2726 ;	game.c 420
                           2727 ;	genCall
                           2728 ; _saveRegsForCall: sendSetSize: 0 deInUse: 0 bcInUse: 0 deSending: 0
   05E6 CD B3 14           2729 	call	_rotate_player
                           2730 ;	genLabel
   05E9                    2731 00121$:
                           2732 ;	genEndFunction
                           2733 	
   05E9 C9                 2734 	ret
   05EA                    2735 ___change_char_end:
                           2736 ;	game.c 424
                           2737 ;	genLabel
                           2738 ;	genFunction
                           2739 ;	---------------------------------
                           2740 ; Function map_loop
                           2741 ; ---------------------------------
   05EA                    2742 ___map_loop_start:
   05EA                    2743 _map_loop:
                           2744 	
                           2745 ;	game.c 426
                           2746 ;	genIpush
                           2747 ; _saveRegsForCall: sendSetSize: 0 deInUse: 0 bcInUse: 0 deSending: 0
   05EA 21 13 1A           2748 	ld	hl,#_player
   05ED E5                 2749 	push	hl
                           2750 ;	genCall
   05EE CD 8D 0B           2751 	call	_is_ded
   05F1 42                 2752 	ld	b,d
   05F2 4B                 2753 	ld	c,e
   05F3 E8 02              2754 	lda	sp,2(sp)
                           2755 ;	genIfx
   05F5 79                 2756 	ld	a,c
   05F6 B0                 2757 	or	a,b
   05F7 CA FD 05           2758 	jp	z,00102$
                           2759 ;	game.c 427
                           2760 ;	genCall
                           2761 ; _saveRegsForCall: sendSetSize: 0 deInUse: 0 bcInUse: 0 deSending: 0
   05FA CD F5 07           2762 	call	_map_init
                           2763 ;	genLabel
   05FD                    2764 00102$:
                           2765 ;	game.c 430
                           2766 ;	genIpush
                           2767 ; _saveRegsForCall: sendSetSize: 0 deInUse: 0 bcInUse: 0 deSending: 0
   05FD 21 13 1A           2768 	ld	hl,#_player
   0600 E5                 2769 	push	hl
                           2770 ;	genCall
   0601 CD A3 09           2771 	call	_got_door
   0604 E8 02              2772 	lda	sp,2(sp)
                           2773 ;	game.c 432
                           2774 ;	genIpush
                           2775 ; _saveRegsForCall: sendSetSize: 0 deInUse: 0 bcInUse: 0 deSending: 0
   0606 21 13 1A           2776 	ld	hl,#_player
   0609 E5                 2777 	push	hl
                           2778 ;	genCall
   060A CD F6 08           2779 	call	_got_key
   060D E8 02              2780 	lda	sp,2(sp)
                           2781 ;	game.c 433
                           2782 ;	genCall
                           2783 ; _saveRegsForCall: sendSetSize: 0 deInUse: 0 bcInUse: 0 deSending: 0
   060F CD 24 02           2784 	call	_map_enviroment_tiles
                           2785 ;	game.c 436
                           2786 ;	genIpush
                           2787 ; _saveRegsForCall: sendSetSize: 0 deInUse: 0 bcInUse: 0 deSending: 0
   0612 21 13 1A           2788 	ld	hl,#_player
   0615 E5                 2789 	push	hl
                           2790 ;	genCall
   0616 CD 6B 11           2791 	call	_player_input
   0619 E8 02              2792 	lda	sp,2(sp)
                           2793 ;	game.c 439
                           2794 ;	genIpush
                           2795 ; _saveRegsForCall: sendSetSize: 0 deInUse: 0 bcInUse: 0 deSending: 0
   061B 21 CD 19           2796 	ld	hl,#_bunny
   061E E5                 2797 	push	hl
                           2798 ;	genCall
   061F CD 59 16           2799 	call	_move_character
   0622 E8 02              2800 	lda	sp,2(sp)
                           2801 ;	game.c 440
                           2802 ;	genIpush
                           2803 ; _saveRegsForCall: sendSetSize: 0 deInUse: 0 bcInUse: 0 deSending: 0
   0624 21 DB 19           2804 	ld	hl,#_dog1
   0627 E5                 2805 	push	hl
                           2806 ;	genCall
   0628 CD 59 16           2807 	call	_move_character
   062B E8 02              2808 	lda	sp,2(sp)
                           2809 ;	game.c 441
                           2810 ;	genIpush
                           2811 ; _saveRegsForCall: sendSetSize: 0 deInUse: 0 bcInUse: 0 deSending: 0
   062D 21 E9 19           2812 	ld	hl,#_dog2
   0630 E5                 2813 	push	hl
                           2814 ;	genCall
   0631 CD 59 16           2815 	call	_move_character
   0634 E8 02              2816 	lda	sp,2(sp)
                           2817 ;	game.c 442
                           2818 ;	genIpush
                           2819 ; _saveRegsForCall: sendSetSize: 0 deInUse: 0 bcInUse: 0 deSending: 0
   0636 21 F7 19           2820 	ld	hl,#_cat
   0639 E5                 2821 	push	hl
                           2822 ;	genCall
   063A CD 59 16           2823 	call	_move_character
   063D E8 02              2824 	lda	sp,2(sp)
                           2825 ;	genLabel
   063F                    2826 00103$:
                           2827 ;	genEndFunction
                           2828 	
   063F C9                 2829 	ret
   0640                    2830 ___map_loop_end:
                           2831 ;	game.c 447
                           2832 ;	genLabel
                           2833 ;	genFunction
                           2834 ;	---------------------------------
                           2835 ; Function helper_copy_map
                           2836 ; ---------------------------------
   0640                    2837 ___helper_copy_map_start:
   0640                    2838 _helper_copy_map:
   0640 E8 FC              2839 	lda	sp,-4(sp)
                           2840 ;	game.c 449
                           2841 ;	genAssign
   0642 01 00 00           2842 	ld	bc,#0x0000
                           2843 ;	genLabel
   0645                    2844 00101$:
                           2845 ;	genCmpLt
   0645 79                 2846 	ld	a,c
   0646 D6 68              2847 	sub	a,#0x68
   0648 78                 2848 	ld	a,b
   0649 DE 01              2849 	sbc	a,#0x01
   064B D2 6F 06           2850 	jp	nc,00105$
                           2851 ;	game.c 450
                           2852 ;	genPlus
                           2853 ;	AOP_STK for _helper_copy_map_sloc0_1_0
                           2854 ;	Can't optimise plus by inc, falling back to the normal way
   064E 21 65 18           2855 	ld	hl,#_map
   0651 09                 2856 	add	hl,bc
   0652 7D                 2857 	ld	a,l
   0653 54                 2858 	ld	d,h
   0654 F8 02              2859 	lda	hl,2(sp)
   0656 22                 2860 	ld	(hl+),a
   0657 72                 2861 	ld	(hl),d
                           2862 ;	genPlus
                           2863 ;	AOP_STK for 
                           2864 ;	AOP_STK for _helper_copy_map_sloc1_1_0
                           2865 ;	Can't optimise plus by inc, falling back to the normal way
   0658 F8 06              2866 	lda	hl,6(sp)
   065A 2A                 2867 	ld	a,(hl+)
   065B 66                 2868 	ld	h,(hl)
   065C 6F                 2869 	ld	l,a
   065D 09                 2870 	add	hl,bc
   065E 7D                 2871 	ld	a,l
   065F 54                 2872 	ld	d,h
   0660 F8 00              2873 	lda	hl,0(sp)
                           2874 ;	genPointerGet
                           2875 ;	AOP_STK for _helper_copy_map_sloc1_1_0
   0662 22                 2876 	ld	(hl+),a
   0663 72                 2877 	ld	(hl),d
   0664 5F                 2878 	ld	e,a
   0665 1A                 2879 	ld	a,(de)
                           2880 ;	genAssign (pointer)
                           2881 ;	AOP_STK for _helper_copy_map_sloc0_1_0
   0666 23                 2882 	inc	hl
   0667 5E                 2883 	ld	e,(hl)
   0668 23                 2884 	inc	hl
   0669 56                 2885 	ld	d,(hl)
   066A 12                 2886 	ld	(de),a
                           2887 ;	game.c 449
                           2888 ;	genPlus
                           2889 ;	genPlusIncr
   066B 03                 2890 	inc	bc
                           2891 ;	genGoto
   066C C3 45 06           2892 	jp	00101$
                           2893 ;	genLabel
   066F                    2894 00105$:
                           2895 ;	genEndFunction
   066F E8 04              2896 	lda	sp,4(sp)
   0671 C9                 2897 	ret
   0672                    2898 ___helper_copy_map_end:
                           2899 ;	game.c 454
                           2900 ;	genLabel
                           2901 ;	genFunction
                           2902 ;	---------------------------------
                           2903 ; Function helper_copy_map_smaller
                           2904 ; ---------------------------------
   0672                    2905 ___helper_copy_map_smaller_start:
   0672                    2906 _helper_copy_map_smaller:
   0672 E8 F5              2907 	lda	sp,-11(sp)
                           2908 ;	game.c 455
                           2909 ;	genMinus
                           2910 ;	AOP_STK for 
   0674 3E 14              2911 	ld	a,#0x14
   0676 F8 0F              2912 	lda	hl,15(sp)
   0678 96                 2913 	sub	a,(hl)
                           2914 ;	genRightShift
                           2915 ;	AOP_STK for _helper_copy_map_smaller_gap_width_1_1
   0679 4F                 2916 	ld	c,a
   067A CB 3F              2917 	srl	a
   067C F8 0A              2918 	lda	hl,10(sp)
                           2919 ;	game.c 460
                           2920 ;	genAssign
                           2921 ;	AOP_STK for _helper_copy_map_smaller_i_1_1
   067E 32                 2922 	ld      (hl-),a
   067F 2B                 2923 	dec	hl
   0680 36 00              2924 	ld	(hl),#0x00
   0682 23                 2925 	inc	hl
   0683 36 00              2926 	ld	(hl),#0x00
                           2927 ;	game.c 461
                           2928 ;	genAssign
                           2929 ;	AOP_STK for _helper_copy_map_smaller_j_1_1
   0685 F8 06              2930 	lda	hl,6(sp)
   0687 36 00              2931 	ld	(hl),#0x00
   0689 23                 2932 	inc	hl
   068A 36 00              2933 	ld	(hl),#0x00
                           2934 ;	game.c 462
                           2935 ;	genPlus
                           2936 ;	AOP_STK for _helper_copy_map_smaller_gap_width_1_1
                           2937 ;	AOP_STK for 
                           2938 ;	Can't optimise plus by inc, falling back to the normal way
   068C F8 0A              2939 	lda	hl,10(sp)
   068E 7E                 2940 	ld	a,(hl)
   068F F8 0F              2941 	lda	hl,15(sp)
   0691 86                 2942 	add	a,(hl)
                           2943 ;	genPlus
                           2944 ;	AOP_STK for 
                           2945 ;	genPlusIncr
                           2946 ;	Can't optimise plus by inc, falling back to the normal way
   0692 4F                 2947 	ld	c,a
   0693 C6 01              2948 	add	a,#0x01
   0695 77                 2949 	ld	(hl),a
                           2950 ;	game.c 464
                           2951 ;	genLabel
   0696                    2952 00106$:
                           2953 ;	genCmpLt
                           2954 ;	AOP_STK for _helper_copy_map_smaller_i_1_1
   0696 F8 08              2955 	lda	hl,8(sp)
   0698 7E                 2956 	ld	a,(hl)
   0699 D6 68              2957 	sub	a,#0x68
   069B 23                 2958 	inc	hl
   069C 7E                 2959 	ld	a,(hl)
   069D DE 01              2960 	sbc	a,#0x01
   069F D2 28 07           2961 	jp	nc,00108$
                           2962 ;	game.c 465
                           2963 ;	genPlus
                           2964 ;	AOP_STK for _helper_copy_map_smaller_i_1_1
                           2965 ;	AOP_STK for _helper_copy_map_smaller_sloc1_1_0
                           2966 ;	Can't optimise plus by inc, falling back to the normal way
   06A2 11 65 18           2967 	ld	de,#_map
   06A5 2B                 2968 	dec	hl
   06A6 2A                 2969 	ld	a,(hl+)
   06A7 66                 2970 	ld	h,(hl)
   06A8 6F                 2971 	ld	l,a
   06A9 19                 2972 	add	hl,de
   06AA 7D                 2973 	ld	a,l
   06AB 54                 2974 	ld	d,h
   06AC F8 00              2975 	lda	hl,0(sp)
   06AE 22                 2976 	ld	(hl+),a
   06AF 72                 2977 	ld	(hl),d
                           2978 ;	genAssign (pointer)
                           2979 ;	AOP_STK for _helper_copy_map_smaller_sloc1_1_0
   06B0 2B                 2980 	dec	hl
   06B1 5E                 2981 	ld	e,(hl)
   06B2 23                 2982 	inc	hl
   06B3 56                 2983 	ld	d,(hl)
   06B4 3E 0C              2984 	ld	a,#0x0C
   06B6 12                 2985 	ld	(de),a
                           2986 ;	game.c 469
                           2987 ;	genCmpGt
                           2988 ;	AOP_STK for _helper_copy_map_smaller_i_1_1
   06B7 3E 50              2989 	ld	a,#0x50
   06B9 F8 08              2990 	lda	hl,8(sp)
   06BB 96                 2991 	sub	a,(hl)
   06BC 3E 00              2992 	ld	a,#0x00
   06BE 23                 2993 	inc	hl
   06BF 9E                 2994 	sbc	a,(hl)
   06C0 D2 1E 07           2995 	jp	nc,00105$
                           2996 ;	game.c 470
                           2997 ;	genPlus
                           2998 ;	AOP_STK for _helper_copy_map_smaller_i_1_1
                           2999 ;	AOP_STK for _helper_copy_map_smaller_sloc0_1_0
                           3000 ;	genPlusIncr
                           3001 ;	Can't optimise plus by inc, falling back to the normal way
   06C3 2B                 3002 	dec	hl
   06C4 5E                 3003 	ld	e,(hl)
   06C5 23                 3004 	inc	hl
   06C6 56                 3005 	ld	d,(hl)
   06C7 21 01 00           3006 	ld	hl,#0x0001
   06CA 19                 3007 	add	hl,de
   06CB 7D                 3008 	ld	a,l
   06CC 54                 3009 	ld	d,h
   06CD F8 02              3010 	lda	hl,2(sp)
   06CF 22                 3011 	ld	(hl+),a
   06D0 72                 3012 	ld	(hl),d
                           3013 ;	genIpush
                           3014 ; _saveRegsForCall: sendSetSize: 0 deInUse: 0 bcInUse: 0 deSending: 0
   06D1 21 14 00           3015 	ld	hl,#0x0014
   06D4 E5                 3016 	push	hl
                           3017 ;	genIpush
                           3018 ;	AOP_STK for _helper_copy_map_smaller_sloc0_1_0
   06D5 F8 04              3019 	lda	hl,4(sp)
   06D7 2A                 3020 	ld	a,(hl+)
   06D8 66                 3021 	ld	h,(hl)
   06D9 6F                 3022 	ld	l,a
   06DA E5                 3023 	push	hl
                           3024 ;	genCall
   06DB CD 00 00           3025 	call	__moduint_rrx_s
                           3026 ;	AOP_STK for _helper_copy_map_smaller_k_1_1
   06DE F8 09              3027 	lda	hl,9(sp)
   06E0 72                 3028 	ld	(hl),d
   06E1 2B                 3029 	dec	hl
   06E2 73                 3030 	ld	(hl),e
   06E3 E8 04              3031 	lda	sp,4(sp)
                           3032 ;	genAssign
                           3033 ;	AOP_STK for _helper_copy_map_smaller_k_1_1
                           3034 ;	(registers are the same)
                           3035 ;	game.c 471
                           3036 ;	genCast
                           3037 ;	AOP_STK for _helper_copy_map_smaller_gap_width_1_1
   06E5 F8 0A              3038 	lda	hl,10(sp)
   06E7 4E                 3039 	ld	c,(hl)
   06E8 06 00              3040 	ld	b,#0x00
                           3041 ;	genCmpGt
                           3042 ;	AOP_STK for _helper_copy_map_smaller_k_1_1
   06EA 79                 3043 	ld	a,c
   06EB F8 04              3044 	lda	hl,4(sp)
   06ED 96                 3045 	sub	a,(hl)
   06EE 78                 3046 	ld	a,b
   06EF 23                 3047 	inc	hl
   06F0 9E                 3048 	sbc	a,(hl)
   06F1 D2 1E 07           3049 	jp	nc,00105$
                           3050 ;	genCast
                           3051 ;	AOP_STK for 
   06F4 F8 0F              3052 	lda	hl,15(sp)
   06F6 4E                 3053 	ld	c,(hl)
   06F7 06 00              3054 	ld	b,#0x00
                           3055 ;	genCmpLt
                           3056 ;	AOP_STK for _helper_copy_map_smaller_k_1_1
   06F9 F8 04              3057 	lda	hl,4(sp)
   06FB 7E                 3058 	ld	a,(hl)
   06FC 91                 3059 	sub	a,c
   06FD 23                 3060 	inc	hl
   06FE 7E                 3061 	ld	a,(hl)
   06FF 98                 3062 	sbc	a,b
   0700 D2 1E 07           3063 	jp	nc,00105$
                           3064 ;	game.c 472
                           3065 ;	genPlus
                           3066 ;	AOP_STK for 
                           3067 ;	AOP_STK for _helper_copy_map_smaller_j_1_1
                           3068 ;	Can't optimise plus by inc, falling back to the normal way
   0703 F8 0D              3069 	lda	hl,13(sp)
   0705 5E                 3070 	ld	e,(hl)
   0706 23                 3071 	inc	hl
   0707 56                 3072 	ld	d,(hl)
   0708 F8 06              3073 	lda	hl,6(sp)
   070A 2A                 3074 	ld	a,(hl+)
   070B 66                 3075 	ld	h,(hl)
   070C 6F                 3076 	ld	l,a
   070D 19                 3077 	add	hl,de
   070E 4D                 3078 	ld	c,l
   070F 44                 3079 	ld	b,h
                           3080 ;	genPointerGet
   0710 0A                 3081 	ld	a,(bc)
                           3082 ;	genAssign (pointer)
                           3083 ;	AOP_STK for _helper_copy_map_smaller_sloc1_1_0
   0711 F8 00              3084 	lda	hl,0(sp)
   0713 5E                 3085 	ld	e,(hl)
   0714 23                 3086 	inc	hl
   0715 56                 3087 	ld	d,(hl)
   0716 12                 3088 	ld	(de),a
                           3089 ;	game.c 473
                           3090 ;	genPlus
                           3091 ;	AOP_STK for _helper_copy_map_smaller_j_1_1
                           3092 ;	genPlusIncr
   0717 F8 06              3093 	lda	hl,6(sp)
   0719 34                 3094 	inc	(hl)
   071A 20 02              3095 	jr	nz,00116$
   071C 23                 3096 	inc	hl
   071D 34                 3097 	inc	(hl)
   071E                    3098 00116$:
                           3099 ;	genLabel
   071E                    3100 00105$:
                           3101 ;	game.c 477
                           3102 ;	genPlus
                           3103 ;	AOP_STK for _helper_copy_map_smaller_i_1_1
                           3104 ;	genPlusIncr
   071E F8 08              3105 	lda	hl,8(sp)
   0720 34                 3106 	inc	(hl)
   0721 20 02              3107 	jr	nz,00117$
   0723 23                 3108 	inc	hl
   0724 34                 3109 	inc	(hl)
   0725                    3110 00117$:
                           3111 ;	genGoto
   0725 C3 96 06           3112 	jp	00106$
                           3113 ;	genLabel
   0728                    3114 00108$:
                           3115 ;	game.c 487
                           3116 ;	genIpush
                           3117 ; _saveRegsForCall: sendSetSize: 0 deInUse: 0 bcInUse: 0 deSending: 0
   0728 3E F4              3118 	ld	a,#0xF4
   072A F5                 3119 	push	af
   072B 33                 3120 	inc	sp
                           3121 ;	genCall
   072C CD 00 00           3122 	call	_performantDelay
   072F E8 01              3123 	lda	sp,1(sp)
                           3124 ;	genLabel
   0731                    3125 00109$:
                           3126 ;	genEndFunction
   0731 E8 0B              3127 	lda	sp,11(sp)
   0733 C9                 3128 	ret
   0734                    3129 ___helper_copy_map_smaller_end:
                           3130 ;	game.c 492
                           3131 ;	genLabel
                           3132 ;	genFunction
                           3133 ;	---------------------------------
                           3134 ; Function copy_map
                           3135 ; ---------------------------------
   0734                    3136 ___copy_map_start:
   0734                    3137 _copy_map:
                           3138 	
                           3139 ;	game.c 493
                           3140 ;	genCmpLt
                           3141 ;	AOP_HL for _current_map
   0734 21 64 18           3142 	ld	hl,#_current_map
   0737 7E                 3143 	ld	a,(hl)
   0738 FE 01              3144 	cp	#0x01
   073A DA EB 07           3145 	jp	c,00111$
                           3146 ;	genCmpGt
                           3147 ;	AOP_HL for _current_map
   073D 3E 0A              3148 	ld	a,#0x0A
   073F 96                 3149 	sub	a,(hl)
   0740 DA EB 07           3150 	jp	c,00111$
                           3151 ;	genMinus
                           3152 ;	AOP_HL for _current_map
   0743 7E                 3153 	ld	a,(hl)
   0744 C6 FF              3154 	add	a,#0xFF
   0746 4F                 3155 	ld	c,a
                           3156 ;	genJumpTab
   0747 59                 3157 	ld	e,c
   0748 16 00              3158 	ld	d,#0x00
   074A 21 51 07           3159 	ld	hl,#00117$
   074D 19                 3160 	add	hl,de
   074E 19                 3161 	add	hl,de
   074F 19                 3162 	add	hl,de
   0750 E9                 3163 	jp	(hl)
   0751                    3164 00117$:
   0751 C3 6F 07           3165 	jp	00101$
   0754 C3 7B 07           3166 	jp	00102$
   0757 C3 87 07           3167 	jp	00103$
   075A C3 93 07           3168 	jp	00104$
   075D C3 9F 07           3169 	jp	00105$
   0760 C3 AB 07           3170 	jp	00106$
   0763 C3 B7 07           3171 	jp	00107$
   0766 C3 C3 07           3172 	jp	00108$
   0769 C3 CF 07           3173 	jp	00109$
   076C C3 DB 07           3174 	jp	00110$
                           3175 ;	game.c 495
                           3176 ;	genLabel
   076F                    3177 00101$:
                           3178 ;	genIpush
                           3179 ; _saveRegsForCall: sendSetSize: 0 deInUse: 0 bcInUse: 0 deSending: 0
   076F 21 F0 01           3180 	ld	hl,#_Map1
   0772 E5                 3181 	push	hl
                           3182 ;	genCall
   0773 CD 40 06           3183 	call	_helper_copy_map
   0776 E8 02              3184 	lda	sp,2(sp)
                           3185 ;	game.c 496
                           3186 ;	genGoto
   0778 C3 F4 07           3187 	jp	00113$
                           3188 ;	game.c 498
                           3189 ;	genLabel
   077B                    3190 00102$:
                           3191 ;	genIpush
                           3192 ; _saveRegsForCall: sendSetSize: 0 deInUse: 0 bcInUse: 0 deSending: 0
   077B 21 58 03           3193 	ld	hl,#_Map2
   077E E5                 3194 	push	hl
                           3195 ;	genCall
   077F CD 40 06           3196 	call	_helper_copy_map
   0782 E8 02              3197 	lda	sp,2(sp)
                           3198 ;	game.c 499
                           3199 ;	genGoto
   0784 C3 F4 07           3200 	jp	00113$
                           3201 ;	game.c 501
                           3202 ;	genLabel
   0787                    3203 00103$:
                           3204 ;	genIpush
                           3205 ; _saveRegsForCall: sendSetSize: 0 deInUse: 0 bcInUse: 0 deSending: 0
   0787 21 C0 04           3206 	ld	hl,#_Map3
   078A E5                 3207 	push	hl
                           3208 ;	genCall
   078B CD 40 06           3209 	call	_helper_copy_map
   078E E8 02              3210 	lda	sp,2(sp)
                           3211 ;	game.c 502
                           3212 ;	genGoto
   0790 C3 F4 07           3213 	jp	00113$
                           3214 ;	game.c 504
                           3215 ;	genLabel
   0793                    3216 00104$:
                           3217 ;	genIpush
                           3218 ; _saveRegsForCall: sendSetSize: 0 deInUse: 0 bcInUse: 0 deSending: 0
   0793 21 28 06           3219 	ld	hl,#_Map4
   0796 E5                 3220 	push	hl
                           3221 ;	genCall
   0797 CD 40 06           3222 	call	_helper_copy_map
   079A E8 02              3223 	lda	sp,2(sp)
                           3224 ;	game.c 505
                           3225 ;	genGoto
   079C C3 F4 07           3226 	jp	00113$
                           3227 ;	game.c 507
                           3228 ;	genLabel
   079F                    3229 00105$:
                           3230 ;	genIpush
                           3231 ; _saveRegsForCall: sendSetSize: 0 deInUse: 0 bcInUse: 0 deSending: 0
   079F 21 90 07           3232 	ld	hl,#_Map5
   07A2 E5                 3233 	push	hl
                           3234 ;	genCall
   07A3 CD 40 06           3235 	call	_helper_copy_map
   07A6 E8 02              3236 	lda	sp,2(sp)
                           3237 ;	game.c 508
                           3238 ;	genGoto
   07A8 C3 F4 07           3239 	jp	00113$
                           3240 ;	game.c 510
                           3241 ;	genLabel
   07AB                    3242 00106$:
                           3243 ;	genIpush
                           3244 ; _saveRegsForCall: sendSetSize: 0 deInUse: 0 bcInUse: 0 deSending: 0
   07AB 21 F8 08           3245 	ld	hl,#_Map6
   07AE E5                 3246 	push	hl
                           3247 ;	genCall
   07AF CD 40 06           3248 	call	_helper_copy_map
   07B2 E8 02              3249 	lda	sp,2(sp)
                           3250 ;	game.c 511
                           3251 ;	genGoto
   07B4 C3 F4 07           3252 	jp	00113$
                           3253 ;	game.c 513
                           3254 ;	genLabel
   07B7                    3255 00107$:
                           3256 ;	genIpush
                           3257 ; _saveRegsForCall: sendSetSize: 0 deInUse: 0 bcInUse: 0 deSending: 0
   07B7 21 60 0F           3258 	ld	hl,#_MapTest
   07BA E5                 3259 	push	hl
                           3260 ;	genCall
   07BB CD 40 06           3261 	call	_helper_copy_map
   07BE E8 02              3262 	lda	sp,2(sp)
                           3263 ;	game.c 514
                           3264 ;	genGoto
   07C0 C3 F4 07           3265 	jp	00113$
                           3266 ;	game.c 516
                           3267 ;	genLabel
   07C3                    3268 00108$:
                           3269 ;	genIpush
                           3270 ; _saveRegsForCall: sendSetSize: 0 deInUse: 0 bcInUse: 0 deSending: 0
   07C3 21 60 0F           3271 	ld	hl,#_MapTest
   07C6 E5                 3272 	push	hl
                           3273 ;	genCall
   07C7 CD 40 06           3274 	call	_helper_copy_map
   07CA E8 02              3275 	lda	sp,2(sp)
                           3276 ;	game.c 517
                           3277 ;	genGoto
   07CC C3 F4 07           3278 	jp	00113$
                           3279 ;	game.c 519
                           3280 ;	genLabel
   07CF                    3281 00109$:
                           3282 ;	genIpush
                           3283 ; _saveRegsForCall: sendSetSize: 0 deInUse: 0 bcInUse: 0 deSending: 0
   07CF 21 60 0F           3284 	ld	hl,#_MapTest
   07D2 E5                 3285 	push	hl
                           3286 ;	genCall
   07D3 CD 40 06           3287 	call	_helper_copy_map
   07D6 E8 02              3288 	lda	sp,2(sp)
                           3289 ;	game.c 520
                           3290 ;	genGoto
   07D8 C3 F4 07           3291 	jp	00113$
                           3292 ;	game.c 524
                           3293 ;	genLabel
   07DB                    3294 00110$:
                           3295 ;	genIpush
                           3296 ; _saveRegsForCall: sendSetSize: 0 deInUse: 0 bcInUse: 0 deSending: 0
   07DB 21 0A 09           3297 	ld	hl,#0x090A
   07DE E5                 3298 	push	hl
                           3299 ;	genIpush
   07DF 21 06 0F           3300 	ld	hl,#_mapTestSmallGrid
   07E2 E5                 3301 	push	hl
                           3302 ;	genCall
   07E3 CD 72 06           3303 	call	_helper_copy_map_smaller
   07E6 E8 04              3304 	lda	sp,4(sp)
                           3305 ;	game.c 526
                           3306 ;	genGoto
   07E8 C3 F4 07           3307 	jp	00113$
                           3308 ;	game.c 528
                           3309 ;	genLabel
   07EB                    3310 00111$:
                           3311 ;	genIpush
                           3312 ; _saveRegsForCall: sendSetSize: 0 deInUse: 0 bcInUse: 0 deSending: 0
   07EB 21 60 0F           3313 	ld	hl,#_MapTest
   07EE E5                 3314 	push	hl
                           3315 ;	genCall
   07EF CD 40 06           3316 	call	_helper_copy_map
   07F2 E8 02              3317 	lda	sp,2(sp)
                           3318 ;	game.c 531
                           3319 ;	genLabel
   07F4                    3320 00113$:
                           3321 ;	genEndFunction
                           3322 	
   07F4 C9                 3323 	ret
   07F5                    3324 ___copy_map_end:
                           3325 ;	game.c 535
                           3326 ;	genLabel
                           3327 ;	genFunction
                           3328 ;	---------------------------------
                           3329 ; Function map_init
                           3330 ; ---------------------------------
   07F5                    3331 ___map_init_start:
   07F5                    3332 _map_init:
                           3333 	
                           3334 ;	game.c 536
                           3335 ;	genCall
                           3336 ; _saveRegsForCall: sendSetSize: 0 deInUse: 0 bcInUse: 0 deSending: 0
   07F5 CD 34 07           3337 	call	_copy_map
                           3338 ;	game.c 537
                           3339 ;	genIpush
                           3340 ; _saveRegsForCall: sendSetSize: 0 deInUse: 0 bcInUse: 0 deSending: 0
   07F8 21 65 18           3341 	ld	hl,#_map
   07FB E5                 3342 	push	hl
                           3343 ;	genIpush
   07FC 21 14 12           3344 	ld	hl,#0x1214
   07FF E5                 3345 	push	hl
                           3346 ;	genIpush
   0800 21 00 00           3347 	ld	hl,#0x0000
   0803 E5                 3348 	push	hl
                           3349 ;	genCall
   0804 CD 00 00           3350 	call	_set_bkg_tiles
   0807 E8 06              3351 	lda	sp,6(sp)
                           3352 ;	game.c 538
                           3353 ;	genCall
                           3354 ; _saveRegsForCall: sendSetSize: 0 deInUse: 0 bcInUse: 0 deSending: 0
   0809 CD 0D 08           3355 	call	_instanciate_chars
                           3356 ;	genLabel
   080C                    3357 00101$:
                           3358 ;	genEndFunction
                           3359 	
   080C C9                 3360 	ret
   080D                    3361 ___map_init_end:
                           3362 ;	game.c 553
                           3363 ;	genLabel
                           3364 ;	genFunction
                           3365 ;	---------------------------------
                           3366 ; Function instanciate_chars
                           3367 ; ---------------------------------
   080D                    3368 ___instanciate_chars_start:
   080D                    3369 _instanciate_chars:
                           3370 	
                           3371 ;	game.c 555
                           3372 ;	genAssign (pointer)
   080D 11 CD 19           3373 	ld	de,#_bunny
   0810 3E 08              3374 	ld	a,#0x08
   0812 12                 3375 	ld	(de),a
                           3376 ;	game.c 556
                           3377 ;	genPlus
                           3378 ;	genPlusIncr
   0813 21 CE 19           3379 	ld	hl,#_bunny + 1
                           3380 ;	genAssign (pointer)
   0816 36 10              3381 	ld	(hl),#0x10
                           3382 ;	game.c 557
                           3383 ;	genPlus
                           3384 ;	genPlusIncr
   0818 23                 3385 	inc	hl
                           3386 ;	genAssign (pointer)
   0819 36 00              3387 	ld	(hl),#0x00
                           3388 ;	game.c 558
                           3389 ;	genPlus
                           3390 ;	genPlusIncr
   081B 23                 3391 	inc	hl
                           3392 ;	genAssign (pointer)
   081C 36 01              3393 	ld	(hl),#0x01
                           3394 ;	game.c 559
                           3395 ;	genPlus
                           3396 ;	genPlusIncr
   081E 23                 3397 	inc	hl
                           3398 ;	genAssign (pointer)
   081F 36 02              3399 	ld	(hl),#0x02
                           3400 ;	game.c 560
                           3401 ;	genPlus
                           3402 ;	genPlusIncr
   0821 23                 3403 	inc	hl
                           3404 ;	genAssign (pointer)
   0822 36 10              3405 	ld	(hl),#0x10
                           3406 ;	game.c 561
                           3407 ;	genPlus
                           3408 ;	genPlusIncr
   0824 23                 3409 	inc	hl
                           3410 ;	genAssign (pointer)
   0825 36 11              3411 	ld	(hl),#0x11
                           3412 ;	game.c 562
                           3413 ;	genPlus
                           3414 ;	genPlusIncr
   0827 23                 3415 	inc	hl
                           3416 ;	genAssign (pointer)
   0828 36 12              3417 	ld	(hl),#0x12
                           3418 ;	game.c 563
                           3419 ;	genPlus
                           3420 ;	genPlusIncr
   082A 23                 3421 	inc	hl
                           3422 ;	genAssign (pointer)
   082B 36 00              3423 	ld	(hl),#0x00
                           3424 ;	game.c 564
                           3425 ;	genPlus
                           3426 ;	genPlusIncr
   082D 23                 3427 	inc	hl
                           3428 ;	genAssign (pointer)
   082E 36 00              3429 	ld	(hl),#0x00
                           3430 ;	game.c 565
                           3431 ;	genPlus
                           3432 ;	genPlusIncr
   0830 23                 3433 	inc	hl
   0831 23                 3434 	inc	hl
                           3435 ;	genAssign (pointer)
   0832 36 01              3436 	ld	(hl),#0x01
                           3437 ;	game.c 566
                           3438 ;	genPlus
                           3439 ;	genPlusIncr
   0834 23                 3440 	inc	hl
                           3441 ;	genAssign (pointer)
   0835 5D                 3442 	ld	e,l
   0836 54                 3443 	ld	d,h
   0837 3E 90              3444 	ld	a,#0x90
   0839 12                 3445 	ld	(de),a
   083A 13                 3446 	inc	de
   083B 3E 01              3447 	ld	a,#0x01
   083D 12                 3448 	ld	(de),a
                           3449 ;	game.c 568
                           3450 ;	genAssign (pointer)
   083E 11 DB 19           3451 	ld	de,#_dog1
   0841 3E 10              3452 	ld	a,#0x10
   0843 12                 3453 	ld	(de),a
                           3454 ;	game.c 569
                           3455 ;	genPlus
                           3456 ;	genPlusIncr
   0844 21 DC 19           3457 	ld	hl,#_dog1 + 1
                           3458 ;	genAssign (pointer)
   0847 36 10              3459 	ld	(hl),#0x10
                           3460 ;	game.c 570
                           3461 ;	genPlus
                           3462 ;	genPlusIncr
   0849 23                 3463 	inc	hl
                           3464 ;	genAssign (pointer)
   084A 36 03              3465 	ld	(hl),#0x03
                           3466 ;	game.c 571
                           3467 ;	genPlus
                           3468 ;	genPlusIncr
   084C 23                 3469 	inc	hl
                           3470 ;	genAssign (pointer)
   084D 36 04              3471 	ld	(hl),#0x04
                           3472 ;	game.c 572
                           3473 ;	genPlus
                           3474 ;	genPlusIncr
   084F 23                 3475 	inc	hl
                           3476 ;	genAssign (pointer)
   0850 36 05              3477 	ld	(hl),#0x05
                           3478 ;	game.c 573
                           3479 ;	genPlus
                           3480 ;	genPlusIncr
   0852 23                 3481 	inc	hl
                           3482 ;	genAssign (pointer)
   0853 36 13              3483 	ld	(hl),#0x13
                           3484 ;	game.c 574
                           3485 ;	genPlus
                           3486 ;	genPlusIncr
   0855 23                 3487 	inc	hl
                           3488 ;	genAssign (pointer)
   0856 36 14              3489 	ld	(hl),#0x14
                           3490 ;	game.c 575
                           3491 ;	genPlus
                           3492 ;	genPlusIncr
   0858 23                 3493 	inc	hl
                           3494 ;	genAssign (pointer)
   0859 36 15              3495 	ld	(hl),#0x15
                           3496 ;	game.c 576
                           3497 ;	genPlus
                           3498 ;	genPlusIncr
   085B 23                 3499 	inc	hl
                           3500 ;	genAssign (pointer)
   085C 36 00              3501 	ld	(hl),#0x00
                           3502 ;	game.c 577
                           3503 ;	genPlus
                           3504 ;	genPlusIncr
   085E 23                 3505 	inc	hl
                           3506 ;	genAssign (pointer)
   085F 36 00              3507 	ld	(hl),#0x00
                           3508 ;	game.c 578
                           3509 ;	genPlus
                           3510 ;	genPlusIncr
   0861 23                 3511 	inc	hl
   0862 23                 3512 	inc	hl
                           3513 ;	genAssign (pointer)
   0863 36 02              3514 	ld	(hl),#0x02
                           3515 ;	game.c 579
                           3516 ;	genPlus
                           3517 ;	genPlusIncr
   0865 23                 3518 	inc	hl
                           3519 ;	genAssign (pointer)
   0866 5D                 3520 	ld	e,l
   0867 54                 3521 	ld	d,h
   0868 3E 90              3522 	ld	a,#0x90
   086A 12                 3523 	ld	(de),a
   086B 13                 3524 	inc	de
   086C 3E 01              3525 	ld	a,#0x01
   086E 12                 3526 	ld	(de),a
                           3527 ;	game.c 581
                           3528 ;	genAssign (pointer)
   086F 11 E9 19           3529 	ld	de,#_dog2
   0872 3E 08              3530 	ld	a,#0x08
   0874 12                 3531 	ld	(de),a
                           3532 ;	game.c 582
                           3533 ;	genPlus
                           3534 ;	genPlusIncr
   0875 21 EA 19           3535 	ld	hl,#_dog2 + 1
                           3536 ;	genAssign (pointer)
   0878 36 18              3537 	ld	(hl),#0x18
                           3538 ;	game.c 583
                           3539 ;	genPlus
                           3540 ;	genPlusIncr
   087A 23                 3541 	inc	hl
                           3542 ;	genAssign (pointer)
   087B 36 06              3543 	ld	(hl),#0x06
                           3544 ;	game.c 584
                           3545 ;	genPlus
                           3546 ;	genPlusIncr
   087D 23                 3547 	inc	hl
                           3548 ;	genAssign (pointer)
   087E 36 07              3549 	ld	(hl),#0x07
                           3550 ;	game.c 585
                           3551 ;	genPlus
                           3552 ;	genPlusIncr
   0880 23                 3553 	inc	hl
                           3554 ;	genAssign (pointer)
   0881 36 08              3555 	ld	(hl),#0x08
                           3556 ;	game.c 586
                           3557 ;	genPlus
                           3558 ;	genPlusIncr
   0883 23                 3559 	inc	hl
                           3560 ;	genAssign (pointer)
   0884 36 13              3561 	ld	(hl),#0x13
                           3562 ;	game.c 587
                           3563 ;	genPlus
                           3564 ;	genPlusIncr
   0886 23                 3565 	inc	hl
                           3566 ;	genAssign (pointer)
   0887 36 14              3567 	ld	(hl),#0x14
                           3568 ;	game.c 588
                           3569 ;	genPlus
                           3570 ;	genPlusIncr
   0889 23                 3571 	inc	hl
                           3572 ;	genAssign (pointer)
   088A 36 15              3573 	ld	(hl),#0x15
                           3574 ;	game.c 589
                           3575 ;	genPlus
                           3576 ;	genPlusIncr
   088C 23                 3577 	inc	hl
                           3578 ;	genAssign (pointer)
   088D 36 00              3579 	ld	(hl),#0x00
                           3580 ;	game.c 590
                           3581 ;	genPlus
                           3582 ;	genPlusIncr
   088F 23                 3583 	inc	hl
                           3584 ;	genAssign (pointer)
   0890 36 00              3585 	ld	(hl),#0x00
                           3586 ;	game.c 591
                           3587 ;	genPlus
                           3588 ;	genPlusIncr
   0892 23                 3589 	inc	hl
   0893 23                 3590 	inc	hl
                           3591 ;	genAssign (pointer)
   0894 36 03              3592 	ld	(hl),#0x03
                           3593 ;	game.c 592
                           3594 ;	genPlus
                           3595 ;	genPlusIncr
   0896 23                 3596 	inc	hl
                           3597 ;	genAssign (pointer)
   0897 5D                 3598 	ld	e,l
   0898 54                 3599 	ld	d,h
   0899 3E 90              3600 	ld	a,#0x90
   089B 12                 3601 	ld	(de),a
   089C 13                 3602 	inc	de
   089D 3E 01              3603 	ld	a,#0x01
   089F 12                 3604 	ld	(de),a
                           3605 ;	game.c 594
                           3606 ;	genAssign (pointer)
   08A0 11 F7 19           3607 	ld	de,#_cat
   08A3 3E 10              3608 	ld	a,#0x10
   08A5 12                 3609 	ld	(de),a
                           3610 ;	game.c 595
                           3611 ;	genPlus
                           3612 ;	genPlusIncr
   08A6 21 F8 19           3613 	ld	hl,#_cat + 1
                           3614 ;	genAssign (pointer)
   08A9 36 18              3615 	ld	(hl),#0x18
                           3616 ;	game.c 596
                           3617 ;	genPlus
                           3618 ;	genPlusIncr
   08AB 23                 3619 	inc	hl
                           3620 ;	genAssign (pointer)
   08AC 36 09              3621 	ld	(hl),#0x09
                           3622 ;	game.c 597
                           3623 ;	genPlus
                           3624 ;	genPlusIncr
   08AE 23                 3625 	inc	hl
                           3626 ;	genAssign (pointer)
   08AF 36 0A              3627 	ld	(hl),#0x0A
                           3628 ;	game.c 598
                           3629 ;	genPlus
                           3630 ;	genPlusIncr
   08B1 23                 3631 	inc	hl
                           3632 ;	genAssign (pointer)
   08B2 36 05              3633 	ld	(hl),#0x05
                           3634 ;	game.c 599
                           3635 ;	genPlus
                           3636 ;	genPlusIncr
   08B4 23                 3637 	inc	hl
                           3638 ;	genAssign (pointer)
   08B5 36 13              3639 	ld	(hl),#0x13
                           3640 ;	game.c 600
                           3641 ;	genPlus
                           3642 ;	genPlusIncr
   08B7 23                 3643 	inc	hl
                           3644 ;	genAssign (pointer)
   08B8 36 14              3645 	ld	(hl),#0x14
                           3646 ;	game.c 601
                           3647 ;	genPlus
                           3648 ;	genPlusIncr
   08BA 23                 3649 	inc	hl
                           3650 ;	genAssign (pointer)
   08BB 36 15              3651 	ld	(hl),#0x15
                           3652 ;	game.c 602
                           3653 ;	genPlus
                           3654 ;	genPlusIncr
   08BD 23                 3655 	inc	hl
                           3656 ;	genAssign (pointer)
   08BE 36 00              3657 	ld	(hl),#0x00
                           3658 ;	game.c 603
                           3659 ;	genPlus
                           3660 ;	genPlusIncr
   08C0 23                 3661 	inc	hl
                           3662 ;	genAssign (pointer)
   08C1 36 00              3663 	ld	(hl),#0x00
                           3664 ;	game.c 604
                           3665 ;	genPlus
                           3666 ;	genPlusIncr
   08C3 23                 3667 	inc	hl
   08C4 23                 3668 	inc	hl
                           3669 ;	genAssign (pointer)
   08C5 36 04              3670 	ld	(hl),#0x04
                           3671 ;	game.c 605
                           3672 ;	genPlus
                           3673 ;	genPlusIncr
   08C7 23                 3674 	inc	hl
                           3675 ;	genAssign (pointer)
   08C8 5D                 3676 	ld	e,l
   08C9 54                 3677 	ld	d,h
   08CA 3E 90              3678 	ld	a,#0x90
   08CC 12                 3679 	ld	(de),a
   08CD 13                 3680 	inc	de
   08CE 3E 01              3681 	ld	a,#0x01
   08D0 12                 3682 	ld	(de),a
                           3683 ;	game.c 608
                           3684 ;	genIpush
                           3685 ; _saveRegsForCall: sendSetSize: 0 deInUse: 0 bcInUse: 0 deSending: 0
   08D1 21 CD 19           3686 	ld	hl,#_bunny
   08D4 E5                 3687 	push	hl
                           3688 ;	genCall
   08D5 CD E6 1F           3689 	call	_set_character_sprite
   08D8 E8 02              3690 	lda	sp,2(sp)
                           3691 ;	game.c 609
                           3692 ;	genIpush
                           3693 ; _saveRegsForCall: sendSetSize: 0 deInUse: 0 bcInUse: 0 deSending: 0
   08DA 21 DB 19           3694 	ld	hl,#_dog1
   08DD E5                 3695 	push	hl
                           3696 ;	genCall
   08DE CD E6 1F           3697 	call	_set_character_sprite
   08E1 E8 02              3698 	lda	sp,2(sp)
                           3699 ;	game.c 610
                           3700 ;	genIpush
                           3701 ; _saveRegsForCall: sendSetSize: 0 deInUse: 0 bcInUse: 0 deSending: 0
   08E3 21 E9 19           3702 	ld	hl,#_dog2
   08E6 E5                 3703 	push	hl
                           3704 ;	genCall
   08E7 CD E6 1F           3705 	call	_set_character_sprite
   08EA E8 02              3706 	lda	sp,2(sp)
                           3707 ;	game.c 611
                           3708 ;	genIpush
                           3709 ; _saveRegsForCall: sendSetSize: 0 deInUse: 0 bcInUse: 0 deSending: 0
   08EC 21 F7 19           3710 	ld	hl,#_cat
   08EF E5                 3711 	push	hl
                           3712 ;	genCall
   08F0 CD E6 1F           3713 	call	_set_character_sprite
   08F3 E8 02              3714 	lda	sp,2(sp)
                           3715 ;	genLabel
   08F5                    3716 00101$:
                           3717 ;	genEndFunction
                           3718 	
   08F5 C9                 3719 	ret
   08F6                    3720 ___instanciate_chars_end:
                           3721 ;	game.c 615
                           3722 ;	genLabel
                           3723 ;	genFunction
                           3724 ;	---------------------------------
                           3725 ; Function got_key
                           3726 ; ---------------------------------
   08F6                    3727 ___got_key_start:
   08F6                    3728 _got_key:
   08F6 E8 FC              3729 	lda	sp,-4(sp)
                           3730 ;	game.c 616
                           3731 ;	genAssign
                           3732 ;	AOP_HL for _player
   08F8 21 13 1A           3733 	ld	hl,#_player
   08FB 4E                 3734 	ld	c,(hl)
   08FC 23                 3735 	inc	hl
   08FD 46                 3736 	ld	b,(hl)
                           3737 ;	genPlus
                           3738 ;	genPlusIncr
   08FE 03                 3739 	inc	bc
                           3740 ;	genPointerGet
   08FF 0A                 3741 	ld	a,(bc)
   0900 4F                 3742 	ld	c,a
                           3743 ;	genAssign
                           3744 ;	AOP_HL for _player
                           3745 ;	AOP_STK for _got_key_sloc0_1_0
   0901 2B                 3746 	dec	hl
   0902 2A                 3747 	ld	a,(hl+)
   0903 5E                 3748 	ld	e,(hl)
   0904 F8 00              3749 	lda	hl,0(sp)
   0906 22                 3750 	ld	(hl+),a
   0907 73                 3751 	ld	(hl),e
                           3752 ;	genPointerGet
                           3753 ;	AOP_STK for _got_key_sloc0_1_0
   0908 2B                 3754 	dec	hl
   0909 5E                 3755 	ld	e,(hl)
   090A 23                 3756 	inc	hl
   090B 56                 3757 	ld	d,(hl)
   090C 1A                 3758 	ld	a,(de)
   090D 47                 3759 	ld	b,a
                           3760 ;	genIpush
                           3761 ; _saveRegsForCall: sendSetSize: 0 deInUse: 0 bcInUse: 0 deSending: 0
   090E 79                 3762 	ld	a,c
   090F F5                 3763 	push	af
   0910 33                 3764 	inc	sp
                           3765 ;	genIpush
   0911 78                 3766 	ld	a,b
   0912 F5                 3767 	push	af
   0913 33                 3768 	inc	sp
                           3769 ;	genCall
   0914 CD 11 11           3770 	call	__get_map_position_from_xy
   0917 42                 3771 	ld	b,d
   0918 4B                 3772 	ld	c,e
   0919 E8 02              3773 	lda	sp,2(sp)
                           3774 ;	genAssign
                           3775 ;	(registers are the same)
                           3776 ;	game.c 619
                           3777 ;	genPlus
                           3778 ;	Can't optimise plus by inc, falling back to the normal way
   091B 21 65 18           3779 	ld	hl,#_map
   091E 09                 3780 	add	hl,bc
   091F 4D                 3781 	ld	c,l
   0920 44                 3782 	ld	b,h
                           3783 ;	genPointerGet
   0921 0A                 3784 	ld	a,(bc)
   0922 4F                 3785 	ld	c,a
                           3786 ;	genCast
                           3787 ; Removed redundent load
   0923 06 00              3788 	ld	b,#0x00
                           3789 ;	genCmpEq
                           3790 ; genCmpEq: left 2, right 2, result 0
   0925 79                 3791 	ld	a,c
   0926 FE 2E              3792 	cp	a,#0x2E
   0928 C2 32 09           3793 	jp	nz,00116$
   092B 78                 3794 	ld	a,b
   092C B7                 3795 	or	a,a
   092D C2 A0 09           3796 	jp	nz,00109$
   0930 18 03              3797 	jr	00117$
   0932                    3798 00116$:
   0932 C3 A0 09           3799 	jp	00109$
   0935                    3800 00117$:
                           3801 ;	game.c 624
                           3802 ;	genAssign
                           3803 ;	AOP_STK for _got_key_map_position_2_2
   0935 F8 02              3804 	lda	hl,2(sp)
   0937 36 68              3805 	ld	(hl),#0x68
   0939 23                 3806 	inc	hl
   093A 36 01              3807 	ld	(hl),#0x01
                           3808 ;	game.c 625
                           3809 ;	genLabel
   093C                    3810 00104$:
                           3811 ;	genCmpEq
                           3812 ;	AOP_STK for _got_key_map_position_2_2
                           3813 ; genCmpEq: left 2, right 2, result 0
   093C F8 02              3814 	lda	hl,2(sp)
   093E 2A                 3815 	ld	a,(hl+)
   093F B6                 3816 	or	a,(hl)
   0940 CA 8F 09           3817 	jp	z,00106$
   0943                    3818 00118$:
                           3819 ;	game.c 626
                           3820 ;	genMinus
                           3821 ;	AOP_STK for _got_key_map_position_2_2
   0943 F8 02              3822 	lda	hl,2(sp)
   0945 5E                 3823 	ld	e,(hl)
   0946 23                 3824 	inc	hl
   0947 56                 3825 	ld	d,(hl)
   0948 1B                 3826 	dec	de
   0949 2B                 3827 	dec	hl
   094A 73                 3828 	ld	(hl),e
   094B 23                 3829 	inc	hl
   094C 72                 3830 	ld	(hl),d
                           3831 ;	game.c 628
                           3832 ;	genPlus
                           3833 ;	AOP_STK for _got_key_map_position_2_2
                           3834 ;	AOP_STK for _got_key_sloc0_1_0
                           3835 ;	Can't optimise plus by inc, falling back to the normal way
   094D 11 65 18           3836 	ld	de,#_map
   0950 2B                 3837 	dec	hl
   0951 2A                 3838 	ld	a,(hl+)
   0952 66                 3839 	ld	h,(hl)
   0953 6F                 3840 	ld	l,a
   0954 19                 3841 	add	hl,de
   0955 7D                 3842 	ld	a,l
   0956 54                 3843 	ld	d,h
   0957 F8 00              3844 	lda	hl,0(sp)
                           3845 ;	genPointerGet
                           3846 ;	AOP_STK for _got_key_sloc0_1_0
   0959 22                 3847 	ld	(hl+),a
   095A 72                 3848 	ld	(hl),d
   095B 5F                 3849 	ld	e,a
   095C 1A                 3850 	ld	a,(de)
   095D 4F                 3851 	ld	c,a
                           3852 ;	genCast
                           3853 ; Removed redundent load
   095E 06 00              3854 	ld	b,#0x00
                           3855 ;	genCmpEq
                           3856 ; genCmpEq: left 2, right 2, result 0
   0960 79                 3857 	ld	a,c
   0961 FE 29              3858 	cp	a,#0x29
   0963 C2 6B 09           3859 	jp	nz,00119$
   0966 78                 3860 	ld	a,b
   0967 B7                 3861 	or	a,a
   0968 CA 79 09           3862 	jp	z,00101$
   096B                    3863 00119$:
                           3864 ;	genCmpEq
                           3865 ; genCmpEq: left 2, right 2, result 0
   096B 79                 3866 	ld	a,c
   096C FE 2E              3867 	cp	a,#0x2E
   096E C2 76 09           3868 	jp	nz,00120$
   0971 78                 3869 	ld	a,b
   0972 B7                 3870 	or	a,a
   0973 CA 84 09           3871 	jp	z,00102$
   0976                    3872 00120$:
                           3873 ;	genGoto
   0976 C3 3C 09           3874 	jp	00104$
                           3875 ;	game.c 630
                           3876 ;	genLabel
   0979                    3877 00101$:
                           3878 ;	genAssign (pointer)
                           3879 ;	AOP_STK for _got_key_sloc0_1_0
   0979 F8 00              3880 	lda	hl,0(sp)
   097B 5E                 3881 	ld	e,(hl)
   097C 23                 3882 	inc	hl
   097D 56                 3883 	ld	d,(hl)
   097E 3E 2A              3884 	ld	a,#0x2A
   0980 12                 3885 	ld	(de),a
                           3886 ;	game.c 631
                           3887 ;	genGoto
   0981 C3 3C 09           3888 	jp	00104$
                           3889 ;	game.c 633
                           3890 ;	genLabel
   0984                    3891 00102$:
                           3892 ;	genAssign (pointer)
                           3893 ;	AOP_STK for _got_key_sloc0_1_0
   0984 F8 00              3894 	lda	hl,0(sp)
   0986 5E                 3895 	ld	e,(hl)
   0987 23                 3896 	inc	hl
   0988 56                 3897 	ld	d,(hl)
   0989 3E 09              3898 	ld	a,#0x09
   098B 12                 3899 	ld	(de),a
                           3900 ;	game.c 636
                           3901 ;	genGoto
   098C C3 3C 09           3902 	jp	00104$
                           3903 ;	genLabel
   098F                    3904 00106$:
                           3905 ;	game.c 638
                           3906 ;	genIpush
                           3907 ; _saveRegsForCall: sendSetSize: 0 deInUse: 0 bcInUse: 0 deSending: 0
   098F 21 65 18           3908 	ld	hl,#_map
   0992 E5                 3909 	push	hl
                           3910 ;	genIpush
   0993 21 14 12           3911 	ld	hl,#0x1214
   0996 E5                 3912 	push	hl
                           3913 ;	genIpush
   0997 21 00 00           3914 	ld	hl,#0x0000
   099A E5                 3915 	push	hl
                           3916 ;	genCall
   099B CD 00 00           3917 	call	_set_bkg_tiles
   099E E8 06              3918 	lda	sp,6(sp)
                           3919 ;	genLabel
   09A0                    3920 00109$:
                           3921 ;	genEndFunction
   09A0 E8 04              3922 	lda	sp,4(sp)
   09A2 C9                 3923 	ret
   09A3                    3924 ___got_key_end:
                           3925 ;	game.c 642
                           3926 ;	genLabel
                           3927 ;	genFunction
                           3928 ;	---------------------------------
                           3929 ; Function got_door
                           3930 ; ---------------------------------
   09A3                    3931 ___got_door_start:
   09A3                    3932 _got_door:
   09A3 E8 FE              3933 	lda	sp,-2(sp)
                           3934 ;	game.c 643
                           3935 ;	genAssign
                           3936 ;	AOP_HL for _player
   09A5 21 13 1A           3937 	ld	hl,#_player
   09A8 4E                 3938 	ld	c,(hl)
   09A9 23                 3939 	inc	hl
   09AA 46                 3940 	ld	b,(hl)
                           3941 ;	genPlus
                           3942 ;	genPlusIncr
   09AB 03                 3943 	inc	bc
                           3944 ;	genPointerGet
   09AC 0A                 3945 	ld	a,(bc)
   09AD 4F                 3946 	ld	c,a
                           3947 ;	genAssign
                           3948 ;	AOP_HL for _player
                           3949 ;	AOP_STK for _got_door_sloc0_1_0
   09AE 2B                 3950 	dec	hl
   09AF 2A                 3951 	ld	a,(hl+)
   09B0 5E                 3952 	ld	e,(hl)
   09B1 F8 00              3953 	lda	hl,0(sp)
   09B3 22                 3954 	ld	(hl+),a
   09B4 73                 3955 	ld	(hl),e
                           3956 ;	genPointerGet
                           3957 ;	AOP_STK for _got_door_sloc0_1_0
   09B5 2B                 3958 	dec	hl
   09B6 5E                 3959 	ld	e,(hl)
   09B7 23                 3960 	inc	hl
   09B8 56                 3961 	ld	d,(hl)
   09B9 1A                 3962 	ld	a,(de)
   09BA 47                 3963 	ld	b,a
                           3964 ;	genIpush
                           3965 ; _saveRegsForCall: sendSetSize: 0 deInUse: 0 bcInUse: 0 deSending: 0
   09BB 79                 3966 	ld	a,c
   09BC F5                 3967 	push	af
   09BD 33                 3968 	inc	sp
                           3969 ;	genIpush
   09BE 78                 3970 	ld	a,b
   09BF F5                 3971 	push	af
   09C0 33                 3972 	inc	sp
                           3973 ;	genCall
   09C1 CD 11 11           3974 	call	__get_map_position_from_xy
   09C4 42                 3975 	ld	b,d
   09C5 4B                 3976 	ld	c,e
   09C6 E8 02              3977 	lda	sp,2(sp)
                           3978 ;	genAssign
                           3979 ;	(registers are the same)
                           3980 ;	game.c 645
                           3981 ;	genPlus
                           3982 ;	Can't optimise plus by inc, falling back to the normal way
   09C8 21 65 18           3983 	ld	hl,#_map
   09CB 09                 3984 	add	hl,bc
   09CC 4D                 3985 	ld	c,l
   09CD 44                 3986 	ld	b,h
                           3987 ;	genPointerGet
   09CE 0A                 3988 	ld	a,(bc)
   09CF 4F                 3989 	ld	c,a
                           3990 ;	genCast
                           3991 ; Removed redundent load
   09D0 06 00              3992 	ld	b,#0x00
                           3993 ;	genCmpEq
                           3994 ; genCmpEq: left 2, right 2, result 0
   09D2 79                 3995 	ld	a,c
   09D3 FE 65              3996 	cp	a,#0x65
   09D5 C2 DD 09           3997 	jp	nz,00144$
   09D8 78                 3998 	ld	a,b
   09D9 B7                 3999 	or	a,a
   09DA CA B1 0A           4000 	jp	z,00101$
   09DD                    4001 00144$:
                           4002 ;	genCmpEq
                           4003 ; genCmpEq: left 2, right 2, result 0
   09DD 79                 4004 	ld	a,c
   09DE FE 66              4005 	cp	a,#0x66
   09E0 C2 E8 09           4006 	jp	nz,00145$
   09E3 78                 4007 	ld	a,b
   09E4 B7                 4008 	or	a,a
   09E5 CA BC 0A           4009 	jp	z,00102$
   09E8                    4010 00145$:
                           4011 ;	genCmpEq
                           4012 ; genCmpEq: left 2, right 2, result 0
   09E8 79                 4013 	ld	a,c
   09E9 FE 67              4014 	cp	a,#0x67
   09EB C2 F3 09           4015 	jp	nz,00146$
   09EE 78                 4016 	ld	a,b
   09EF B7                 4017 	or	a,a
   09F0 CA C7 0A           4018 	jp	z,00103$
   09F3                    4019 00146$:
                           4020 ;	genCmpEq
                           4021 ; genCmpEq: left 2, right 2, result 0
   09F3 79                 4022 	ld	a,c
   09F4 FE 68              4023 	cp	a,#0x68
   09F6 C2 FE 09           4024 	jp	nz,00147$
   09F9 78                 4025 	ld	a,b
   09FA B7                 4026 	or	a,a
   09FB CA D2 0A           4027 	jp	z,00104$
   09FE                    4028 00147$:
                           4029 ;	genCmpEq
                           4030 ; genCmpEq: left 2, right 2, result 0
   09FE 79                 4031 	ld	a,c
   09FF FE 69              4032 	cp	a,#0x69
   0A01 C2 09 0A           4033 	jp	nz,00148$
   0A04 78                 4034 	ld	a,b
   0A05 B7                 4035 	or	a,a
   0A06 CA DD 0A           4036 	jp	z,00105$
   0A09                    4037 00148$:
                           4038 ;	genCmpEq
                           4039 ; genCmpEq: left 2, right 2, result 0
   0A09 79                 4040 	ld	a,c
   0A0A FE 6A              4041 	cp	a,#0x6A
   0A0C C2 14 0A           4042 	jp	nz,00149$
   0A0F 78                 4043 	ld	a,b
   0A10 B7                 4044 	or	a,a
   0A11 CA E8 0A           4045 	jp	z,00106$
   0A14                    4046 00149$:
                           4047 ;	genCmpEq
                           4048 ; genCmpEq: left 2, right 2, result 0
   0A14 79                 4049 	ld	a,c
   0A15 FE 6B              4050 	cp	a,#0x6B
   0A17 C2 1F 0A           4051 	jp	nz,00150$
   0A1A 78                 4052 	ld	a,b
   0A1B B7                 4053 	or	a,a
   0A1C CA F3 0A           4054 	jp	z,00107$
   0A1F                    4055 00150$:
                           4056 ;	genCmpEq
                           4057 ; genCmpEq: left 2, right 2, result 0
   0A1F 79                 4058 	ld	a,c
   0A20 FE 6C              4059 	cp	a,#0x6C
   0A22 C2 2A 0A           4060 	jp	nz,00151$
   0A25 78                 4061 	ld	a,b
   0A26 B7                 4062 	or	a,a
   0A27 CA FE 0A           4063 	jp	z,00108$
   0A2A                    4064 00151$:
                           4065 ;	genCmpEq
                           4066 ; genCmpEq: left 2, right 2, result 0
   0A2A 79                 4067 	ld	a,c
   0A2B FE 6D              4068 	cp	a,#0x6D
   0A2D C2 35 0A           4069 	jp	nz,00152$
   0A30 78                 4070 	ld	a,b
   0A31 B7                 4071 	or	a,a
   0A32 CA 09 0B           4072 	jp	z,00109$
   0A35                    4073 00152$:
                           4074 ;	genCmpEq
                           4075 ; genCmpEq: left 2, right 2, result 0
   0A35 79                 4076 	ld	a,c
   0A36 FE 6E              4077 	cp	a,#0x6E
   0A38 C2 40 0A           4078 	jp	nz,00153$
   0A3B 78                 4079 	ld	a,b
   0A3C B7                 4080 	or	a,a
   0A3D CA 14 0B           4081 	jp	z,00110$
   0A40                    4082 00153$:
                           4083 ;	genCmpEq
                           4084 ; genCmpEq: left 2, right 2, result 0
   0A40 79                 4085 	ld	a,c
   0A41 FE 6F              4086 	cp	a,#0x6F
   0A43 C2 4B 0A           4087 	jp	nz,00154$
   0A46 78                 4088 	ld	a,b
   0A47 B7                 4089 	or	a,a
   0A48 CA 1F 0B           4090 	jp	z,00111$
   0A4B                    4091 00154$:
                           4092 ;	genCmpEq
                           4093 ; genCmpEq: left 2, right 2, result 0
   0A4B 79                 4094 	ld	a,c
   0A4C FE 70              4095 	cp	a,#0x70
   0A4E C2 56 0A           4096 	jp	nz,00155$
   0A51 78                 4097 	ld	a,b
   0A52 B7                 4098 	or	a,a
   0A53 CA 2A 0B           4099 	jp	z,00112$
   0A56                    4100 00155$:
                           4101 ;	genCmpEq
                           4102 ; genCmpEq: left 2, right 2, result 0
   0A56 79                 4103 	ld	a,c
   0A57 FE 71              4104 	cp	a,#0x71
   0A59 C2 61 0A           4105 	jp	nz,00156$
   0A5C 78                 4106 	ld	a,b
   0A5D B7                 4107 	or	a,a
   0A5E CA 35 0B           4108 	jp	z,00113$
   0A61                    4109 00156$:
                           4110 ;	genCmpEq
                           4111 ; genCmpEq: left 2, right 2, result 0
   0A61 79                 4112 	ld	a,c
   0A62 FE 72              4113 	cp	a,#0x72
   0A64 C2 6C 0A           4114 	jp	nz,00157$
   0A67 78                 4115 	ld	a,b
   0A68 B7                 4116 	or	a,a
   0A69 CA 40 0B           4117 	jp	z,00114$
   0A6C                    4118 00157$:
                           4119 ;	genCmpEq
                           4120 ; genCmpEq: left 2, right 2, result 0
   0A6C 79                 4121 	ld	a,c
   0A6D FE 73              4122 	cp	a,#0x73
   0A6F C2 77 0A           4123 	jp	nz,00158$
   0A72 78                 4124 	ld	a,b
   0A73 B7                 4125 	or	a,a
   0A74 CA 4B 0B           4126 	jp	z,00115$
   0A77                    4127 00158$:
                           4128 ;	genCmpEq
                           4129 ; genCmpEq: left 2, right 2, result 0
   0A77 79                 4130 	ld	a,c
   0A78 FE 74              4131 	cp	a,#0x74
   0A7A C2 82 0A           4132 	jp	nz,00159$
   0A7D 78                 4133 	ld	a,b
   0A7E B7                 4134 	or	a,a
   0A7F CA 56 0B           4135 	jp	z,00116$
   0A82                    4136 00159$:
                           4137 ;	genCmpEq
                           4138 ; genCmpEq: left 2, right 2, result 0
   0A82 79                 4139 	ld	a,c
   0A83 FE 75              4140 	cp	a,#0x75
   0A85 C2 8D 0A           4141 	jp	nz,00160$
   0A88 78                 4142 	ld	a,b
   0A89 B7                 4143 	or	a,a
   0A8A CA 61 0B           4144 	jp	z,00117$
   0A8D                    4145 00160$:
                           4146 ;	genCmpEq
                           4147 ; genCmpEq: left 2, right 2, result 0
   0A8D 79                 4148 	ld	a,c
   0A8E FE 76              4149 	cp	a,#0x76
   0A90 C2 98 0A           4150 	jp	nz,00161$
   0A93 78                 4151 	ld	a,b
   0A94 B7                 4152 	or	a,a
   0A95 CA 6C 0B           4153 	jp	z,00118$
   0A98                    4154 00161$:
                           4155 ;	genCmpEq
                           4156 ; genCmpEq: left 2, right 2, result 0
   0A98 79                 4157 	ld	a,c
   0A99 FE 77              4158 	cp	a,#0x77
   0A9B C2 A3 0A           4159 	jp	nz,00162$
   0A9E 78                 4160 	ld	a,b
   0A9F B7                 4161 	or	a,a
   0AA0 CA 77 0B           4162 	jp	z,00119$
   0AA3                    4163 00162$:
                           4164 ;	genCmpEq
                           4165 ; genCmpEq: left 2, right 2, result 0
   0AA3 79                 4166 	ld	a,c
   0AA4 FE 78              4167 	cp	a,#0x78
   0AA6 C2 AE 0A           4168 	jp	nz,00163$
   0AA9 78                 4169 	ld	a,b
   0AAA B7                 4170 	or	a,a
   0AAB CA 82 0B           4171 	jp	z,00120$
   0AAE                    4172 00163$:
                           4173 ;	genGoto
   0AAE C3 8A 0B           4174 	jp	00122$
                           4175 ;	game.c 647
                           4176 ;	genLabel
   0AB1                    4177 00101$:
                           4178 ;	genAssign
                           4179 ;	AOP_HL for _current_map
   0AB1 21 64 18           4180 	ld	hl,#_current_map
   0AB4 36 01              4181 	ld	(hl),#0x01
                           4182 ;	game.c 648
                           4183 ;	genCall
                           4184 ; _saveRegsForCall: sendSetSize: 0 deInUse: 0 bcInUse: 0 deSending: 0
   0AB6 CD F5 07           4185 	call	_map_init
                           4186 ;	game.c 649
                           4187 ;	genGoto
   0AB9 C3 8A 0B           4188 	jp	00122$
                           4189 ;	game.c 651
                           4190 ;	genLabel
   0ABC                    4191 00102$:
                           4192 ;	genAssign
                           4193 ;	AOP_HL for _current_map
   0ABC 21 64 18           4194 	ld	hl,#_current_map
   0ABF 36 02              4195 	ld	(hl),#0x02
                           4196 ;	game.c 652
                           4197 ;	genCall
                           4198 ; _saveRegsForCall: sendSetSize: 0 deInUse: 0 bcInUse: 0 deSending: 0
   0AC1 CD F5 07           4199 	call	_map_init
                           4200 ;	game.c 653
                           4201 ;	genGoto
   0AC4 C3 8A 0B           4202 	jp	00122$
                           4203 ;	game.c 655
                           4204 ;	genLabel
   0AC7                    4205 00103$:
                           4206 ;	genAssign
                           4207 ;	AOP_HL for _current_map
   0AC7 21 64 18           4208 	ld	hl,#_current_map
   0ACA 36 03              4209 	ld	(hl),#0x03
                           4210 ;	game.c 656
                           4211 ;	genCall
                           4212 ; _saveRegsForCall: sendSetSize: 0 deInUse: 0 bcInUse: 0 deSending: 0
   0ACC CD F5 07           4213 	call	_map_init
                           4214 ;	game.c 657
                           4215 ;	genGoto
   0ACF C3 8A 0B           4216 	jp	00122$
                           4217 ;	game.c 659
                           4218 ;	genLabel
   0AD2                    4219 00104$:
                           4220 ;	genAssign
                           4221 ;	AOP_HL for _current_map
   0AD2 21 64 18           4222 	ld	hl,#_current_map
   0AD5 36 04              4223 	ld	(hl),#0x04
                           4224 ;	game.c 660
                           4225 ;	genCall
                           4226 ; _saveRegsForCall: sendSetSize: 0 deInUse: 0 bcInUse: 0 deSending: 0
   0AD7 CD F5 07           4227 	call	_map_init
                           4228 ;	game.c 661
                           4229 ;	genGoto
   0ADA C3 8A 0B           4230 	jp	00122$
                           4231 ;	game.c 663
                           4232 ;	genLabel
   0ADD                    4233 00105$:
                           4234 ;	genAssign
                           4235 ;	AOP_HL for _current_map
   0ADD 21 64 18           4236 	ld	hl,#_current_map
   0AE0 36 05              4237 	ld	(hl),#0x05
                           4238 ;	game.c 664
                           4239 ;	genCall
                           4240 ; _saveRegsForCall: sendSetSize: 0 deInUse: 0 bcInUse: 0 deSending: 0
   0AE2 CD F5 07           4241 	call	_map_init
                           4242 ;	game.c 665
                           4243 ;	genGoto
   0AE5 C3 8A 0B           4244 	jp	00122$
                           4245 ;	game.c 667
                           4246 ;	genLabel
   0AE8                    4247 00106$:
                           4248 ;	genAssign
                           4249 ;	AOP_HL for _current_map
   0AE8 21 64 18           4250 	ld	hl,#_current_map
   0AEB 36 06              4251 	ld	(hl),#0x06
                           4252 ;	game.c 668
                           4253 ;	genCall
                           4254 ; _saveRegsForCall: sendSetSize: 0 deInUse: 0 bcInUse: 0 deSending: 0
   0AED CD F5 07           4255 	call	_map_init
                           4256 ;	game.c 669
                           4257 ;	genGoto
   0AF0 C3 8A 0B           4258 	jp	00122$
                           4259 ;	game.c 671
                           4260 ;	genLabel
   0AF3                    4261 00107$:
                           4262 ;	genAssign
                           4263 ;	AOP_HL for _current_map
   0AF3 21 64 18           4264 	ld	hl,#_current_map
   0AF6 36 07              4265 	ld	(hl),#0x07
                           4266 ;	game.c 672
                           4267 ;	genCall
                           4268 ; _saveRegsForCall: sendSetSize: 0 deInUse: 0 bcInUse: 0 deSending: 0
   0AF8 CD F5 07           4269 	call	_map_init
                           4270 ;	game.c 673
                           4271 ;	genGoto
   0AFB C3 8A 0B           4272 	jp	00122$
                           4273 ;	game.c 675
                           4274 ;	genLabel
   0AFE                    4275 00108$:
                           4276 ;	genAssign
                           4277 ;	AOP_HL for _current_map
   0AFE 21 64 18           4278 	ld	hl,#_current_map
   0B01 36 08              4279 	ld	(hl),#0x08
                           4280 ;	game.c 676
                           4281 ;	genCall
                           4282 ; _saveRegsForCall: sendSetSize: 0 deInUse: 0 bcInUse: 0 deSending: 0
   0B03 CD F5 07           4283 	call	_map_init
                           4284 ;	game.c 677
                           4285 ;	genGoto
   0B06 C3 8A 0B           4286 	jp	00122$
                           4287 ;	game.c 679
                           4288 ;	genLabel
   0B09                    4289 00109$:
                           4290 ;	genAssign
                           4291 ;	AOP_HL for _current_map
   0B09 21 64 18           4292 	ld	hl,#_current_map
   0B0C 36 09              4293 	ld	(hl),#0x09
                           4294 ;	game.c 680
                           4295 ;	genCall
                           4296 ; _saveRegsForCall: sendSetSize: 0 deInUse: 0 bcInUse: 0 deSending: 0
   0B0E CD F5 07           4297 	call	_map_init
                           4298 ;	game.c 681
                           4299 ;	genGoto
   0B11 C3 8A 0B           4300 	jp	00122$
                           4301 ;	game.c 683
                           4302 ;	genLabel
   0B14                    4303 00110$:
                           4304 ;	genAssign
                           4305 ;	AOP_HL for _current_map
   0B14 21 64 18           4306 	ld	hl,#_current_map
   0B17 36 0A              4307 	ld	(hl),#0x0A
                           4308 ;	game.c 684
                           4309 ;	genCall
                           4310 ; _saveRegsForCall: sendSetSize: 0 deInUse: 0 bcInUse: 0 deSending: 0
   0B19 CD F5 07           4311 	call	_map_init
                           4312 ;	game.c 685
                           4313 ;	genGoto
   0B1C C3 8A 0B           4314 	jp	00122$
                           4315 ;	game.c 687
                           4316 ;	genLabel
   0B1F                    4317 00111$:
                           4318 ;	genAssign
                           4319 ;	AOP_HL for _current_map
   0B1F 21 64 18           4320 	ld	hl,#_current_map
   0B22 36 0B              4321 	ld	(hl),#0x0B
                           4322 ;	game.c 688
                           4323 ;	genCall
                           4324 ; _saveRegsForCall: sendSetSize: 0 deInUse: 0 bcInUse: 0 deSending: 0
   0B24 CD F5 07           4325 	call	_map_init
                           4326 ;	game.c 689
                           4327 ;	genGoto
   0B27 C3 8A 0B           4328 	jp	00122$
                           4329 ;	game.c 691
                           4330 ;	genLabel
   0B2A                    4331 00112$:
                           4332 ;	genAssign
                           4333 ;	AOP_HL for _current_map
   0B2A 21 64 18           4334 	ld	hl,#_current_map
   0B2D 36 0C              4335 	ld	(hl),#0x0C
                           4336 ;	game.c 692
                           4337 ;	genCall
                           4338 ; _saveRegsForCall: sendSetSize: 0 deInUse: 0 bcInUse: 0 deSending: 0
   0B2F CD F5 07           4339 	call	_map_init
                           4340 ;	game.c 693
                           4341 ;	genGoto
   0B32 C3 8A 0B           4342 	jp	00122$
                           4343 ;	game.c 695
                           4344 ;	genLabel
   0B35                    4345 00113$:
                           4346 ;	genAssign
                           4347 ;	AOP_HL for _current_map
   0B35 21 64 18           4348 	ld	hl,#_current_map
   0B38 36 0D              4349 	ld	(hl),#0x0D
                           4350 ;	game.c 696
                           4351 ;	genCall
                           4352 ; _saveRegsForCall: sendSetSize: 0 deInUse: 0 bcInUse: 0 deSending: 0
   0B3A CD F5 07           4353 	call	_map_init
                           4354 ;	game.c 697
                           4355 ;	genGoto
   0B3D C3 8A 0B           4356 	jp	00122$
                           4357 ;	game.c 699
                           4358 ;	genLabel
   0B40                    4359 00114$:
                           4360 ;	genAssign
                           4361 ;	AOP_HL for _current_map
   0B40 21 64 18           4362 	ld	hl,#_current_map
   0B43 36 0E              4363 	ld	(hl),#0x0E
                           4364 ;	game.c 700
                           4365 ;	genCall
                           4366 ; _saveRegsForCall: sendSetSize: 0 deInUse: 0 bcInUse: 0 deSending: 0
   0B45 CD F5 07           4367 	call	_map_init
                           4368 ;	game.c 701
                           4369 ;	genGoto
   0B48 C3 8A 0B           4370 	jp	00122$
                           4371 ;	game.c 703
                           4372 ;	genLabel
   0B4B                    4373 00115$:
                           4374 ;	genAssign
                           4375 ;	AOP_HL for _current_map
   0B4B 21 64 18           4376 	ld	hl,#_current_map
   0B4E 36 0F              4377 	ld	(hl),#0x0F
                           4378 ;	game.c 704
                           4379 ;	genCall
                           4380 ; _saveRegsForCall: sendSetSize: 0 deInUse: 0 bcInUse: 0 deSending: 0
   0B50 CD F5 07           4381 	call	_map_init
                           4382 ;	game.c 705
                           4383 ;	genGoto
   0B53 C3 8A 0B           4384 	jp	00122$
                           4385 ;	game.c 707
                           4386 ;	genLabel
   0B56                    4387 00116$:
                           4388 ;	genAssign
                           4389 ;	AOP_HL for _current_map
   0B56 21 64 18           4390 	ld	hl,#_current_map
   0B59 36 10              4391 	ld	(hl),#0x10
                           4392 ;	game.c 708
                           4393 ;	genCall
                           4394 ; _saveRegsForCall: sendSetSize: 0 deInUse: 0 bcInUse: 0 deSending: 0
   0B5B CD F5 07           4395 	call	_map_init
                           4396 ;	game.c 709
                           4397 ;	genGoto
   0B5E C3 8A 0B           4398 	jp	00122$
                           4399 ;	game.c 711
                           4400 ;	genLabel
   0B61                    4401 00117$:
                           4402 ;	genAssign
                           4403 ;	AOP_HL for _current_map
   0B61 21 64 18           4404 	ld	hl,#_current_map
   0B64 36 11              4405 	ld	(hl),#0x11
                           4406 ;	game.c 712
                           4407 ;	genCall
                           4408 ; _saveRegsForCall: sendSetSize: 0 deInUse: 0 bcInUse: 0 deSending: 0
   0B66 CD F5 07           4409 	call	_map_init
                           4410 ;	game.c 713
                           4411 ;	genGoto
   0B69 C3 8A 0B           4412 	jp	00122$
                           4413 ;	game.c 715
                           4414 ;	genLabel
   0B6C                    4415 00118$:
                           4416 ;	genAssign
                           4417 ;	AOP_HL for _current_map
   0B6C 21 64 18           4418 	ld	hl,#_current_map
   0B6F 36 12              4419 	ld	(hl),#0x12
                           4420 ;	game.c 716
                           4421 ;	genCall
                           4422 ; _saveRegsForCall: sendSetSize: 0 deInUse: 0 bcInUse: 0 deSending: 0
   0B71 CD F5 07           4423 	call	_map_init
                           4424 ;	game.c 717
                           4425 ;	genGoto
   0B74 C3 8A 0B           4426 	jp	00122$
                           4427 ;	game.c 719
                           4428 ;	genLabel
   0B77                    4429 00119$:
                           4430 ;	genAssign
                           4431 ;	AOP_HL for _current_map
   0B77 21 64 18           4432 	ld	hl,#_current_map
   0B7A 36 13              4433 	ld	(hl),#0x13
                           4434 ;	game.c 720
                           4435 ;	genCall
                           4436 ; _saveRegsForCall: sendSetSize: 0 deInUse: 0 bcInUse: 0 deSending: 0
   0B7C CD F5 07           4437 	call	_map_init
                           4438 ;	game.c 721
                           4439 ;	genGoto
   0B7F C3 8A 0B           4440 	jp	00122$
                           4441 ;	game.c 723
                           4442 ;	genLabel
   0B82                    4443 00120$:
                           4444 ;	genAssign
                           4445 ;	AOP_HL for _current_map
   0B82 21 64 18           4446 	ld	hl,#_current_map
   0B85 36 14              4447 	ld	(hl),#0x14
                           4448 ;	game.c 724
                           4449 ;	genCall
                           4450 ; _saveRegsForCall: sendSetSize: 0 deInUse: 0 bcInUse: 0 deSending: 0
   0B87 CD F5 07           4451 	call	_map_init
                           4452 ;	game.c 726
                           4453 ;	genLabel
   0B8A                    4454 00122$:
                           4455 ;	genEndFunction
   0B8A E8 02              4456 	lda	sp,2(sp)
   0B8C C9                 4457 	ret
   0B8D                    4458 ___got_door_end:
                           4459 ;	game.c 731
                           4460 ;	genLabel
                           4461 ;	genFunction
                           4462 ;	---------------------------------
                           4463 ; Function is_ded
                           4464 ; ---------------------------------
   0B8D                    4465 ___is_ded_start:
   0B8D                    4466 _is_ded:
   0B8D E8 FD              4467 	lda	sp,-3(sp)
                           4468 ;	game.c 735
                           4469 ;	genAssign
                           4470 ;	AOP_STK for 
   0B8F F8 05              4471 	lda	hl,5(sp)
   0B91 4E                 4472 	ld	c,(hl)
   0B92 23                 4473 	inc	hl
   0B93 46                 4474 	ld	b,(hl)
                           4475 ;	genPointerGet
   0B94 59                 4476 	ld	e,c
   0B95 50                 4477 	ld	d,b
   0B96 1A                 4478 	ld	a,(de)
   0B97 4F                 4479 	ld	c,a
   0B98 13                 4480 	inc	de
   0B99 1A                 4481 	ld	a,(de)
   0B9A 47                 4482 	ld	b,a
                           4483 ;	genPlus
                           4484 ;	AOP_STK for _is_ded_sloc0_1_0
                           4485 ;	genPlusIncr
                           4486 ;	Can't optimise plus by inc, falling back to the normal way
   0B9B 21 09 00           4487 	ld	hl,#0x0009
   0B9E 09                 4488 	add	hl,bc
   0B9F 7D                 4489 	ld	a,l
   0BA0 54                 4490 	ld	d,h
   0BA1 F8 01              4491 	lda	hl,1(sp)
                           4492 ;	genPointerGet
                           4493 ;	AOP_STK for _is_ded_sloc0_1_0
   0BA3 22                 4494 	ld	(hl+),a
   0BA4 72                 4495 	ld	(hl),d
   0BA5 5F                 4496 	ld	e,a
   0BA6 1A                 4497 	ld	a,(de)
                           4498 ;	genIfx
   0BA7 B7                 4499 	or	a,a
   0BA8 CA CA 0B           4500 	jp	z,00102$
                           4501 ;	genPlus
                           4502 ;	AOP_STK for _is_ded_sloc0_1_0
                           4503 ;	genPlusIncr
                           4504 ;	Can't optimise plus by inc, falling back to the normal way
   0BAB 21 0B 00           4505 	ld	hl,#0x000B
   0BAE 09                 4506 	add	hl,bc
   0BAF 7D                 4507 	ld	a,l
   0BB0 54                 4508 	ld	d,h
   0BB1 F8 01              4509 	lda	hl,1(sp)
                           4510 ;	genPointerGet
                           4511 ;	AOP_STK for _is_ded_sloc0_1_0
                           4512 ;	AOP_STK for _is_ded_sloc1_1_0
   0BB3 22                 4513 	ld	(hl+),a
   0BB4 72                 4514 	ld	(hl),d
   0BB5 5F                 4515 	ld	e,a
   0BB6 1A                 4516 	ld	a,(de)
   0BB7 2B                 4517 	dec	hl
   0BB8 2B                 4518 	dec	hl
                           4519 ;	genCmpEq
                           4520 ;	AOP_STK for _is_ded_sloc1_1_0
                           4521 ; genCmpEq: left 1, right 1, result 0
   0BB9 77                 4522 	ld      (hl),a
                           4523 ; Removed redundent load
   0BBA FE 01              4524 	cp	a,#0x01
   0BBC C2 CA 0B           4525 	jp	nz,00102$
   0BBF 18 03              4526 	jr	00113$
   0BC1                    4527 00112$:
   0BC1 C3 CA 0B           4528 	jp	00102$
   0BC4                    4529 00113$:
                           4530 ;	game.c 737
                           4531 ;	genRet
   0BC4 11 00 00           4532 	ld	de,#0x0000
   0BC7 C3 16 0C           4533 	jp	00107$
                           4534 ;	genLabel
   0BCA                    4535 00102$:
                           4536 ;	game.c 741
                           4537 ;	genPlus
                           4538 ;	AOP_STK for _is_ded_sloc0_1_0
                           4539 ;	genPlusIncr
                           4540 ;	Can't optimise plus by inc, falling back to the normal way
   0BCA 21 01 00           4541 	ld	hl,#0x0001
   0BCD 09                 4542 	add	hl,bc
   0BCE 7D                 4543 	ld	a,l
   0BCF 54                 4544 	ld	d,h
   0BD0 F8 01              4545 	lda	hl,1(sp)
                           4546 ;	genPointerGet
                           4547 ;	AOP_STK for _is_ded_sloc0_1_0
                           4548 ;	AOP_STK for _is_ded_sloc1_1_0
   0BD2 22                 4549 	ld	(hl+),a
   0BD3 72                 4550 	ld	(hl),d
   0BD4 5F                 4551 	ld	e,a
   0BD5 1A                 4552 	ld	a,(de)
   0BD6 2B                 4553 	dec	hl
   0BD7 2B                 4554 	dec	hl
   0BD8 77                 4555 	ld	(hl),a
                           4556 ;	genPointerGet
   0BD9 0A                 4557 	ld	a,(bc)
   0BDA 4F                 4558 	ld	c,a
                           4559 ;	genIpush
                           4560 ; _saveRegsForCall: sendSetSize: 0 deInUse: 0 bcInUse: 0 deSending: 0
                           4561 ;	AOP_STK for _is_ded_sloc1_1_0
   0BDB 7E                 4562 	ld	a,(hl)
   0BDC F5                 4563 	push	af
   0BDD 33                 4564 	inc	sp
                           4565 ;	genIpush
   0BDE 79                 4566 	ld	a,c
   0BDF F5                 4567 	push	af
   0BE0 33                 4568 	inc	sp
                           4569 ;	genCall
   0BE1 CD 11 11           4570 	call	__get_map_position_from_xy
   0BE4 42                 4571 	ld	b,d
   0BE5 4B                 4572 	ld	c,e
   0BE6 E8 02              4573 	lda	sp,2(sp)
                           4574 ;	genAssign
                           4575 ;	(registers are the same)
                           4576 ;	game.c 744
                           4577 ;	genPlus
                           4578 ;	Can't optimise plus by inc, falling back to the normal way
   0BE8 21 65 18           4579 	ld	hl,#_map
   0BEB 09                 4580 	add	hl,bc
   0BEC 4D                 4581 	ld	c,l
   0BED 44                 4582 	ld	b,h
                           4583 ;	genPointerGet
   0BEE 0A                 4584 	ld	a,(bc)
   0BEF 4F                 4585 	ld	c,a
                           4586 ;	genCast
                           4587 ; Removed redundent load
   0BF0 06 00              4588 	ld	b,#0x00
                           4589 ;	genCmpEq
                           4590 ; genCmpEq: left 2, right 2, result 0
   0BF2 79                 4591 	ld	a,c
   0BF3 FE 0B              4592 	cp	a,#0x0B
   0BF5 C2 FD 0B           4593 	jp	nz,00114$
   0BF8 78                 4594 	ld	a,b
   0BF9 B7                 4595 	or	a,a
   0BFA CA 0D 0C           4596 	jp	z,00104$
   0BFD                    4597 00114$:
                           4598 ;	genCmpEq
                           4599 ; genCmpEq: left 2, right 2, result 0
   0BFD 79                 4600 	ld	a,c
   0BFE FE 0C              4601 	cp	a,#0x0C
   0C00 C2 0A 0C           4602 	jp	nz,00115$
   0C03 78                 4603 	ld	a,b
   0C04 B7                 4604 	or	a,a
   0C05 C2 13 0C           4605 	jp	nz,00106$
   0C08 18 03              4606 	jr	00116$
   0C0A                    4607 00115$:
   0C0A C3 13 0C           4608 	jp	00106$
   0C0D                    4609 00116$:
                           4610 ;	game.c 748
                           4611 ;	genLabel
   0C0D                    4612 00104$:
                           4613 ;	genRet
   0C0D 11 01 00           4614 	ld	de,#0x0001
   0C10 C3 16 0C           4615 	jp	00107$
                           4616 ;	game.c 749
                           4617 ;	genLabel
   0C13                    4618 00106$:
                           4619 ;	game.c 750
                           4620 ;	genRet
   0C13 11 00 00           4621 	ld	de,#0x0000
                           4622 ;	genLabel
   0C16                    4623 00107$:
                           4624 ;	genEndFunction
   0C16 E8 03              4625 	lda	sp,3(sp)
   0C18 C9                 4626 	ret
   0C19                    4627 ___is_ded_end:
                           4628 ;	game.c 771
                           4629 ;	genLabel
                           4630 ;	genFunction
                           4631 ;	---------------------------------
                           4632 ; Function dog1_power
                           4633 ; ---------------------------------
   0C19                    4634 ___dog1_power_start:
   0C19                    4635 _dog1_power:
   0C19 E8 F8              4636 	lda	sp,-8(sp)
                           4637 ;	game.c 775
                           4638 ;	genAssign
                           4639 ;	AOP_HL for _player
   0C1B 21 13 1A           4640 	ld	hl,#_player
   0C1E 4E                 4641 	ld	c,(hl)
   0C1F 23                 4642 	inc	hl
   0C20 46                 4643 	ld	b,(hl)
                           4644 ;	genPlus
                           4645 ;	genPlusIncr
   0C21 03                 4646 	inc	bc
   0C22 03                 4647 	inc	bc
   0C23 03                 4648 	inc	bc
   0C24 03                 4649 	inc	bc
                           4650 ;	genPointerGet
   0C25 0A                 4651 	ld	a,(bc)
   0C26 4F                 4652 	ld	c,a
                           4653 ;	genAssign
                           4654 ;	AOP_HL for _player
                           4655 ;	AOP_STK for _dog1_power_sloc0_1_0
   0C27 2B                 4656 	dec	hl
   0C28 2A                 4657 	ld	a,(hl+)
   0C29 5E                 4658 	ld	e,(hl)
   0C2A F8 02              4659 	lda	hl,2(sp)
   0C2C 22                 4660 	ld	(hl+),a
   0C2D 73                 4661 	ld	(hl),e
                           4662 ;	genPlus
                           4663 ;	AOP_STK for _dog1_power_sloc0_1_0
                           4664 ;	AOP_STK for _dog1_power_sloc1_1_0
                           4665 ;	genPlusIncr
                           4666 ;	Can't optimise plus by inc, falling back to the normal way
   0C2E 2B                 4667 	dec	hl
   0C2F 5E                 4668 	ld	e,(hl)
   0C30 23                 4669 	inc	hl
   0C31 56                 4670 	ld	d,(hl)
   0C32 21 0B 00           4671 	ld	hl,#0x000B
   0C35 19                 4672 	add	hl,de
   0C36 7D                 4673 	ld	a,l
   0C37 54                 4674 	ld	d,h
   0C38 F8 00              4675 	lda	hl,0(sp)
                           4676 ;	genPointerGet
                           4677 ;	AOP_STK for _dog1_power_sloc1_1_0
   0C3A 22                 4678 	ld	(hl+),a
   0C3B 72                 4679 	ld	(hl),d
   0C3C 5F                 4680 	ld	e,a
   0C3D 1A                 4681 	ld	a,(de)
   0C3E 47                 4682 	ld	b,a
                           4683 ;	genIpush
                           4684 ; _saveRegsForCall: sendSetSize: 0 deInUse: 0 bcInUse: 0 deSending: 0
   0C3F 79                 4685 	ld	a,c
   0C40 F5                 4686 	push	af
   0C41 33                 4687 	inc	sp
                           4688 ;	genIpush
   0C42 78                 4689 	ld	a,b
   0C43 F5                 4690 	push	af
   0C44 33                 4691 	inc	sp
                           4692 ;	genCall
   0C45 CD 00 00           4693 	call	_set_sprite_tile
   0C48 E8 02              4694 	lda	sp,2(sp)
                           4695 ;	game.c 777
                           4696 ;	genAssign
                           4697 ;	AOP_HL for _player
   0C4A 21 13 1A           4698 	ld	hl,#_player
   0C4D 4E                 4699 	ld	c,(hl)
   0C4E 23                 4700 	inc	hl
   0C4F 46                 4701 	ld	b,(hl)
                           4702 ;	genPlus
                           4703 ;	genPlusIncr
   0C50 03                 4704 	inc	bc
                           4705 ;	genPointerGet
   0C51 0A                 4706 	ld	a,(bc)
   0C52 4F                 4707 	ld	c,a
                           4708 ;	genAssign
                           4709 ;	AOP_HL for _player
                           4710 ;	AOP_STK for _dog1_power_sloc1_1_0
   0C53 2B                 4711 	dec	hl
   0C54 2A                 4712 	ld	a,(hl+)
   0C55 5E                 4713 	ld	e,(hl)
   0C56 F8 00              4714 	lda	hl,0(sp)
   0C58 22                 4715 	ld	(hl+),a
   0C59 73                 4716 	ld	(hl),e
                           4717 ;	genPointerGet
                           4718 ;	AOP_STK for _dog1_power_sloc1_1_0
   0C5A 2B                 4719 	dec	hl
   0C5B 5E                 4720 	ld	e,(hl)
   0C5C 23                 4721 	inc	hl
   0C5D 56                 4722 	ld	d,(hl)
   0C5E 1A                 4723 	ld	a,(de)
   0C5F 47                 4724 	ld	b,a
                           4725 ;	genIpush
                           4726 ; _saveRegsForCall: sendSetSize: 0 deInUse: 0 bcInUse: 0 deSending: 0
   0C60 79                 4727 	ld	a,c
   0C61 F5                 4728 	push	af
   0C62 33                 4729 	inc	sp
                           4730 ;	genIpush
   0C63 78                 4731 	ld	a,b
   0C64 F5                 4732 	push	af
   0C65 33                 4733 	inc	sp
                           4734 ;	genCall
   0C66 CD 11 11           4735 	call	__get_map_position_from_xy
   0C69 42                 4736 	ld	b,d
   0C6A 4B                 4737 	ld	c,e
   0C6B E8 02              4738 	lda	sp,2(sp)
                           4739 ;	genAssign
                           4740 ;	AOP_STK for _dog1_power_map_position_block_1_1
   0C6D F8 06              4741 	lda	hl,6(sp)
   0C6F 71                 4742 	ld	(hl),c
   0C70 23                 4743 	inc	hl
   0C71 70                 4744 	ld	(hl),b
                           4745 ;	game.c 779
                           4746 ;	genAssign
                           4747 ;	AOP_HL for _player
   0C72 21 13 1A           4748 	ld	hl,#_player
   0C75 4E                 4749 	ld	c,(hl)
   0C76 23                 4750 	inc	hl
   0C77 46                 4751 	ld	b,(hl)
                           4752 ;	genPlus
                           4753 ;	genPlusIncr
                           4754 ;	Can't optimise plus by inc, falling back to the normal way
   0C78 79                 4755 	ld	a,c
   0C79 C6 08              4756 	add	a,#0x08
   0C7B 4F                 4757 	ld	c,a
   0C7C 78                 4758 	ld	a,b
   0C7D CE 00              4759 	adc	a,#0x00
   0C7F 47                 4760 	ld	b,a
                           4761 ;	genPointerGet
   0C80 0A                 4762 	ld	a,(bc)
                           4763 ;	genIpush
                           4764 ; _saveRegsForCall: sendSetSize: 0 deInUse: 0 bcInUse: 0 deSending: 0
   0C81 4F                 4765 	ld	c,a
   0C82 F5                 4766 	push	af
   0C83 33                 4767 	inc	sp
                           4768 ;	genIpush
                           4769 ;	AOP_STK for _dog1_power_map_position_block_1_1
   0C84 F8 07              4770 	lda	hl,7(sp)
   0C86 2A                 4771 	ld	a,(hl+)
   0C87 66                 4772 	ld	h,(hl)
   0C88 6F                 4773 	ld	l,a
   0C89 E5                 4774 	push	hl
                           4775 ;	genCall
   0C8A CD B0 0E           4776 	call	__get_next_map_position
   0C8D 42                 4777 	ld	b,d
   0C8E 4B                 4778 	ld	c,e
   0C8F E8 03              4779 	lda	sp,3(sp)
                           4780 ;	genAssign
                           4781 ;	AOP_STK for _dog1_power_map_position_block_1_1
   0C91 F8 06              4782 	lda	hl,6(sp)
   0C93 71                 4783 	ld	(hl),c
   0C94 23                 4784 	inc	hl
   0C95 70                 4785 	ld	(hl),b
                           4786 ;	game.c 780
                           4787 ;	genAssign
                           4788 ;	AOP_HL for _player
   0C96 21 13 1A           4789 	ld	hl,#_player
   0C99 4E                 4790 	ld	c,(hl)
   0C9A 23                 4791 	inc	hl
   0C9B 46                 4792 	ld	b,(hl)
                           4793 ;	genPlus
                           4794 ;	genPlusIncr
                           4795 ;	Can't optimise plus by inc, falling back to the normal way
   0C9C 79                 4796 	ld	a,c
   0C9D C6 08              4797 	add	a,#0x08
   0C9F 4F                 4798 	ld	c,a
   0CA0 78                 4799 	ld	a,b
   0CA1 CE 00              4800 	adc	a,#0x00
   0CA3 47                 4801 	ld	b,a
                           4802 ;	genPointerGet
   0CA4 0A                 4803 	ld	a,(bc)
                           4804 ;	genIpush
                           4805 ; _saveRegsForCall: sendSetSize: 0 deInUse: 0 bcInUse: 0 deSending: 0
   0CA5 4F                 4806 	ld	c,a
   0CA6 F5                 4807 	push	af
   0CA7 33                 4808 	inc	sp
                           4809 ;	genIpush
                           4810 ;	AOP_STK for _dog1_power_map_position_block_1_1
   0CA8 F8 07              4811 	lda	hl,7(sp)
   0CAA 2A                 4812 	ld	a,(hl+)
   0CAB 66                 4813 	ld	h,(hl)
   0CAC 6F                 4814 	ld	l,a
   0CAD E5                 4815 	push	hl
                           4816 ;	genCall
   0CAE CD B0 0E           4817 	call	__get_next_map_position
   0CB1 42                 4818 	ld	b,d
   0CB2 4B                 4819 	ld	c,e
   0CB3 E8 03              4820 	lda	sp,3(sp)
                           4821 ;	genAssign
                           4822 ;	AOP_STK for _dog1_power_map_position_next_1_1
   0CB5 F8 04              4823 	lda	hl,4(sp)
   0CB7 71                 4824 	ld	(hl),c
   0CB8 23                 4825 	inc	hl
   0CB9 70                 4826 	ld	(hl),b
                           4827 ;	game.c 783
                           4828 ;	genPlus
                           4829 ;	AOP_STK for _dog1_power_map_position_block_1_1
                           4830 ;	Can't optimise plus by inc, falling back to the normal way
   0CBA 11 65 18           4831 	ld	de,#_map
   0CBD 23                 4832 	inc	hl
   0CBE 2A                 4833 	ld	a,(hl+)
   0CBF 66                 4834 	ld	h,(hl)
   0CC0 6F                 4835 	ld	l,a
   0CC1 19                 4836 	add	hl,de
   0CC2 4D                 4837 	ld	c,l
   0CC3 44                 4838 	ld	b,h
                           4839 ;	genPointerGet
   0CC4 0A                 4840 	ld	a,(bc)
   0CC5 4F                 4841 	ld	c,a
                           4842 ;	genCast
                           4843 ; Removed redundent load
   0CC6 06 00              4844 	ld	b,#0x00
                           4845 ;	genCmpEq
                           4846 ; genCmpEq: left 2, right 2, result 0
   0CC8 79                 4847 	ld	a,c
   0CC9 FE 0F              4848 	cp	a,#0x0F
   0CCB C2 D3 0C           4849 	jp	nz,00137$
   0CCE 78                 4850 	ld	a,b
   0CCF B7                 4851 	or	a,a
   0CD0 CA EE 0C           4852 	jp	z,00103$
   0CD3                    4853 00137$:
                           4854 ;	genCmpEq
                           4855 ; genCmpEq: left 2, right 2, result 0
   0CD3 79                 4856 	ld	a,c
   0CD4 FE 10              4857 	cp	a,#0x10
   0CD6 C2 DE 0C           4858 	jp	nz,00138$
   0CD9 78                 4859 	ld	a,b
   0CDA B7                 4860 	or	a,a
   0CDB CA EE 0C           4861 	jp	z,00103$
   0CDE                    4862 00138$:
                           4863 ;	genCmpEq
                           4864 ; genCmpEq: left 2, right 2, result 0
   0CDE 79                 4865 	ld	a,c
   0CDF FE 2D              4866 	cp	a,#0x2D
   0CE1 C2 EB 0C           4867 	jp	nz,00139$
   0CE4 78                 4868 	ld	a,b
   0CE5 B7                 4869 	or	a,a
   0CE6 C2 80 0E           4870 	jp	nz,00122$
   0CE9 18 03              4871 	jr	00140$
   0CEB                    4872 00139$:
   0CEB C3 80 0E           4873 	jp	00122$
   0CEE                    4874 00140$:
                           4875 ;	game.c 798
                           4876 ;	genLabel
   0CEE                    4877 00103$:
                           4878 ;	game.c 790
                           4879 ;	genIpush
                           4880 ; _saveRegsForCall: sendSetSize: 0 deInUse: 0 bcInUse: 0 deSending: 0
                           4881 ;	AOP_STK for _dog1_power_map_position_next_1_1
   0CEE F8 04              4882 	lda	hl,4(sp)
   0CF0 2A                 4883 	ld	a,(hl+)
   0CF1 66                 4884 	ld	h,(hl)
   0CF2 6F                 4885 	ld	l,a
   0CF3 E5                 4886 	push	hl
                           4887 ;	genCall
   0CF4 CD 01 13           4888 	call	_can_move_to_map_pos
   0CF7 42                 4889 	ld	b,d
   0CF8 4B                 4890 	ld	c,e
   0CF9 E8 02              4891 	lda	sp,2(sp)
                           4892 ;	genCmpEq
                           4893 ; genCmpEq: left 2, right 2, result 0
   0CFB 79                 4894 	ld	a,c
   0CFC B0                 4895 	or	a,b
   0CFD CA 80 0E           4896 	jp	z,00122$
   0D00                    4897 00141$:
                           4898 ;	game.c 798
                           4899 ;	genPlus
                           4900 ;	AOP_STK for _dog1_power_map_position_next_1_1
                           4901 ;	Can't optimise plus by inc, falling back to the normal way
   0D00 11 65 18           4902 	ld	de,#_map
   0D03 F8 04              4903 	lda	hl,4(sp)
   0D05 2A                 4904 	ld	a,(hl+)
   0D06 66                 4905 	ld	h,(hl)
   0D07 6F                 4906 	ld	l,a
   0D08 19                 4907 	add	hl,de
   0D09 4D                 4908 	ld	c,l
   0D0A 44                 4909 	ld	b,h
                           4910 ;	genPointerGet
   0D0B 0A                 4911 	ld	a,(bc)
   0D0C 4F                 4912 	ld	c,a
                           4913 ;	genCast
                           4914 ; Removed redundent load
   0D0D 06 00              4915 	ld	b,#0x00
                           4916 ;	genCmpLt
   0D0F 79                 4917 	ld	a,c
   0D10 D6 0D              4918 	sub	a,#0x0D
   0D12 78                 4919 	ld	a,b
   0D13 DE 00              4920 	sbc	a,#0x00
   0D15 DA 3E 0D           4921 	jp	c,00106$
                           4922 ;	game.c 799
                           4923 ;	genCmpEq
                           4924 ; genCmpEq: left 2, right 2, result 0
   0D18 79                 4925 	ld	a,c
   0D19 FE 2F              4926 	cp	a,#0x2F
   0D1B C2 23 0D           4927 	jp	nz,00142$
   0D1E 78                 4928 	ld	a,b
   0D1F B7                 4929 	or	a,a
   0D20 CA 3E 0D           4930 	jp	z,00106$
   0D23                    4931 00142$:
                           4932 ;	game.c 800
                           4933 ;	genCmpEq
                           4934 ; genCmpEq: left 2, right 2, result 0
   0D23 79                 4935 	ld	a,c
   0D24 FE 30              4936 	cp	a,#0x30
   0D26 C2 2E 0D           4937 	jp	nz,00143$
   0D29 78                 4938 	ld	a,b
   0D2A B7                 4939 	or	a,a
   0D2B CA 3E 0D           4940 	jp	z,00106$
   0D2E                    4941 00143$:
                           4942 ;	game.c 801
                           4943 ;	genCmpEq
                           4944 ; genCmpEq: left 2, right 2, result 0
   0D2E 79                 4945 	ld	a,c
   0D2F FE 2A              4946 	cp	a,#0x2A
   0D31 C2 3B 0D           4947 	jp	nz,00144$
   0D34 78                 4948 	ld	a,b
   0D35 B7                 4949 	or	a,a
   0D36 C2 72 0D           4950 	jp	nz,00107$
   0D39 18 03              4951 	jr	00145$
   0D3B                    4952 00144$:
   0D3B C3 72 0D           4953 	jp	00107$
   0D3E                    4954 00145$:
                           4955 ;	genLabel
   0D3E                    4956 00106$:
                           4957 ;	game.c 803
                           4958 ;	genAssign
                           4959 ;	AOP_HL for _player
                           4960 ;	AOP_STK for _dog1_power_sloc1_1_0
   0D3E 21 13 1A           4961 	ld	hl,#_player
   0D41 2A                 4962 	ld	a,(hl+)
   0D42 5E                 4963 	ld	e,(hl)
   0D43 F8 00              4964 	lda	hl,0(sp)
   0D45 22                 4965 	ld	(hl+),a
   0D46 73                 4966 	ld	(hl),e
                           4967 ;	genPlus
                           4968 ;	AOP_STK for _dog1_power_sloc1_1_0
                           4969 ;	AOP_STK for _dog1_power_sloc0_1_0
                           4970 ;	genPlusIncr
                           4971 ;	Can't optimise plus by inc, falling back to the normal way
   0D47 2B                 4972 	dec	hl
   0D48 5E                 4973 	ld	e,(hl)
   0D49 23                 4974 	inc	hl
   0D4A 56                 4975 	ld	d,(hl)
   0D4B 21 08 00           4976 	ld	hl,#0x0008
   0D4E 19                 4977 	add	hl,de
   0D4F 7D                 4978 	ld	a,l
   0D50 54                 4979 	ld	d,h
   0D51 F8 02              4980 	lda	hl,2(sp)
                           4981 ;	genPointerGet
                           4982 ;	AOP_STK for _dog1_power_sloc0_1_0
                           4983 ;	AOP_STK for _dog1_power_sloc1_1_0
   0D53 22                 4984 	ld	(hl+),a
   0D54 72                 4985 	ld	(hl),d
   0D55 5F                 4986 	ld	e,a
   0D56 1A                 4987 	ld	a,(de)
   0D57 F8 00              4988 	lda	hl,0(sp)
   0D59 77                 4989 	ld	(hl),a
                           4990 ;	genIpush
                           4991 ; _saveRegsForCall: sendSetSize: 0 deInUse: 0 bcInUse: 1 deSending: 0
   0D5A C5                 4992 	push	bc
                           4993 ;	AOP_STK for _dog1_power_map_position_next_1_1
   0D5B F8 06              4994 	lda	hl,6(sp)
   0D5D 2A                 4995 	ld	a,(hl+)
   0D5E 66                 4996 	ld	h,(hl)
   0D5F 6F                 4997 	ld	l,a
   0D60 E5                 4998 	push	hl
                           4999 ;	genIpush
                           5000 ;	AOP_STK for _dog1_power_sloc1_1_0
   0D61 F8 04              5001 	lda	hl,4(sp)
   0D63 7E                 5002 	ld	a,(hl)
   0D64 F5                 5003 	push	af
   0D65 33                 5004 	inc	sp
                           5005 ;	genIpush
                           5006 ;	AOP_STK for _dog1_power_map_position_block_1_1
   0D66 F8 0B              5007 	lda	hl,11(sp)
   0D68 2A                 5008 	ld	a,(hl+)
   0D69 66                 5009 	ld	h,(hl)
   0D6A 6F                 5010 	ld	l,a
   0D6B E5                 5011 	push	hl
                           5012 ;	genCall
   0D6C CD 64 0F           5013 	call	_dog1_power_apply
   0D6F E8 05              5014 	lda	sp,5(sp)
   0D71 C1                 5015 	pop	bc
                           5016 ;	genLabel
   0D72                    5017 00107$:
                           5018 ;	game.c 807
                           5019 ;	genCmpEq
                           5020 ; genCmpEq: left 2, right 2, result 0
   0D72 79                 5021 	ld	a,c
   0D73 FE 0D              5022 	cp	a,#0x0D
   0D75 C2 7D 0D           5023 	jp	nz,00146$
   0D78 78                 5024 	ld	a,b
   0D79 B7                 5025 	or	a,a
   0D7A CA 8D 0D           5026 	jp	z,00119$
   0D7D                    5027 00146$:
                           5028 ;	genCmpEq
                           5029 ; genCmpEq: left 2, right 2, result 0
   0D7D 79                 5030 	ld	a,c
   0D7E FE 0E              5031 	cp	a,#0x0E
   0D80 C2 8A 0D           5032 	jp	nz,00147$
   0D83 78                 5033 	ld	a,b
   0D84 B7                 5034 	or	a,a
   0D85 C2 80 0E           5035 	jp	nz,00122$
   0D88 18 03              5036 	jr	00148$
   0D8A                    5037 00147$:
   0D8A C3 80 0E           5038 	jp	00122$
   0D8D                    5039 00148$:
                           5040 ;	genLabel
   0D8D                    5041 00119$:
                           5042 ;	game.c 809
                           5043 ;	genAssign
                           5044 ;	AOP_HL for _player
   0D8D 21 13 1A           5045 	ld	hl,#_player
   0D90 4E                 5046 	ld	c,(hl)
   0D91 23                 5047 	inc	hl
   0D92 46                 5048 	ld	b,(hl)
                           5049 ;	genPlus
                           5050 ;	genPlusIncr
                           5051 ;	Can't optimise plus by inc, falling back to the normal way
   0D93 79                 5052 	ld	a,c
   0D94 C6 08              5053 	add	a,#0x08
   0D96 4F                 5054 	ld	c,a
   0D97 78                 5055 	ld	a,b
   0D98 CE 00              5056 	adc	a,#0x00
   0D9A 47                 5057 	ld	b,a
                           5058 ;	genPointerGet
   0D9B 0A                 5059 	ld	a,(bc)
   0D9C 4F                 5060 	ld	c,a
                           5061 ;	genIpush
                           5062 ; _saveRegsForCall: sendSetSize: 0 deInUse: 0 bcInUse: 0 deSending: 0
                           5063 ;	AOP_STK for _dog1_power_map_position_next_1_1
   0D9D F8 04              5064 	lda	hl,4(sp)
   0D9F 2A                 5065 	ld	a,(hl+)
   0DA0 66                 5066 	ld	h,(hl)
   0DA1 6F                 5067 	ld	l,a
   0DA2 E5                 5068 	push	hl
                           5069 ;	genIpush
   0DA3 79                 5070 	ld	a,c
   0DA4 F5                 5071 	push	af
   0DA5 33                 5072 	inc	sp
                           5073 ;	genIpush
                           5074 ;	AOP_STK for _dog1_power_map_position_block_1_1
   0DA6 F8 09              5075 	lda	hl,9(sp)
   0DA8 2A                 5076 	ld	a,(hl+)
   0DA9 66                 5077 	ld	h,(hl)
   0DAA 6F                 5078 	ld	l,a
   0DAB E5                 5079 	push	hl
                           5080 ;	genCall
   0DAC CD 64 0F           5081 	call	_dog1_power_apply
   0DAF E8 05              5082 	lda	sp,5(sp)
                           5083 ;	game.c 810
                           5084 ;	genAssign
                           5085 ;	AOP_STK for _dog1_power_map_position_next_1_1
                           5086 ;	AOP_STK for _dog1_power_map_position_block_1_1
   0DB1 F8 04              5087 	lda	hl,4(sp)
   0DB3 2A                 5088 	ld	a,(hl+)
   0DB4 5E                 5089 	ld	e,(hl)
   0DB5 23                 5090 	inc	hl
   0DB6 22                 5091 	ld	(hl+),a
   0DB7 73                 5092 	ld	(hl),e
                           5093 ;	game.c 811
                           5094 ;	genAssign
                           5095 ;	AOP_HL for _player
   0DB8 21 13 1A           5096 	ld	hl,#_player
   0DBB 4E                 5097 	ld	c,(hl)
   0DBC 23                 5098 	inc	hl
   0DBD 46                 5099 	ld	b,(hl)
                           5100 ;	genPlus
                           5101 ;	genPlusIncr
                           5102 ;	Can't optimise plus by inc, falling back to the normal way
   0DBE 79                 5103 	ld	a,c
   0DBF C6 08              5104 	add	a,#0x08
   0DC1 4F                 5105 	ld	c,a
   0DC2 78                 5106 	ld	a,b
   0DC3 CE 00              5107 	adc	a,#0x00
   0DC5 47                 5108 	ld	b,a
                           5109 ;	genPointerGet
   0DC6 0A                 5110 	ld	a,(bc)
                           5111 ;	genIpush
                           5112 ; _saveRegsForCall: sendSetSize: 0 deInUse: 0 bcInUse: 0 deSending: 0
   0DC7 4F                 5113 	ld	c,a
   0DC8 F5                 5114 	push	af
   0DC9 33                 5115 	inc	sp
                           5116 ;	genIpush
                           5117 ;	AOP_STK for _dog1_power_map_position_next_1_1
   0DCA F8 05              5118 	lda	hl,5(sp)
   0DCC 2A                 5119 	ld	a,(hl+)
   0DCD 66                 5120 	ld	h,(hl)
   0DCE 6F                 5121 	ld	l,a
   0DCF E5                 5122 	push	hl
                           5123 ;	genCall
   0DD0 CD B0 0E           5124 	call	__get_next_map_position
   0DD3 42                 5125 	ld	b,d
   0DD4 4B                 5126 	ld	c,e
   0DD5 E8 03              5127 	lda	sp,3(sp)
                           5128 ;	genAssign
                           5129 ;	AOP_STK for _dog1_power_map_position_next_1_1
   0DD7 F8 04              5130 	lda	hl,4(sp)
   0DD9 71                 5131 	ld	(hl),c
   0DDA 23                 5132 	inc	hl
   0DDB 70                 5133 	ld	(hl),b
                           5134 ;	game.c 813
                           5135 ;	genLabel
   0DDC                    5136 00116$:
                           5137 ;	genPlus
                           5138 ;	AOP_STK for _dog1_power_map_position_block_1_1
                           5139 ;	Can't optimise plus by inc, falling back to the normal way
   0DDC 11 65 18           5140 	ld	de,#_map
   0DDF F8 06              5141 	lda	hl,6(sp)
   0DE1 2A                 5142 	ld	a,(hl+)
   0DE2 66                 5143 	ld	h,(hl)
   0DE3 6F                 5144 	ld	l,a
   0DE4 19                 5145 	add	hl,de
   0DE5 4D                 5146 	ld	c,l
   0DE6 44                 5147 	ld	b,h
                           5148 ;	genPointerGet
   0DE7 0A                 5149 	ld	a,(bc)
   0DE8 4F                 5150 	ld	c,a
                           5151 ;	genCast
                           5152 ; Removed redundent load
   0DE9 06 00              5153 	ld	b,#0x00
                           5154 ;	genCmpEq
                           5155 ; genCmpEq: left 2, right 2, result 0
   0DEB 79                 5156 	ld	a,c
   0DEC FE 0D              5157 	cp	a,#0x0D
   0DEE C2 F6 0D           5158 	jp	nz,00149$
   0DF1 78                 5159 	ld	a,b
   0DF2 B7                 5160 	or	a,a
   0DF3 CA 1C 0E           5161 	jp	z,00117$
   0DF6                    5162 00149$:
                           5163 ;	game.c 814
                           5164 ;	genCmpEq
                           5165 ; genCmpEq: left 2, right 2, result 0
   0DF6 79                 5166 	ld	a,c
   0DF7 FE 0E              5167 	cp	a,#0x0E
   0DF9 C2 01 0E           5168 	jp	nz,00150$
   0DFC 78                 5169 	ld	a,b
   0DFD B7                 5170 	or	a,a
   0DFE CA 1C 0E           5171 	jp	z,00117$
   0E01                    5172 00150$:
                           5173 ;	game.c 815
                           5174 ;	genCmpEq
                           5175 ; genCmpEq: left 2, right 2, result 0
   0E01 79                 5176 	ld	a,c
   0E02 FE 0F              5177 	cp	a,#0x0F
   0E04 C2 0C 0E           5178 	jp	nz,00151$
   0E07 78                 5179 	ld	a,b
   0E08 B7                 5180 	or	a,a
   0E09 CA 1C 0E           5181 	jp	z,00117$
   0E0C                    5182 00151$:
                           5183 ;	game.c 816
                           5184 ;	genCmpEq
                           5185 ; genCmpEq: left 2, right 2, result 0
   0E0C 79                 5186 	ld	a,c
   0E0D FE 10              5187 	cp	a,#0x10
   0E0F C2 19 0E           5188 	jp	nz,00152$
   0E12 78                 5189 	ld	a,b
   0E13 B7                 5190 	or	a,a
   0E14 C2 80 0E           5191 	jp	nz,00122$
   0E17 18 03              5192 	jr	00153$
   0E19                    5193 00152$:
   0E19 C3 80 0E           5194 	jp	00122$
   0E1C                    5195 00153$:
                           5196 ;	genLabel
   0E1C                    5197 00117$:
                           5198 ;	game.c 818
                           5199 ;	genIpush
                           5200 ; _saveRegsForCall: sendSetSize: 0 deInUse: 0 bcInUse: 0 deSending: 0
                           5201 ;	AOP_STK for _dog1_power_map_position_next_1_1
   0E1C F8 04              5202 	lda	hl,4(sp)
   0E1E 2A                 5203 	ld	a,(hl+)
   0E1F 66                 5204 	ld	h,(hl)
   0E20 6F                 5205 	ld	l,a
   0E21 E5                 5206 	push	hl
                           5207 ;	genCall
   0E22 CD 01 13           5208 	call	_can_move_to_map_pos
   0E25 42                 5209 	ld	b,d
   0E26 4B                 5210 	ld	c,e
   0E27 E8 02              5211 	lda	sp,2(sp)
                           5212 ;	genCmpEq
                           5213 ; genCmpEq: left 2, right 2, result 0
   0E29 79                 5214 	ld	a,c
   0E2A B0                 5215 	or	a,b
   0E2B CA 80 0E           5216 	jp	z,00122$
   0E2E                    5217 00154$:
                           5218 ;	game.c 821
                           5219 ;	genAssign
                           5220 ;	AOP_HL for _player
   0E2E 21 13 1A           5221 	ld	hl,#_player
   0E31 4E                 5222 	ld	c,(hl)
   0E32 23                 5223 	inc	hl
   0E33 46                 5224 	ld	b,(hl)
                           5225 ;	genPlus
                           5226 ;	genPlusIncr
                           5227 ;	Can't optimise plus by inc, falling back to the normal way
   0E34 79                 5228 	ld	a,c
   0E35 C6 08              5229 	add	a,#0x08
   0E37 4F                 5230 	ld	c,a
   0E38 78                 5231 	ld	a,b
   0E39 CE 00              5232 	adc	a,#0x00
   0E3B 47                 5233 	ld	b,a
                           5234 ;	genPointerGet
   0E3C 0A                 5235 	ld	a,(bc)
   0E3D 4F                 5236 	ld	c,a
                           5237 ;	genIpush
                           5238 ; _saveRegsForCall: sendSetSize: 0 deInUse: 0 bcInUse: 0 deSending: 0
                           5239 ;	AOP_STK for _dog1_power_map_position_next_1_1
   0E3E F8 04              5240 	lda	hl,4(sp)
   0E40 2A                 5241 	ld	a,(hl+)
   0E41 66                 5242 	ld	h,(hl)
   0E42 6F                 5243 	ld	l,a
   0E43 E5                 5244 	push	hl
                           5245 ;	genIpush
   0E44 79                 5246 	ld	a,c
   0E45 F5                 5247 	push	af
   0E46 33                 5248 	inc	sp
                           5249 ;	genIpush
                           5250 ;	AOP_STK for _dog1_power_map_position_block_1_1
   0E47 F8 09              5251 	lda	hl,9(sp)
   0E49 2A                 5252 	ld	a,(hl+)
   0E4A 66                 5253 	ld	h,(hl)
   0E4B 6F                 5254 	ld	l,a
   0E4C E5                 5255 	push	hl
                           5256 ;	genCall
   0E4D CD 64 0F           5257 	call	_dog1_power_apply
   0E50 E8 05              5258 	lda	sp,5(sp)
                           5259 ;	game.c 822
                           5260 ;	genAssign
                           5261 ;	AOP_STK for _dog1_power_map_position_next_1_1
                           5262 ;	AOP_STK for _dog1_power_map_position_block_1_1
   0E52 F8 04              5263 	lda	hl,4(sp)
   0E54 2A                 5264 	ld	a,(hl+)
   0E55 5E                 5265 	ld	e,(hl)
   0E56 23                 5266 	inc	hl
   0E57 22                 5267 	ld	(hl+),a
   0E58 73                 5268 	ld	(hl),e
                           5269 ;	game.c 823
                           5270 ;	genAssign
                           5271 ;	AOP_HL for _player
   0E59 21 13 1A           5272 	ld	hl,#_player
   0E5C 4E                 5273 	ld	c,(hl)
   0E5D 23                 5274 	inc	hl
   0E5E 46                 5275 	ld	b,(hl)
                           5276 ;	genPlus
                           5277 ;	genPlusIncr
                           5278 ;	Can't optimise plus by inc, falling back to the normal way
   0E5F 79                 5279 	ld	a,c
   0E60 C6 08              5280 	add	a,#0x08
   0E62 4F                 5281 	ld	c,a
   0E63 78                 5282 	ld	a,b
   0E64 CE 00              5283 	adc	a,#0x00
   0E66 47                 5284 	ld	b,a
                           5285 ;	genPointerGet
   0E67 0A                 5286 	ld	a,(bc)
                           5287 ;	genIpush
                           5288 ; _saveRegsForCall: sendSetSize: 0 deInUse: 0 bcInUse: 0 deSending: 0
   0E68 4F                 5289 	ld	c,a
   0E69 F5                 5290 	push	af
   0E6A 33                 5291 	inc	sp
                           5292 ;	genIpush
                           5293 ;	AOP_STK for _dog1_power_map_position_next_1_1
   0E6B F8 05              5294 	lda	hl,5(sp)
   0E6D 2A                 5295 	ld	a,(hl+)
   0E6E 66                 5296 	ld	h,(hl)
   0E6F 6F                 5297 	ld	l,a
   0E70 E5                 5298 	push	hl
                           5299 ;	genCall
   0E71 CD B0 0E           5300 	call	__get_next_map_position
   0E74 42                 5301 	ld	b,d
   0E75 4B                 5302 	ld	c,e
   0E76 E8 03              5303 	lda	sp,3(sp)
                           5304 ;	genAssign
                           5305 ;	AOP_STK for _dog1_power_map_position_next_1_1
   0E78 F8 04              5306 	lda	hl,4(sp)
   0E7A 71                 5307 	ld	(hl),c
   0E7B 23                 5308 	inc	hl
   0E7C 70                 5309 	ld	(hl),b
                           5310 ;	genGoto
   0E7D C3 DC 0D           5311 	jp	00116$
                           5312 ;	game.c 833
                           5313 ;	genLabel
   0E80                    5314 00122$:
                           5315 ;	game.c 838
                           5316 ;	genAssign
                           5317 ;	AOP_HL for _player
   0E80 21 13 1A           5318 	ld	hl,#_player
   0E83 4E                 5319 	ld	c,(hl)
   0E84 23                 5320 	inc	hl
   0E85 46                 5321 	ld	b,(hl)
                           5322 ;	genPlus
                           5323 ;	genPlusIncr
   0E86 03                 5324 	inc	bc
   0E87 03                 5325 	inc	bc
                           5326 ;	genPointerGet
   0E88 0A                 5327 	ld	a,(bc)
   0E89 4F                 5328 	ld	c,a
                           5329 ;	genAssign
                           5330 ;	AOP_HL for _player
                           5331 ;	AOP_STK for _dog1_power_sloc1_1_0
   0E8A 2B                 5332 	dec	hl
   0E8B 2A                 5333 	ld	a,(hl+)
   0E8C 5E                 5334 	ld	e,(hl)
   0E8D F8 00              5335 	lda	hl,0(sp)
   0E8F 22                 5336 	ld	(hl+),a
   0E90 73                 5337 	ld	(hl),e
                           5338 ;	genPlus
                           5339 ;	AOP_STK for _dog1_power_sloc1_1_0
                           5340 ;	AOP_STK for _dog1_power_sloc0_1_0
                           5341 ;	genPlusIncr
                           5342 ;	Can't optimise plus by inc, falling back to the normal way
   0E91 2B                 5343 	dec	hl
   0E92 5E                 5344 	ld	e,(hl)
   0E93 23                 5345 	inc	hl
   0E94 56                 5346 	ld	d,(hl)
   0E95 21 0B 00           5347 	ld	hl,#0x000B
   0E98 19                 5348 	add	hl,de
   0E99 7D                 5349 	ld	a,l
   0E9A 54                 5350 	ld	d,h
   0E9B F8 02              5351 	lda	hl,2(sp)
                           5352 ;	genPointerGet
                           5353 ;	AOP_STK for _dog1_power_sloc0_1_0
   0E9D 22                 5354 	ld	(hl+),a
   0E9E 72                 5355 	ld	(hl),d
   0E9F 5F                 5356 	ld	e,a
   0EA0 1A                 5357 	ld	a,(de)
   0EA1 47                 5358 	ld	b,a
                           5359 ;	genIpush
                           5360 ; _saveRegsForCall: sendSetSize: 0 deInUse: 0 bcInUse: 0 deSending: 0
   0EA2 79                 5361 	ld	a,c
   0EA3 F5                 5362 	push	af
   0EA4 33                 5363 	inc	sp
                           5364 ;	genIpush
   0EA5 78                 5365 	ld	a,b
   0EA6 F5                 5366 	push	af
   0EA7 33                 5367 	inc	sp
                           5368 ;	genCall
   0EA8 CD 00 00           5369 	call	_set_sprite_tile
   0EAB E8 02              5370 	lda	sp,2(sp)
                           5371 ;	genLabel
   0EAD                    5372 00123$:
                           5373 ;	genEndFunction
   0EAD E8 08              5374 	lda	sp,8(sp)
   0EAF C9                 5375 	ret
   0EB0                    5376 ___dog1_power_end:
                           5377 ;	game.c 841
                           5378 ;	genLabel
                           5379 ;	genFunction
                           5380 ;	---------------------------------
                           5381 ; Function _get_next_map_position
                           5382 ; ---------------------------------
   0EB0                    5383 ____get_next_map_position_start:
   0EB0                    5384 __get_next_map_position:
   0EB0 E8 FE              5385 	lda	sp,-2(sp)
                           5386 ;	game.c 842
                           5387 ;	genCmpLt
                           5388 ;	AOP_STK for 
   0EB2 F8 06              5389 	lda	hl,6(sp)
   0EB4 7E                 5390 	ld	a,(hl)
   0EB5 FE 01              5391 	cp	#0x01
   0EB7 DA 5C 0F           5392 	jp	c,00113$
                           5393 ;	genCmpGt
                           5394 ;	AOP_STK for 
   0EBA 3E 04              5395 	ld	a,#0x04
   0EBC 96                 5396 	sub	a,(hl)
   0EBD DA 5C 0F           5397 	jp	c,00113$
                           5398 ;	genMinus
                           5399 ;	AOP_STK for 
   0EC0 7E                 5400 	ld	a,(hl)
   0EC1 C6 FF              5401 	add	a,#0xFF
   0EC3 4F                 5402 	ld	c,a
                           5403 ;	genJumpTab
   0EC4 59                 5404 	ld	e,c
   0EC5 16 00              5405 	ld	d,#0x00
   0EC7 21 CE 0E           5406 	ld	hl,#00122$
   0ECA 19                 5407 	add	hl,de
   0ECB 19                 5408 	add	hl,de
   0ECC 19                 5409 	add	hl,de
   0ECD E9                 5410 	jp	(hl)
   0ECE                    5411 00122$:
   0ECE C3 DA 0E           5412 	jp	00103$
   0ED1 C3 F9 0E           5413 	jp	00106$
   0ED4 C3 1F 0F           5414 	jp	00109$
   0ED7 C3 3C 0F           5415 	jp	00112$
                           5416 ;	game.c 847
                           5417 ;	genLabel
   0EDA                    5418 00103$:
                           5419 ;	game.c 844
                           5420 ;	genCmpGt
                           5421 ;	AOP_STK for 
   0EDA 3E 14              5422 	ld	a,#0x14
   0EDC F8 04              5423 	lda	hl,4(sp)
   0EDE 96                 5424 	sub	a,(hl)
   0EDF 3E 00              5425 	ld	a,#0x00
   0EE1 23                 5426 	inc	hl
   0EE2 9E                 5427 	sbc	a,(hl)
   0EE3 D2 5C 0F           5428 	jp	nc,00113$
                           5429 ;	game.c 845
                           5430 ;	genMinus
                           5431 ;	AOP_STK for 
   0EE6 2B                 5432 	dec	hl
   0EE7 5E                 5433 	ld	e,(hl)
   0EE8 23                 5434 	inc	hl
   0EE9 56                 5435 	ld	d,(hl)
   0EEA 21 14 00           5436 	ld	hl,#0x0014
   0EED 7B                 5437 	ld	a,e
   0EEE 95                 5438 	sub	a,l
   0EEF 5F                 5439 	ld	e,a
   0EF0 7A                 5440 	ld	a,d
   0EF1 9C                 5441 	sbc	a,h
   0EF2 F8 05              5442 	lda	hl,5(sp)
   0EF4 32                 5443 	ld      (hl-),a
   0EF5 73                 5444 	ld	(hl),e
                           5445 ;	game.c 847
                           5446 ;	genGoto
   0EF6 C3 5C 0F           5447 	jp	00113$
                           5448 ;	game.c 852
                           5449 ;	genLabel
   0EF9                    5450 00106$:
                           5451 ;	game.c 849
                           5452 ;	genPlus
                           5453 ;	AOP_STK for 
                           5454 ;	genPlusIncr
   0EF9 F8 04              5455 	lda	hl,4(sp)
   0EFB 4E                 5456 	ld	c,(hl)
   0EFC 23                 5457 	inc	hl
   0EFD 46                 5458 	ld	b,(hl)
   0EFE 03                 5459 	inc	bc
                           5460 ;	genIpush
                           5461 ; _saveRegsForCall: sendSetSize: 0 deInUse: 0 bcInUse: 1 deSending: 0
   0EFF C5                 5462 	push	bc
   0F00 21 14 00           5463 	ld	hl,#0x0014
   0F03 E5                 5464 	push	hl
                           5465 ;	genIpush
   0F04 C5                 5466 	push	bc
                           5467 ;	genCall
   0F05 CD 00 00           5468 	call	__moduint_rrx_s
                           5469 ;	AOP_STK for __get_next_map_position_sloc0_1_0
   0F08 F8 07              5470 	lda	hl,7(sp)
   0F0A 72                 5471 	ld	(hl),d
   0F0B 2B                 5472 	dec	hl
   0F0C 73                 5473 	ld	(hl),e
   0F0D E8 04              5474 	lda	sp,4(sp)
   0F0F C1                 5475 	pop	bc
                           5476 ;	genCmpEq
                           5477 ;	AOP_STK for __get_next_map_position_sloc0_1_0
                           5478 ; genCmpEq: left 2, right 2, result 0
   0F10 F8 00              5479 	lda	hl,0(sp)
   0F12 2A                 5480 	ld	a,(hl+)
   0F13 B6                 5481 	or	a,(hl)
   0F14 CA 5C 0F           5482 	jp	z,00113$
   0F17                    5483 00123$:
                           5484 ;	game.c 850
                           5485 ;	genAssign
                           5486 ;	(registers are the same)
                           5487 ;	genAssign
                           5488 ;	AOP_STK for 
   0F17 F8 04              5489 	lda	hl,4(sp)
   0F19 71                 5490 	ld	(hl),c
   0F1A 23                 5491 	inc	hl
   0F1B 70                 5492 	ld	(hl),b
                           5493 ;	game.c 852
                           5494 ;	genGoto
   0F1C C3 5C 0F           5495 	jp	00113$
                           5496 ;	game.c 857
                           5497 ;	genLabel
   0F1F                    5498 00109$:
                           5499 ;	game.c 854
                           5500 ;	genCmpLt
                           5501 ;	AOP_STK for 
   0F1F F8 04              5502 	lda	hl,4(sp)
   0F21 7E                 5503 	ld	a,(hl)
   0F22 D6 54              5504 	sub	a,#0x54
   0F24 23                 5505 	inc	hl
   0F25 7E                 5506 	ld	a,(hl)
   0F26 DE 01              5507 	sbc	a,#0x01
   0F28 D2 5C 0F           5508 	jp	nc,00113$
                           5509 ;	game.c 855
                           5510 ;	genPlus
                           5511 ;	AOP_STK for 
                           5512 ;	genPlusIncr
                           5513 ;	Can't optimise plus by inc, falling back to the normal way
   0F2B 2B                 5514 	dec	hl
   0F2C 5E                 5515 	ld	e,(hl)
   0F2D 23                 5516 	inc	hl
   0F2E 56                 5517 	ld	d,(hl)
   0F2F 21 14 00           5518 	ld	hl,#0x0014
   0F32 19                 5519 	add	hl,de
   0F33 7D                 5520 	ld	a,l
   0F34 54                 5521 	ld	d,h
   0F35 F8 04              5522 	lda	hl,4(sp)
   0F37 22                 5523 	ld	(hl+),a
   0F38 72                 5524 	ld	(hl),d
                           5525 ;	game.c 857
                           5526 ;	genGoto
   0F39 C3 5C 0F           5527 	jp	00113$
                           5528 ;	game.c 863
                           5529 ;	genLabel
   0F3C                    5530 00112$:
                           5531 ;	game.c 859
                           5532 ;	genIpush
                           5533 ; _saveRegsForCall: sendSetSize: 0 deInUse: 0 bcInUse: 0 deSending: 0
   0F3C 21 14 00           5534 	ld	hl,#0x0014
   0F3F E5                 5535 	push	hl
                           5536 ;	genIpush
                           5537 ;	AOP_STK for 
   0F40 F8 06              5538 	lda	hl,6(sp)
   0F42 2A                 5539 	ld	a,(hl+)
   0F43 66                 5540 	ld	h,(hl)
   0F44 6F                 5541 	ld	l,a
   0F45 E5                 5542 	push	hl
                           5543 ;	genCall
   0F46 CD 00 00           5544 	call	__moduint_rrx_s
   0F49 42                 5545 	ld	b,d
   0F4A 4B                 5546 	ld	c,e
   0F4B E8 04              5547 	lda	sp,4(sp)
                           5548 ;	genCmpEq
                           5549 ; genCmpEq: left 2, right 2, result 0
   0F4D 79                 5550 	ld	a,c
   0F4E B0                 5551 	or	a,b
   0F4F CA 5C 0F           5552 	jp	z,00113$
   0F52                    5553 00124$:
                           5554 ;	game.c 860
                           5555 ;	genMinus
                           5556 ;	AOP_STK for 
   0F52 F8 04              5557 	lda	hl,4(sp)
   0F54 5E                 5558 	ld	e,(hl)
   0F55 23                 5559 	inc	hl
   0F56 56                 5560 	ld	d,(hl)
   0F57 1B                 5561 	dec	de
   0F58 2B                 5562 	dec	hl
   0F59 73                 5563 	ld	(hl),e
   0F5A 23                 5564 	inc	hl
   0F5B 72                 5565 	ld	(hl),d
                           5566 ;	game.c 864
                           5567 ;	genLabel
   0F5C                    5568 00113$:
                           5569 ;	game.c 865
                           5570 ;	genRet
                           5571 ;	AOP_STK for 
   0F5C F8 04              5572 	lda	hl,4(sp)
   0F5E 5E                 5573 	ld	e,(hl)
   0F5F 23                 5574 	inc	hl
   0F60 56                 5575 	ld	d,(hl)
                           5576 ;	genLabel
   0F61                    5577 00114$:
                           5578 ;	genEndFunction
   0F61 E8 02              5579 	lda	sp,2(sp)
   0F63 C9                 5580 	ret
   0F64                    5581 ____get_next_map_position_end:
                           5582 ;	game.c 868
                           5583 ;	genLabel
                           5584 ;	genFunction
                           5585 ;	---------------------------------
                           5586 ; Function dog1_power_apply
                           5587 ; ---------------------------------
   0F64                    5588 ___dog1_power_apply_start:
   0F64                    5589 _dog1_power_apply:
   0F64 E8 F9              5590 	lda	sp,-7(sp)
                           5591 ;	game.c 874
                           5592 ;	genPlus
                           5593 ;	AOP_STK for 
                           5594 ;	Can't optimise plus by inc, falling back to the normal way
   0F66 11 65 18           5595 	ld	de,#_map
   0F69 F8 09              5596 	lda	hl,9(sp)
   0F6B 2A                 5597 	ld	a,(hl+)
   0F6C 66                 5598 	ld	h,(hl)
   0F6D 6F                 5599 	ld	l,a
   0F6E 19                 5600 	add	hl,de
   0F6F 4D                 5601 	ld	c,l
   0F70 44                 5602 	ld	b,h
                           5603 ;	genPointerGet
                           5604 ;	AOP_STK for _dog1_power_apply_sloc0_1_0
   0F71 0A                 5605 	ld	a,(bc)
   0F72 F8 04              5606 	lda	hl,4(sp)
                           5607 ;	genCast
                           5608 ;	AOP_STK for _dog1_power_apply_sloc0_1_0
                           5609 ;	AOP_STK for _dog1_power_apply_sloc1_1_0
                           5610 ; Removed redundent load
   0F74 32                 5611 	ld      (hl-),a
   0F75 2B                 5612 	dec	hl
   0F76 22                 5613 	ld	(hl+),a
   0F77 36 00              5614 	ld	(hl),#0x00
                           5615 ;	genCmpEq
                           5616 ;	AOP_STK for _dog1_power_apply_sloc1_1_0
                           5617 ; genCmpEq: left 2, right 2, result 0
   0F79 2B                 5618 	dec	hl
   0F7A 7E                 5619 	ld	a,(hl)
   0F7B FE 2D              5620 	cp	a,#0x2D
   0F7D C2 88 0F           5621 	jp	nz,00132$
   0F80 23                 5622 	inc	hl
   0F81 7E                 5623 	ld	a,(hl)
   0F82 B7                 5624 	or	a,a
   0F83 C2 8E 0F           5625 	jp	nz,00102$
   0F86 18 03              5626 	jr	00133$
   0F88                    5627 00132$:
   0F88 C3 8E 0F           5628 	jp	00102$
   0F8B                    5629 00133$:
                           5630 ;	game.c 875
                           5631 ;	genAssign (pointer)
   0F8B 3E 2F              5632 	ld	a,#0x2F
   0F8D 02                 5633 	ld	(bc),a
                           5634 ;	genLabel
   0F8E                    5635 00102$:
                           5636 ;	game.c 877
                           5637 ;	genPointerGet
                           5638 ;	AOP_STK for _dog1_power_apply_sloc1_1_0
   0F8E 0A                 5639 	ld	a,(bc)
   0F8F F8 02              5640 	lda	hl,2(sp)
                           5641 ;	genCast
                           5642 ;	AOP_STK for _dog1_power_apply_sloc1_1_0
                           5643 ;	AOP_STK for _dog1_power_apply_sloc2_1_0
                           5644 ; Removed redundent load
   0F91 32                 5645 	ld      (hl-),a
   0F92 2B                 5646 	dec	hl
   0F93 22                 5647 	ld	(hl+),a
   0F94 36 00              5648 	ld	(hl),#0x00
                           5649 ;	genCmpEq
                           5650 ;	AOP_STK for _dog1_power_apply_sloc2_1_0
                           5651 ; genCmpEq: left 2, right 2, result 0
   0F96 2B                 5652 	dec	hl
   0F97 7E                 5653 	ld	a,(hl)
   0F98 FE 0F              5654 	cp	a,#0x0F
   0F9A C2 A5 0F           5655 	jp	nz,00134$
   0F9D 23                 5656 	inc	hl
   0F9E 7E                 5657 	ld	a,(hl)
   0F9F B7                 5658 	or	a,a
   0FA0 C2 AB 0F           5659 	jp	nz,00104$
   0FA3 18 03              5660 	jr	00135$
   0FA5                    5661 00134$:
   0FA5 C3 AB 0F           5662 	jp	00104$
   0FA8                    5663 00135$:
                           5664 ;	game.c 878
                           5665 ;	genAssign (pointer)
   0FA8 3E 0D              5666 	ld	a,#0x0D
   0FAA 02                 5667 	ld	(bc),a
                           5668 ;	genLabel
   0FAB                    5669 00104$:
                           5670 ;	game.c 880
                           5671 ;	genPointerGet
                           5672 ;	AOP_STK for _dog1_power_apply_sloc2_1_0
   0FAB 0A                 5673 	ld	a,(bc)
   0FAC F8 00              5674 	lda	hl,0(sp)
   0FAE 77                 5675 	ld	(hl),a
                           5676 ;	genCast
                           5677 ;	AOP_STK for _dog1_power_apply_sloc2_1_0
                           5678 ;	AOP_STK for _dog1_power_apply_sloc1_1_0
   0FAF 2A                 5679 	ld	a,(hl+)
   0FB0 23                 5680 	inc	hl
   0FB1 22                 5681 	ld	(hl+),a
   0FB2 36 00              5682 	ld	(hl),#0x00
                           5683 ;	genCmpEq
                           5684 ;	AOP_STK for _dog1_power_apply_sloc1_1_0
                           5685 ; genCmpEq: left 2, right 2, result 0
   0FB4 2B                 5686 	dec	hl
   0FB5 7E                 5687 	ld	a,(hl)
   0FB6 FE 10              5688 	cp	a,#0x10
   0FB8 C2 C3 0F           5689 	jp	nz,00136$
   0FBB 23                 5690 	inc	hl
   0FBC 7E                 5691 	ld	a,(hl)
   0FBD B7                 5692 	or	a,a
   0FBE C2 C9 0F           5693 	jp	nz,00106$
   0FC1 18 03              5694 	jr	00137$
   0FC3                    5695 00136$:
   0FC3 C3 C9 0F           5696 	jp	00106$
   0FC6                    5697 00137$:
                           5698 ;	game.c 881
                           5699 ;	genAssign (pointer)
   0FC6 3E 11              5700 	ld	a,#0x11
   0FC8 02                 5701 	ld	(bc),a
                           5702 ;	genLabel
   0FC9                    5703 00106$:
                           5704 ;	game.c 886
                           5705 ;	genIpush
                           5706 ; _saveRegsForCall: sendSetSize: 0 deInUse: 0 bcInUse: 0 deSending: 0
   0FC9 21 14 00           5707 	ld	hl,#0x0014
   0FCC E5                 5708 	push	hl
                           5709 ;	genIpush
                           5710 ;	AOP_STK for 
   0FCD F8 0B              5711 	lda	hl,11(sp)
   0FCF 2A                 5712 	ld	a,(hl+)
   0FD0 66                 5713 	ld	h,(hl)
   0FD1 6F                 5714 	ld	l,a
   0FD2 E5                 5715 	push	hl
                           5716 ;	genCall
   0FD3 CD 00 00           5717 	call	__divuint_rrx_s
   0FD6 42                 5718 	ld	b,d
   0FD7 4B                 5719 	ld	c,e
   0FD8 E8 04              5720 	lda	sp,4(sp)
                           5721 ;	genLeftShift
   0FDA 3E 04              5722 	ld	a,#0x03+1
   0FDC 18 04              5723 	jr	00139$
   0FDE                    5724 00138$:
   0FDE CB 21              5725 	sla	c
   0FE0 CB 10              5726 	rl	b
   0FE2                    5727 00139$:
   0FE2 3D                 5728 	dec	a
   0FE3 20 F9              5729 	jr	nz,00138$
                           5730 ;	genPlus
                           5731 ;	genPlusIncr
                           5732 ;	Can't optimise plus by inc, falling back to the normal way
   0FE5 79                 5733 	ld	a,c
   0FE6 C6 10              5734 	add	a,#0x10
   0FE8 4F                 5735 	ld	c,a
   0FE9 78                 5736 	ld	a,b
   0FEA CE 00              5737 	adc	a,#0x00
   0FEC 47                 5738 	ld	b,a
                           5739 ;	genCast
                           5740 ;	AOP_STK for _dog1_power_apply_y_1_1
   0FED F8 06              5741 	lda	hl,6(sp)
   0FEF 71                 5742 	ld	(hl),c
                           5743 ;	game.c 887
                           5744 ;	genIpush
                           5745 ; _saveRegsForCall: sendSetSize: 0 deInUse: 0 bcInUse: 0 deSending: 0
   0FF0 21 14 00           5746 	ld	hl,#0x0014
   0FF3 E5                 5747 	push	hl
                           5748 ;	genIpush
                           5749 ;	AOP_STK for 
   0FF4 F8 0B              5750 	lda	hl,11(sp)
   0FF6 2A                 5751 	ld	a,(hl+)
   0FF7 66                 5752 	ld	h,(hl)
   0FF8 6F                 5753 	ld	l,a
   0FF9 E5                 5754 	push	hl
                           5755 ;	genCall
   0FFA CD 00 00           5756 	call	__moduint_rrx_s
   0FFD 4A                 5757 	ld	c,d
   0FFE 43                 5758 	ld	b,e
   0FFF E8 04              5759 	lda	sp,4(sp)
                           5760 ;	genLeftShift
   1001 3E 04              5761 	ld	a,#0x03+1
   1003 18 04              5762 	jr	00141$
   1005                    5763 00140$:
   1005 CB 20              5764 	sla	b
   1007 CB 11              5765 	rl	c
   1009                    5766 00141$:
   1009 3D                 5767 	dec	a
   100A 20 F9              5768 	jr	nz,00140$
                           5769 ;	genPlus
                           5770 ;	genPlusIncr
                           5771 ;	Can't optimise plus by inc, falling back to the normal way
   100C 78                 5772 	ld	a,b
   100D C6 08              5773 	add	a,#0x08
   100F 47                 5774 	ld	b,a
   1010 79                 5775 	ld	a,c
   1011 CE 00              5776 	adc	a,#0x00
   1013 4F                 5777 	ld	c,a
                           5778 ;	genCast
   1014 48                 5779 	ld	c,b
                           5780 ;	game.c 888
                           5781 ;	genIpush
                           5782 ; _saveRegsForCall: sendSetSize: 0 deInUse: 0 bcInUse: 1 deSending: 0
   1015 C5                 5783 	push	bc
   1016 21 05 0F           5784 	ld	hl,#0x0F05
   1019 E5                 5785 	push	hl
                           5786 ;	genCall
   101A CD 00 00           5787 	call	_set_sprite_tile
   101D E8 02              5788 	lda	sp,2(sp)
   101F E1                 5789 	pop	hl
   1020 4D                 5790 	ld	c,l
                           5791 ;	game.c 891
                           5792 ;	genAssign
                           5793 ;	AOP_STK for _dog1_power_apply_i_1_1
   1021 F8 05              5794 	lda	hl,5(sp)
   1023 36 04              5795 	ld	(hl),#0x04
                           5796 ;	game.c 892
                           5797 ;	genIpush
                           5798 ; _saveRegsForCall: sendSetSize: 0 deInUse: 0 bcInUse: 1 deSending: 0
   1025 C5                 5799 	push	bc
                           5800 ;	AOP_STK for _dog1_power_apply_y_1_1
   1026 23                 5801 	inc	hl
   1027 7E                 5802 	ld	a,(hl)
   1028 F5                 5803 	push	af
   1029 33                 5804 	inc	sp
                           5805 ;	genIpush
   102A 79                 5806 	ld	a,c
   102B F5                 5807 	push	af
   102C 33                 5808 	inc	sp
                           5809 ;	genIpush
   102D 3E 05              5810 	ld	a,#0x05
   102F F5                 5811 	push	af
   1030 33                 5812 	inc	sp
                           5813 ;	genCall
   1031 CD 00 00           5814 	call	_move_sprite
   1034 E8 03              5815 	lda	sp,3(sp)
   1036 E1                 5816 	pop	hl
   1037 4D                 5817 	ld	c,l
                           5818 ;	game.c 894
                           5819 ;	genLabel
   1038                    5820 00112$:
                           5821 ;	genCmpEq
                           5822 ;	AOP_STK for _dog1_power_apply_i_1_1
                           5823 ; genCmpEq: left 1, right 1, result 0
   1038 F8 05              5824 	lda	hl,5(sp)
   103A 7E                 5825 	ld	a,(hl)
   103B B7                 5826 	or	a,a
   103C CA A2 10           5827 	jp	z,00114$
   103F                    5828 00142$:
                           5829 ;	game.c 895
                           5830 ;	genCmpLt
                           5831 ;	AOP_STK for 
   103F F8 0B              5832 	lda	hl,11(sp)
   1041 7E                 5833 	ld	a,(hl)
   1042 FE 01              5834 	cp	#0x01
   1044 DA 7C 10           5835 	jp	c,00111$
                           5836 ;	genCmpGt
                           5837 ;	AOP_STK for 
   1047 3E 04              5838 	ld	a,#0x04
   1049 96                 5839 	sub	a,(hl)
   104A DA 7C 10           5840 	jp	c,00111$
                           5841 ;	genMinus
                           5842 ;	AOP_STK for 
   104D 7E                 5843 	ld	a,(hl)
   104E C6 FF              5844 	add	a,#0xFF
   1050 47                 5845 	ld	b,a
                           5846 ;	genJumpTab
   1051 58                 5847 	ld	e,b
   1052 16 00              5848 	ld	d,#0x00
   1054 21 5B 10           5849 	ld	hl,#00143$
   1057 19                 5850 	add	hl,de
   1058 19                 5851 	add	hl,de
   1059 19                 5852 	add	hl,de
   105A E9                 5853 	jp	(hl)
   105B                    5854 00143$:
   105B C3 67 10           5855 	jp	00107$
   105E C3 6E 10           5856 	jp	00108$
   1061 C3 73 10           5857 	jp	00109$
   1064 C3 7A 10           5858 	jp	00110$
                           5859 ;	game.c 897
                           5860 ;	genLabel
   1067                    5861 00107$:
                           5862 ;	genMinus
                           5863 ;	AOP_STK for _dog1_power_apply_y_1_1
   1067 F8 06              5864 	lda	hl,6(sp)
   1069 35                 5865 	dec	(hl)
   106A 35                 5866 	dec	(hl)
                           5867 ;	game.c 898
                           5868 ;	genGoto
   106B C3 7C 10           5869 	jp	00111$
                           5870 ;	game.c 900
                           5871 ;	genLabel
   106E                    5872 00108$:
                           5873 ;	genPlus
                           5874 ;	genPlusIncr
                           5875 ; Removed redundent load
   106E 0C                 5876 	inc	c
   106F 0C                 5877 	inc	c
                           5878 ;	game.c 901
                           5879 ;	genGoto
   1070 C3 7C 10           5880 	jp	00111$
                           5881 ;	game.c 903
                           5882 ;	genLabel
   1073                    5883 00109$:
                           5884 ;	genPlus
                           5885 ;	AOP_STK for _dog1_power_apply_y_1_1
                           5886 ;	genPlusIncr
   1073 F8 06              5887 	lda	hl,6(sp)
   1075 34                 5888 	inc	(hl)
   1076 34                 5889 	inc	(hl)
                           5890 ;	game.c 904
                           5891 ;	genGoto
   1077 C3 7C 10           5892 	jp	00111$
                           5893 ;	game.c 906
                           5894 ;	genLabel
   107A                    5895 00110$:
                           5896 ;	genMinus
   107A 0D                 5897 	dec	c
   107B 0D                 5898 	dec	c
                           5899 ;	game.c 908
                           5900 ;	genLabel
   107C                    5901 00111$:
                           5902 ;	game.c 909
                           5903 ;	genIpush
                           5904 ; _saveRegsForCall: sendSetSize: 0 deInUse: 0 bcInUse: 1 deSending: 0
   107C C5                 5905 	push	bc
   107D 3E 02              5906 	ld	a,#0x02
   107F F5                 5907 	push	af
   1080 33                 5908 	inc	sp
                           5909 ;	genCall
   1081 CD 00 00           5910 	call	_performantDelay
   1084 E8 01              5911 	lda	sp,1(sp)
   1086 E1                 5912 	pop	hl
   1087 4D                 5913 	ld	c,l
                           5914 ;	game.c 910
                           5915 ;	genIpush
                           5916 ; _saveRegsForCall: sendSetSize: 0 deInUse: 0 bcInUse: 1 deSending: 0
   1088 C5                 5917 	push	bc
                           5918 ;	AOP_STK for _dog1_power_apply_y_1_1
   1089 F8 08              5919 	lda	hl,8(sp)
   108B 7E                 5920 	ld	a,(hl)
   108C F5                 5921 	push	af
   108D 33                 5922 	inc	sp
                           5923 ;	genIpush
   108E 79                 5924 	ld	a,c
   108F F5                 5925 	push	af
   1090 33                 5926 	inc	sp
                           5927 ;	genIpush
   1091 3E 05              5928 	ld	a,#0x05
   1093 F5                 5929 	push	af
   1094 33                 5930 	inc	sp
                           5931 ;	genCall
   1095 CD 00 00           5932 	call	_move_sprite
   1098 E8 03              5933 	lda	sp,3(sp)
   109A E1                 5934 	pop	hl
   109B 4D                 5935 	ld	c,l
                           5936 ;	game.c 911
                           5937 ;	genMinus
                           5938 ;	AOP_STK for _dog1_power_apply_i_1_1
   109C F8 05              5939 	lda	hl,5(sp)
   109E 35                 5940 	dec	(hl)
                           5941 ;	genGoto
   109F C3 38 10           5942 	jp	00112$
                           5943 ;	genLabel
   10A2                    5944 00114$:
                           5945 ;	game.c 916
                           5946 ;	genPlus
                           5947 ;	AOP_STK for 
                           5948 ;	Can't optimise plus by inc, falling back to the normal way
   10A2 11 65 18           5949 	ld	de,#_map
   10A5 F8 0C              5950 	lda	hl,12(sp)
   10A7 2A                 5951 	ld	a,(hl+)
   10A8 66                 5952 	ld	h,(hl)
   10A9 6F                 5953 	ld	l,a
   10AA 19                 5954 	add	hl,de
   10AB 4D                 5955 	ld	c,l
   10AC 44                 5956 	ld	b,h
                           5957 ;	genPointerGet
                           5958 ;	AOP_STK for _dog1_power_apply_sloc2_1_0
   10AD 0A                 5959 	ld	a,(bc)
   10AE F8 00              5960 	lda	hl,0(sp)
                           5961 ;	genCmpLt
                           5962 ;	AOP_STK for _dog1_power_apply_sloc2_1_0
   10B0 77                 5963 	ld      (hl),a
                           5964 ; Removed redundent load
   10B1 FE 0B              5965 	cp	#0x0B
   10B3 DA ED 10           5966 	jp	c,00119$
                           5967 ;	genCmpGt
                           5968 ;	AOP_STK for _dog1_power_apply_sloc2_1_0
   10B6 3E 0E              5969 	ld	a,#0x0E
   10B8 96                 5970 	sub	a,(hl)
   10B9 DA ED 10           5971 	jp	c,00119$
                           5972 ;	genMinus
                           5973 ;	AOP_STK for _dog1_power_apply_sloc2_1_0
                           5974 ;	AOP_STK for _dog1_power_apply_sloc1_1_0
   10BC 7E                 5975 	ld	a,(hl)
   10BD C6 F5              5976 	add	a,#0xF5
   10BF 23                 5977 	inc	hl
   10C0 23                 5978 	inc	hl
                           5979 ;	genJumpTab
                           5980 ;	AOP_STK for _dog1_power_apply_sloc1_1_0
   10C1 77                 5981 	ld      (hl),a
   10C2 5F                 5982 	ld      e,a
   10C3 16 00              5983 	ld	d,#0x00
   10C5 21 CC 10           5984 	ld	hl,#00144$
   10C8 19                 5985 	add	hl,de
   10C9 19                 5986 	add	hl,de
   10CA 19                 5987 	add	hl,de
   10CB E9                 5988 	jp	(hl)
   10CC                    5989 00144$:
   10CC C3 D8 10           5990 	jp	00115$
   10CF C3 DE 10           5991 	jp	00116$
   10D2 C3 E1 10           5992 	jp	00117$
   10D5 C3 E7 10           5993 	jp	00118$
                           5994 ;	game.c 918
                           5995 ;	genLabel
   10D8                    5996 00115$:
                           5997 ;	genAssign (pointer)
   10D8 3E 30              5998 	ld	a,#0x30
   10DA 02                 5999 	ld	(bc),a
                           6000 ;	game.c 919
                           6001 ;	genGoto
   10DB C3 F0 10           6002 	jp	00120$
                           6003 ;	game.c 921
                           6004 ;	genLabel
   10DE                    6005 00116$:
                           6006 ;	genGoto
   10DE C3 F0 10           6007 	jp	00120$
                           6008 ;	game.c 923
                           6009 ;	genLabel
   10E1                    6010 00117$:
                           6011 ;	genAssign (pointer)
   10E1 3E 0F              6012 	ld	a,#0x0F
   10E3 02                 6013 	ld	(bc),a
                           6014 ;	game.c 924
                           6015 ;	genGoto
   10E4 C3 F0 10           6016 	jp	00120$
                           6017 ;	game.c 926
                           6018 ;	genLabel
   10E7                    6019 00118$:
                           6020 ;	genAssign (pointer)
   10E7 3E 10              6021 	ld	a,#0x10
   10E9 02                 6022 	ld	(bc),a
                           6023 ;	game.c 927
                           6024 ;	genGoto
   10EA C3 F0 10           6025 	jp	00120$
                           6026 ;	game.c 929
                           6027 ;	genLabel
   10ED                    6028 00119$:
                           6029 ;	genAssign (pointer)
   10ED 3E 2D              6030 	ld	a,#0x2D
   10EF 02                 6031 	ld	(bc),a
                           6032 ;	game.c 931
                           6033 ;	genLabel
   10F0                    6034 00120$:
                           6035 ;	game.c 932
                           6036 ;	genIpush
                           6037 ; _saveRegsForCall: sendSetSize: 0 deInUse: 0 bcInUse: 0 deSending: 0
   10F0 21 65 18           6038 	ld	hl,#_map
   10F3 E5                 6039 	push	hl
                           6040 ;	genIpush
   10F4 21 14 12           6041 	ld	hl,#0x1214
   10F7 E5                 6042 	push	hl
                           6043 ;	genIpush
   10F8 21 00 00           6044 	ld	hl,#0x0000
   10FB E5                 6045 	push	hl
                           6046 ;	genCall
   10FC CD 00 00           6047 	call	_set_bkg_tiles
   10FF E8 06              6048 	lda	sp,6(sp)
                           6049 ;	game.c 933
                           6050 ;	genIpush
                           6051 ; _saveRegsForCall: sendSetSize: 0 deInUse: 0 bcInUse: 0 deSending: 0
   1101 21 00 00           6052 	ld	hl,#0x0000
   1104 E5                 6053 	push	hl
                           6054 ;	genIpush
   1105 3E 05              6055 	ld	a,#0x05
   1107 F5                 6056 	push	af
   1108 33                 6057 	inc	sp
                           6058 ;	genCall
   1109 CD 00 00           6059 	call	_move_sprite
   110C E8 03              6060 	lda	sp,3(sp)
                           6061 ;	genLabel
   110E                    6062 00121$:
                           6063 ;	genEndFunction
   110E E8 07              6064 	lda	sp,7(sp)
   1110 C9                 6065 	ret
   1111                    6066 ___dog1_power_apply_end:
                           6067 ;	game.c 940
                           6068 ;	genLabel
                           6069 ;	genFunction
                           6070 ;	---------------------------------
                           6071 ; Function _get_map_position_from_xy
                           6072 ; ---------------------------------
   1111                    6073 ____get_map_position_from_xy_start:
   1111                    6074 __get_map_position_from_xy:
   1111 E8 FC              6075 	lda	sp,-4(sp)
                           6076 ;	game.c 948
                           6077 ;	genCast
                           6078 ;	AOP_STK for 
   1113 F8 06              6079 	lda	hl,6(sp)
   1115 4E                 6080 	ld	c,(hl)
   1116 06 00              6081 	ld	b,#0x00
                           6082 ;	genRightShift
   1118 CB 38              6083 	srl	b
   111A CB 19              6084 	rr	c
   111C CB 38              6085 	srl	b
   111E CB 19              6086 	rr	c
   1120 CB 38              6087 	srl	b
   1122 CB 19              6088 	rr	c
                           6089 ;	genMinus
   1124 0B                 6090 	dec	bc
                           6091 ;	genCast
                           6092 ;	AOP_STK for __get_map_position_from_xy__x_1_1
   1125 F8 03              6093 	lda	hl,3(sp)
   1127 71                 6094 	ld	(hl),c
                           6095 ;	game.c 949
                           6096 ;	genCast
                           6097 ;	AOP_STK for 
   1128 F8 07              6098 	lda	hl,7(sp)
   112A 46                 6099 	ld	b,(hl)
   112B 0E 00              6100 	ld	c,#0x00
                           6101 ;	genRightShift
   112D CB 39              6102 	srl	c
   112F CB 18              6103 	rr	b
   1131 CB 39              6104 	srl	c
   1133 CB 18              6105 	rr	b
   1135 CB 39              6106 	srl	c
   1137 CB 18              6107 	rr	b
                           6108 ;	genMinus
   1139 58                 6109 	ld	e,b
   113A 51                 6110 	ld	d,c
   113B 1B                 6111 	dec	de
   113C 1B                 6112 	dec	de
   113D 43                 6113 	ld	b,e
   113E 4A                 6114 	ld	c,d
                           6115 ;	genCast
                           6116 ;	AOP_STK for __get_map_position_from_xy__y_1_1
   113F F8 02              6117 	lda	hl,2(sp)
   1141 70                 6118 	ld	(hl),b
                           6119 ;	game.c 953
                           6120 ;	genCast
                           6121 ;	AOP_STK for __get_map_position_from_xy__x_1_1
                           6122 ;	AOP_STK for __get_map_position_from_xy_map_position_1_1
   1142 23                 6123 	inc	hl
   1143 7E                 6124 	ld	a,(hl)
   1144 F8 00              6125 	lda	hl,0(sp)
   1146 22                 6126 	ld	(hl+),a
   1147 36 00              6127 	ld	(hl),#0x00
                           6128 ;	game.c 954
                           6129 ;	genCast
                           6130 ;	AOP_STK for __get_map_position_from_xy__y_1_1
   1149 23                 6131 	inc	hl
   114A 4E                 6132 	ld	c,(hl)
   114B 06 00              6133 	ld	b,#0x00
                           6134 ;	genMult
   114D 59                 6135 	ld	e,c
   114E 50                 6136 	ld	d,b
   114F 6B                 6137 	ld	l,e
   1150 62                 6138 	ld	h,d
   1151 29                 6139 	add	hl,hl
   1152 29                 6140 	add	hl,hl
   1153 19                 6141 	add	hl,de
   1154 29                 6142 	add	hl,hl
   1155 29                 6143 	add	hl,hl
   1156 4D                 6144 	ld	c,l
   1157 44                 6145 	ld	b,h
                           6146 ;	genPlus
                           6147 ;	AOP_STK for __get_map_position_from_xy_map_position_1_1
                           6148 ;	Can't optimise plus by inc, falling back to the normal way
   1158 F8 00              6149 	lda	hl,0(sp)
   115A 2A                 6150 	ld	a,(hl+)
   115B 66                 6151 	ld	h,(hl)
   115C 6F                 6152 	ld	l,a
   115D 09                 6153 	add	hl,bc
   115E 7D                 6154 	ld	a,l
   115F 54                 6155 	ld	d,h
   1160 F8 00              6156 	lda	hl,0(sp)
   1162 22                 6157 	ld	(hl+),a
   1163 72                 6158 	ld	(hl),d
                           6159 ;	game.c 956
                           6160 ;	genRet
                           6161 ;	AOP_STK for __get_map_position_from_xy_map_position_1_1
   1164 2B                 6162 	dec	hl
   1165 5E                 6163 	ld	e,(hl)
   1166 23                 6164 	inc	hl
   1167 56                 6165 	ld	d,(hl)
                           6166 ;	genLabel
   1168                    6167 00101$:
                           6168 ;	genEndFunction
   1168 E8 04              6169 	lda	sp,4(sp)
   116A C9                 6170 	ret
   116B                    6171 ____get_map_position_from_xy_end:
                           6172 ;	game.c 959
                           6173 ;	genLabel
                           6174 ;	genFunction
                           6175 ;	---------------------------------
                           6176 ; Function player_input
                           6177 ; ---------------------------------
   116B                    6178 ___player_input_start:
   116B                    6179 _player_input:
   116B E8 FB              6180 	lda	sp,-5(sp)
                           6181 ;	game.c 962
                           6182 ;	genAssign
                           6183 ;	AOP_STK for 
   116D F8 07              6184 	lda	hl,7(sp)
   116F 4E                 6185 	ld	c,(hl)
   1170 23                 6186 	inc	hl
   1171 46                 6187 	ld	b,(hl)
                           6188 ;	genPointerGet
                           6189 ;	AOP_STK for _player_input_sloc0_1_0
   1172 59                 6190 	ld	e,c
   1173 50                 6191 	ld	d,b
   1174 1A                 6192 	ld	a,(de)
   1175 F8 03              6193 	lda	hl,3(sp)
   1177 77                 6194 	ld	(hl),a
   1178 13                 6195 	inc	de
   1179 1A                 6196 	ld	a,(de)
   117A 23                 6197 	inc	hl
                           6198 ;	genPlus
                           6199 ;	AOP_STK for _player_input_sloc0_1_0
                           6200 ;	AOP_STK for _player_input_sloc1_1_0
                           6201 ;	genPlusIncr
                           6202 ;	Can't optimise plus by inc, falling back to the normal way
   117B 32                 6203 	ld      (hl-),a
   117C 5E                 6204 	ld	e,(hl)
   117D 23                 6205 	inc	hl
   117E 56                 6206 	ld	d,(hl)
   117F 21 0A 00           6207 	ld	hl,#0x000A
   1182 19                 6208 	add	hl,de
   1183 7D                 6209 	ld	a,l
   1184 54                 6210 	ld	d,h
   1185 F8 01              6211 	lda	hl,1(sp)
                           6212 ;	genPointerGet
                           6213 ;	AOP_STK for _player_input_sloc1_1_0
                           6214 ;	AOP_STK for _player_input_sloc0_1_0
   1187 22                 6215 	ld	(hl+),a
   1188 72                 6216 	ld	(hl),d
   1189 5F                 6217 	ld	e,a
   118A 1A                 6218 	ld	a,(de)
   118B 23                 6219 	inc	hl
                           6220 ;	genCmpEq
                           6221 ;	AOP_STK for _player_input_sloc0_1_0
                           6222 ; genCmpEq: left 1, right 1, result 0
   118C 77                 6223 	ld      (hl),a
                           6224 ; Removed redundent load
   118D B7                 6225 	or	a,a
   118E C2 FE 12           6226 	jp	nz,00119$
   1191 18 03              6227 	jr	00134$
   1193                    6228 00133$:
   1193 C3 FE 12           6229 	jp	00119$
   1196                    6230 00134$:
                           6231 ;	genCmpEq
                           6232 ;	AOP_HL for _input_timer
                           6233 ; genCmpEq: left 1, right 1, result 0
   1196 21 63 18           6234 	ld	hl,#_input_timer
   1199 7E                 6235 	ld	a,(hl)
   119A B7                 6236 	or	a,a
   119B C2 FE 12           6237 	jp	nz,00119$
   119E 18 03              6238 	jr	00136$
   11A0                    6239 00135$:
   11A0 C3 FE 12           6240 	jp	00119$
   11A3                    6241 00136$:
                           6242 ;	game.c 964
                           6243 ;	genCall
                           6244 ; _saveRegsForCall: sendSetSize: 0 deInUse: 0 bcInUse: 1 deSending: 0
   11A3 C5                 6245 	push	bc
   11A4 CD 00 00           6246 	call	_joypad
                           6247 ;	AOP_STK for _player_input_sloc1_1_0
   11A7 F8 03              6248 	lda	hl,3(sp)
   11A9 73                 6249 	ld	(hl),e
   11AA C1                 6250 	pop	bc
                           6251 ;	genCmpEq
                           6252 ;	AOP_STK for _player_input_sloc1_1_0
                           6253 ; genCmpEq: left 1, right 1, result 0
   11AB F8 01              6254 	lda	hl,1(sp)
   11AD 7E                 6255 	ld	a,(hl)
   11AE FE 01              6256 	cp	a,#0x01
   11B0 CA 5E 12           6257 	jp	z,00108$
   11B3                    6258 00137$:
                           6259 ;	genCmpEq
                           6260 ;	AOP_STK for _player_input_sloc1_1_0
                           6261 ; genCmpEq: left 1, right 1, result 0
   11B3 F8 01              6262 	lda	hl,1(sp)
   11B5 7E                 6263 	ld	a,(hl)
   11B6 FE 02              6264 	cp	a,#0x02
   11B8 CA 3F 12           6265 	jp	z,00107$
   11BB                    6266 00138$:
                           6267 ;	genCmpEq
                           6268 ;	AOP_STK for _player_input_sloc1_1_0
                           6269 ; genCmpEq: left 1, right 1, result 0
   11BB F8 01              6270 	lda	hl,1(sp)
   11BD 7E                 6271 	ld	a,(hl)
   11BE FE 04              6272 	cp	a,#0x04
   11C0 CA 7D 12           6273 	jp	z,00109$
   11C3                    6274 00139$:
                           6275 ;	genCmpEq
                           6276 ;	AOP_STK for _player_input_sloc1_1_0
                           6277 ; genCmpEq: left 1, right 1, result 0
   11C3 F8 01              6278 	lda	hl,1(sp)
   11C5 7E                 6279 	ld	a,(hl)
   11C6 FE 08              6280 	cp	a,#0x08
   11C8 CA 9C 12           6281 	jp	z,00110$
   11CB                    6282 00140$:
                           6283 ;	genCmpEq
                           6284 ;	AOP_STK for _player_input_sloc1_1_0
                           6285 ; genCmpEq: left 1, right 1, result 0
   11CB F8 01              6286 	lda	hl,1(sp)
   11CD 7E                 6287 	ld	a,(hl)
   11CE FE 10              6288 	cp	a,#0x10
   11D0 CA DE 11           6289 	jp	z,00103$
   11D3                    6290 00141$:
                           6291 ;	genCmpEq
                           6292 ;	AOP_STK for _player_input_sloc1_1_0
                           6293 ; genCmpEq: left 1, right 1, result 0
   11D3 F8 01              6294 	lda	hl,1(sp)
   11D5 7E                 6295 	ld	a,(hl)
   11D6 FE 20              6296 	cp	a,#0x20
   11D8 CA 37 12           6297 	jp	z,00106$
   11DB                    6298 00142$:
                           6299 ;	genGoto
   11DB C3 B8 12           6300 	jp	00111$
                           6301 ;	game.c 972
                           6302 ;	genLabel
   11DE                    6303 00103$:
                           6304 ;	game.c 966
                           6305 ;	genPointerGet
                           6306 ;	AOP_STK for _player_input_sloc1_1_0
   11DE 59                 6307 	ld	e,c
   11DF 50                 6308 	ld	d,b
   11E0 1A                 6309 	ld	a,(de)
   11E1 F8 01              6310 	lda	hl,1(sp)
   11E3 77                 6311 	ld	(hl),a
   11E4 13                 6312 	inc	de
   11E5 1A                 6313 	ld	a,(de)
   11E6 23                 6314 	inc	hl
                           6315 ;	genPlus
                           6316 ;	AOP_STK for _player_input_sloc1_1_0
                           6317 ;	AOP_STK for _player_input_sloc0_1_0
                           6318 ;	genPlusIncr
                           6319 ;	Can't optimise plus by inc, falling back to the normal way
   11E7 32                 6320 	ld      (hl-),a
   11E8 5E                 6321 	ld	e,(hl)
   11E9 23                 6322 	inc	hl
   11EA 56                 6323 	ld	d,(hl)
   11EB 21 0B 00           6324 	ld	hl,#0x000B
   11EE 19                 6325 	add	hl,de
   11EF 7D                 6326 	ld	a,l
   11F0 54                 6327 	ld	d,h
   11F1 F8 03              6328 	lda	hl,3(sp)
                           6329 ;	genPointerGet
                           6330 ;	AOP_STK for _player_input_sloc0_1_0
                           6331 ;	AOP_STK for _player_input_sloc2_1_0
   11F3 22                 6332 	ld	(hl+),a
   11F4 72                 6333 	ld	(hl),d
   11F5 5F                 6334 	ld	e,a
   11F6 1A                 6335 	ld	a,(de)
   11F7 F8 00              6336 	lda	hl,0(sp)
                           6337 ;	genCmpEq
                           6338 ;	AOP_STK for _player_input_sloc2_1_0
                           6339 ; genCmpEq: left 1, right 1, result 0
   11F9 77                 6340 	ld      (hl),a
                           6341 ; Removed redundent load
   11FA FE 01              6342 	cp	a,#0x01
   11FC C2 22 12           6343 	jp	nz,00102$
   11FF 18 03              6344 	jr	00144$
   1201                    6345 00143$:
   1201 C3 22 12           6346 	jp	00102$
   1204                    6347 00144$:
                           6348 ;	game.c 967
                           6349 ;	genPlus
                           6350 ;	AOP_STK for _player_input_sloc1_1_0
                           6351 ;	genPlusIncr
                           6352 ;	Can't optimise plus by inc, falling back to the normal way
   1204 F8 01              6353 	lda	hl,1(sp)
   1206 5E                 6354 	ld	e,(hl)
   1207 23                 6355 	inc	hl
   1208 56                 6356 	ld	d,(hl)
   1209 21 0A 00           6357 	ld	hl,#0x000A
   120C 19                 6358 	add	hl,de
   120D 7D                 6359 	ld	a,l
   120E 54                 6360 	ld	d,h
   120F 6F                 6361 	ld	l,a
   1210 62                 6362 	ld	h,d
                           6363 ;	genAssign (pointer)
   1211 36 10              6364 	ld	(hl),#0x10
                           6365 ;	game.c 969
                           6366 ;	genPlus
                           6367 ;	AOP_STK for _player_input_sloc1_1_0
                           6368 ;	genPlusIncr
                           6369 ;	Can't optimise plus by inc, falling back to the normal way
   1213 F8 01              6370 	lda	hl,1(sp)
   1215 5E                 6371 	ld	e,(hl)
   1216 23                 6372 	inc	hl
   1217 56                 6373 	ld	d,(hl)
   1218 21 09 00           6374 	ld	hl,#0x0009
   121B 19                 6375 	add	hl,de
   121C 7D                 6376 	ld	a,l
   121D 54                 6377 	ld	d,h
   121E 6F                 6378 	ld	l,a
   121F 62                 6379 	ld	h,d
                           6380 ;	genAssign (pointer)
   1220 36 01              6381 	ld	(hl),#0x01
                           6382 ;	genLabel
   1222                    6383 00102$:
                           6384 ;	game.c 972
                           6385 ;	genCmpEq
                           6386 ;	AOP_STK for _player_input_sloc2_1_0
                           6387 ; genCmpEq: left 1, right 1, result 0
   1222 F8 00              6388 	lda	hl,0(sp)
   1224 7E                 6389 	ld	a,(hl)
   1225 FE 02              6390 	cp	a,#0x02
   1227 C2 B8 12           6391 	jp	nz,00111$
   122A 18 03              6392 	jr	00146$
   122C                    6393 00145$:
   122C C3 B8 12           6394 	jp	00111$
   122F                    6395 00146$:
                           6396 ;	game.c 973
                           6397 ;	genCall
                           6398 ; _saveRegsForCall: sendSetSize: 0 deInUse: 0 bcInUse: 1 deSending: 0
   122F C5                 6399 	push	bc
   1230 CD 19 0C           6400 	call	_dog1_power
   1233 C1                 6401 	pop	bc
                           6402 ;	game.c 977
                           6403 ;	genGoto
   1234 C3 B8 12           6404 	jp	00111$
                           6405 ;	game.c 981
                           6406 ;	genLabel
   1237                    6407 00106$:
                           6408 ;	genCall
                           6409 ; _saveRegsForCall: sendSetSize: 0 deInUse: 0 bcInUse: 1 deSending: 0
   1237 C5                 6410 	push	bc
   1238 CD D1 04           6411 	call	_change_char
   123B C1                 6412 	pop	bc
                           6413 ;	game.c 982
                           6414 ;	genGoto
   123C C3 B8 12           6415 	jp	00111$
                           6416 ;	game.c 985
                           6417 ;	genLabel
   123F                    6418 00107$:
                           6419 ;	genAssign
                           6420 ;	AOP_HL for _input_timer
   123F 21 63 18           6421 	ld	hl,#_input_timer
   1242 36 04              6422 	ld	(hl),#0x04
                           6423 ;	game.c 986
                           6424 ;	genPointerGet
                           6425 ;	AOP_STK for _player_input_sloc1_1_0
   1244 59                 6426 	ld	e,c
   1245 50                 6427 	ld	d,b
   1246 1A                 6428 	ld	a,(de)
   1247 F8 01              6429 	lda	hl,1(sp)
   1249 77                 6430 	ld	(hl),a
   124A 13                 6431 	inc	de
   124B 1A                 6432 	ld	a,(de)
   124C 23                 6433 	inc	hl
                           6434 ;	genPlus
                           6435 ;	AOP_STK for _player_input_sloc1_1_0
                           6436 ;	genPlusIncr
                           6437 ;	Can't optimise plus by inc, falling back to the normal way
   124D 32                 6438 	ld      (hl-),a
   124E 5E                 6439 	ld	e,(hl)
   124F 23                 6440 	inc	hl
   1250 56                 6441 	ld	d,(hl)
   1251 21 08 00           6442 	ld	hl,#0x0008
   1254 19                 6443 	add	hl,de
   1255 7D                 6444 	ld	a,l
   1256 54                 6445 	ld	d,h
   1257 6F                 6446 	ld	l,a
   1258 62                 6447 	ld	h,d
                           6448 ;	genAssign (pointer)
   1259 36 04              6449 	ld	(hl),#0x04
                           6450 ;	game.c 987
                           6451 ;	genGoto
   125B C3 B8 12           6452 	jp	00111$
                           6453 ;	game.c 989
                           6454 ;	genLabel
   125E                    6455 00108$:
                           6456 ;	genAssign
                           6457 ;	AOP_HL for _input_timer
   125E 21 63 18           6458 	ld	hl,#_input_timer
   1261 36 04              6459 	ld	(hl),#0x04
                           6460 ;	game.c 990
                           6461 ;	genPointerGet
                           6462 ;	AOP_STK for _player_input_sloc1_1_0
   1263 59                 6463 	ld	e,c
   1264 50                 6464 	ld	d,b
   1265 1A                 6465 	ld	a,(de)
   1266 F8 01              6466 	lda	hl,1(sp)
   1268 77                 6467 	ld	(hl),a
   1269 13                 6468 	inc	de
   126A 1A                 6469 	ld	a,(de)
   126B 23                 6470 	inc	hl
                           6471 ;	genPlus
                           6472 ;	AOP_STK for _player_input_sloc1_1_0
                           6473 ;	genPlusIncr
                           6474 ;	Can't optimise plus by inc, falling back to the normal way
   126C 32                 6475 	ld      (hl-),a
   126D 5E                 6476 	ld	e,(hl)
   126E 23                 6477 	inc	hl
   126F 56                 6478 	ld	d,(hl)
   1270 21 08 00           6479 	ld	hl,#0x0008
   1273 19                 6480 	add	hl,de
   1274 7D                 6481 	ld	a,l
   1275 54                 6482 	ld	d,h
   1276 6F                 6483 	ld	l,a
   1277 62                 6484 	ld	h,d
                           6485 ;	genAssign (pointer)
   1278 36 02              6486 	ld	(hl),#0x02
                           6487 ;	game.c 991
                           6488 ;	genGoto
   127A C3 B8 12           6489 	jp	00111$
                           6490 ;	game.c 993
                           6491 ;	genLabel
   127D                    6492 00109$:
                           6493 ;	genAssign
                           6494 ;	AOP_HL for _input_timer
   127D 21 63 18           6495 	ld	hl,#_input_timer
   1280 36 04              6496 	ld	(hl),#0x04
                           6497 ;	game.c 994
                           6498 ;	genPointerGet
                           6499 ;	AOP_STK for _player_input_sloc1_1_0
   1282 59                 6500 	ld	e,c
   1283 50                 6501 	ld	d,b
   1284 1A                 6502 	ld	a,(de)
   1285 F8 01              6503 	lda	hl,1(sp)
   1287 77                 6504 	ld	(hl),a
   1288 13                 6505 	inc	de
   1289 1A                 6506 	ld	a,(de)
   128A 23                 6507 	inc	hl
                           6508 ;	genPlus
                           6509 ;	AOP_STK for _player_input_sloc1_1_0
                           6510 ;	genPlusIncr
                           6511 ;	Can't optimise plus by inc, falling back to the normal way
   128B 32                 6512 	ld      (hl-),a
   128C 5E                 6513 	ld	e,(hl)
   128D 23                 6514 	inc	hl
   128E 56                 6515 	ld	d,(hl)
   128F 21 08 00           6516 	ld	hl,#0x0008
   1292 19                 6517 	add	hl,de
   1293 7D                 6518 	ld	a,l
   1294 54                 6519 	ld	d,h
   1295 6F                 6520 	ld	l,a
   1296 62                 6521 	ld	h,d
                           6522 ;	genAssign (pointer)
   1297 36 01              6523 	ld	(hl),#0x01
                           6524 ;	game.c 995
                           6525 ;	genGoto
   1299 C3 B8 12           6526 	jp	00111$
                           6527 ;	game.c 997
                           6528 ;	genLabel
   129C                    6529 00110$:
                           6530 ;	genPointerGet
                           6531 ;	AOP_STK for _player_input_sloc1_1_0
   129C 59                 6532 	ld	e,c
   129D 50                 6533 	ld	d,b
   129E 1A                 6534 	ld	a,(de)
   129F F8 01              6535 	lda	hl,1(sp)
   12A1 77                 6536 	ld	(hl),a
   12A2 13                 6537 	inc	de
   12A3 1A                 6538 	ld	a,(de)
   12A4 23                 6539 	inc	hl
                           6540 ;	genPlus
                           6541 ;	AOP_STK for _player_input_sloc1_1_0
                           6542 ;	genPlusIncr
                           6543 ;	Can't optimise plus by inc, falling back to the normal way
   12A5 32                 6544 	ld      (hl-),a
   12A6 5E                 6545 	ld	e,(hl)
   12A7 23                 6546 	inc	hl
   12A8 56                 6547 	ld	d,(hl)
   12A9 21 08 00           6548 	ld	hl,#0x0008
   12AC 19                 6549 	add	hl,de
   12AD 7D                 6550 	ld	a,l
   12AE 54                 6551 	ld	d,h
   12AF 6F                 6552 	ld	l,a
   12B0 62                 6553 	ld	h,d
                           6554 ;	genAssign (pointer)
   12B1 36 03              6555 	ld	(hl),#0x03
                           6556 ;	game.c 998
                           6557 ;	genAssign
                           6558 ;	AOP_HL for _input_timer
   12B3 21 63 18           6559 	ld	hl,#_input_timer
   12B6 36 04              6560 	ld	(hl),#0x04
                           6561 ;	game.c 1002
                           6562 ;	genLabel
   12B8                    6563 00111$:
                           6564 ;	game.c 1004
                           6565 ;	genCmpEq
                           6566 ;	AOP_HL for _input_timer
                           6567 ; genCmpEq: left 1, right 1, result 0
   12B8 21 63 18           6568 	ld	hl,#_input_timer
   12BB 7E                 6569 	ld	a,(hl)
   12BC B7                 6570 	or	a,a
   12BD CA FE 12           6571 	jp	z,00119$
   12C0                    6572 00147$:
                           6573 ;	game.c 1005
                           6574 ;	genPointerGet
   12C0 59                 6575 	ld	e,c
   12C1 50                 6576 	ld	d,b
   12C2 1A                 6577 	ld	a,(de)
   12C3 4F                 6578 	ld	c,a
   12C4 13                 6579 	inc	de
   12C5 1A                 6580 	ld	a,(de)
   12C6 47                 6581 	ld	b,a
                           6582 ;	genPlus
                           6583 ;	genPlusIncr
                           6584 ;	Can't optimise plus by inc, falling back to the normal way
   12C7 79                 6585 	ld	a,c
   12C8 C6 0C              6586 	add	a,#0x0C
   12CA 4F                 6587 	ld	c,a
   12CB 78                 6588 	ld	a,b
   12CC CE 00              6589 	adc	a,#0x00
   12CE 47                 6590 	ld	b,a
                           6591 ;	genPointerGet
   12CF 59                 6592 	ld	e,c
   12D0 50                 6593 	ld	d,b
   12D1 1A                 6594 	ld	a,(de)
   12D2 4F                 6595 	ld	c,a
   12D3 13                 6596 	inc	de
   12D4 1A                 6597 	ld	a,(de)
   12D5 47                 6598 	ld	b,a
                           6599 ;	genPlus
                           6600 ;	Can't optimise plus by inc, falling back to the normal way
   12D6 21 65 18           6601 	ld	hl,#_map
   12D9 09                 6602 	add	hl,bc
   12DA 4D                 6603 	ld	c,l
   12DB 44                 6604 	ld	b,h
                           6605 ;	genPointerGet
                           6606 ;	AOP_STK for _player_input_sloc2_1_0
   12DC 0A                 6607 	ld	a,(bc)
   12DD F8 00              6608 	lda	hl,0(sp)
                           6609 ;	genCmpEq
                           6610 ;	AOP_STK for _player_input_sloc2_1_0
                           6611 ; genCmpEq: left 1, right 1, result 0
   12DF 77                 6612 	ld      (hl),a
                           6613 ; Removed redundent load
   12E0 FE 12              6614 	cp	a,#0x12
   12E2 C2 FE 12           6615 	jp	nz,00119$
   12E5 18 03              6616 	jr	00149$
   12E7                    6617 00148$:
   12E7 C3 FE 12           6618 	jp	00119$
   12EA                    6619 00149$:
                           6620 ;	game.c 1006
                           6621 ;	genAssign (pointer)
   12EA 3E 13              6622 	ld	a,#0x13
   12EC 02                 6623 	ld	(bc),a
                           6624 ;	game.c 1007
                           6625 ;	genIpush
                           6626 ; _saveRegsForCall: sendSetSize: 0 deInUse: 0 bcInUse: 0 deSending: 0
   12ED 21 65 18           6627 	ld	hl,#_map
   12F0 E5                 6628 	push	hl
                           6629 ;	genIpush
   12F1 21 14 12           6630 	ld	hl,#0x1214
   12F4 E5                 6631 	push	hl
                           6632 ;	genIpush
   12F5 21 00 00           6633 	ld	hl,#0x0000
   12F8 E5                 6634 	push	hl
                           6635 ;	genCall
   12F9 CD 00 00           6636 	call	_set_bkg_tiles
   12FC E8 06              6637 	lda	sp,6(sp)
                           6638 ;	genLabel
   12FE                    6639 00119$:
                           6640 ;	genEndFunction
   12FE E8 05              6641 	lda	sp,5(sp)
   1300 C9                 6642 	ret
   1301                    6643 ___player_input_end:
                           6644 ;	game.c 1020
                           6645 ;	genLabel
                           6646 ;	genFunction
                           6647 ;	---------------------------------
                           6648 ; Function can_move_to_map_pos
                           6649 ; ---------------------------------
   1301                    6650 ___can_move_to_map_pos_start:
   1301                    6651 _can_move_to_map_pos:
                           6652 	
                           6653 ;	game.c 1022
                           6654 ;	genPlus
                           6655 ;	AOP_STK for 
                           6656 ;	Can't optimise plus by inc, falling back to the normal way
   1301 11 65 18           6657 	ld	de,#_map
   1304 F8 02              6658 	lda	hl,2(sp)
   1306 2A                 6659 	ld	a,(hl+)
   1307 66                 6660 	ld	h,(hl)
   1308 6F                 6661 	ld	l,a
   1309 19                 6662 	add	hl,de
   130A 4D                 6663 	ld	c,l
   130B 44                 6664 	ld	b,h
                           6665 ;	genPointerGet
   130C 0A                 6666 	ld	a,(bc)
   130D 4F                 6667 	ld	c,a
                           6668 ;	genCast
                           6669 ; Removed redundent load
   130E 06 00              6670 	ld	b,#0x00
                           6671 ;	genCmpGt
   1310 3E 14              6672 	ld	a,#0x14
   1312 91                 6673 	sub	a,c
   1313 3E 00              6674 	ld	a,#0x00
   1315 98                 6675 	sbc	a,b
   1316 D2 28 13           6676 	jp	nc,00102$
                           6677 ;	game.c 1023
                           6678 ;	genCmpLt
   1319 79                 6679 	ld	a,c
   131A D6 29              6680 	sub	a,#0x29
   131C 78                 6681 	ld	a,b
   131D DE 00              6682 	sbc	a,#0x00
   131F D2 28 13           6683 	jp	nc,00102$
                           6684 ;	game.c 1025
                           6685 ;	genRet
   1322 11 00 00           6686 	ld	de,#0x0000
   1325 C3 C9 13           6687 	jp	00114$
                           6688 ;	genLabel
   1328                    6689 00102$:
                           6690 ;	game.c 1029
                           6691 ;	genCmpEq
                           6692 ; genCmpEq: left 2, right 2, result 0
   1328 79                 6693 	ld	a,c
   1329 FE 0F              6694 	cp	a,#0x0F
   132B C2 33 13           6695 	jp	nz,00124$
   132E 78                 6696 	ld	a,b
   132F B7                 6697 	or	a,a
   1330 CA 59 13           6698 	jp	z,00104$
   1333                    6699 00124$:
                           6700 ;	genCmpEq
                           6701 ; genCmpEq: left 2, right 2, result 0
   1333 79                 6702 	ld	a,c
   1334 FE 10              6703 	cp	a,#0x10
   1336 C2 3E 13           6704 	jp	nz,00125$
   1339 78                 6705 	ld	a,b
   133A B7                 6706 	or	a,a
   133B CA 59 13           6707 	jp	z,00104$
   133E                    6708 00125$:
                           6709 ;	genCmpEq
                           6710 ; genCmpEq: left 2, right 2, result 0
   133E 79                 6711 	ld	a,c
   133F FE 29              6712 	cp	a,#0x29
   1341 C2 49 13           6713 	jp	nz,00126$
   1344 78                 6714 	ld	a,b
   1345 B7                 6715 	or	a,a
   1346 CA 59 13           6716 	jp	z,00104$
   1349                    6717 00126$:
                           6718 ;	genCmpEq
                           6719 ; genCmpEq: left 2, right 2, result 0
   1349 79                 6720 	ld	a,c
   134A FE 2D              6721 	cp	a,#0x2D
   134C C2 56 13           6722 	jp	nz,00127$
   134F 78                 6723 	ld	a,b
   1350 B7                 6724 	or	a,a
   1351 C2 5F 13           6725 	jp	nz,00108$
   1354 18 03              6726 	jr	00128$
   1356                    6727 00127$:
   1356 C3 5F 13           6728 	jp	00108$
   1359                    6729 00128$:
                           6730 ;	game.c 1037
                           6731 ;	genLabel
   1359                    6732 00104$:
                           6733 ;	genRet
   1359 11 00 00           6734 	ld	de,#0x0000
   135C C3 C9 13           6735 	jp	00114$
                           6736 ;	game.c 1039
                           6737 ;	genLabel
   135F                    6738 00108$:
                           6739 ;	game.c 1041
                           6740 ;	genPlus
                           6741 ;	genPlusIncr
   135F 01 D9 19           6742 	ld	bc,#_bunny + 12
                           6743 ;	genPointerGet
   1362 59                 6744 	ld	e,c
   1363 50                 6745 	ld	d,b
   1364 1A                 6746 	ld	a,(de)
   1365 4F                 6747 	ld	c,a
   1366 13                 6748 	inc	de
   1367 1A                 6749 	ld	a,(de)
   1368 47                 6750 	ld	b,a
                           6751 ;	genCmpEq
                           6752 ;	AOP_STK for 
                           6753 ; genCmpEq: left 2, right 2, result 0
   1369 F8 02              6754 	lda	hl,2(sp)
   136B 7E                 6755 	ld	a,(hl)
   136C B9                 6756 	cp	c
   136D C2 76 13           6757 	jp	nz,00129$
   1370 23                 6758 	inc	hl
   1371 7E                 6759 	ld	a,(hl)
   1372 B8                 6760 	cp	b
   1373 CA C0 13           6761 	jp	z,00109$
   1376                    6762 00129$:
                           6763 ;	game.c 1042
                           6764 ;	genPlus
                           6765 ;	genPlusIncr
   1376 01 E7 19           6766 	ld	bc,#_dog1 + 12
                           6767 ;	genPointerGet
   1379 59                 6768 	ld	e,c
   137A 50                 6769 	ld	d,b
   137B 1A                 6770 	ld	a,(de)
   137C 4F                 6771 	ld	c,a
   137D 13                 6772 	inc	de
   137E 1A                 6773 	ld	a,(de)
   137F 47                 6774 	ld	b,a
                           6775 ;	genCmpEq
                           6776 ;	AOP_STK for 
                           6777 ; genCmpEq: left 2, right 2, result 0
   1380 F8 02              6778 	lda	hl,2(sp)
   1382 7E                 6779 	ld	a,(hl)
   1383 B9                 6780 	cp	c
   1384 C2 8D 13           6781 	jp	nz,00130$
   1387 23                 6782 	inc	hl
   1388 7E                 6783 	ld	a,(hl)
   1389 B8                 6784 	cp	b
   138A CA C0 13           6785 	jp	z,00109$
   138D                    6786 00130$:
                           6787 ;	game.c 1043
                           6788 ;	genPlus
                           6789 ;	genPlusIncr
   138D 01 F5 19           6790 	ld	bc,#_dog2 + 12
                           6791 ;	genPointerGet
   1390 59                 6792 	ld	e,c
   1391 50                 6793 	ld	d,b
   1392 1A                 6794 	ld	a,(de)
   1393 4F                 6795 	ld	c,a
   1394 13                 6796 	inc	de
   1395 1A                 6797 	ld	a,(de)
   1396 47                 6798 	ld	b,a
                           6799 ;	genCmpEq
                           6800 ;	AOP_STK for 
                           6801 ; genCmpEq: left 2, right 2, result 0
   1397 F8 02              6802 	lda	hl,2(sp)
   1399 7E                 6803 	ld	a,(hl)
   139A B9                 6804 	cp	c
   139B C2 A4 13           6805 	jp	nz,00131$
   139E 23                 6806 	inc	hl
   139F 7E                 6807 	ld	a,(hl)
   13A0 B8                 6808 	cp	b
   13A1 CA C0 13           6809 	jp	z,00109$
   13A4                    6810 00131$:
                           6811 ;	game.c 1044
                           6812 ;	genPlus
                           6813 ;	genPlusIncr
   13A4 01 03 1A           6814 	ld	bc,#_cat + 12
                           6815 ;	genPointerGet
   13A7 59                 6816 	ld	e,c
   13A8 50                 6817 	ld	d,b
   13A9 1A                 6818 	ld	a,(de)
   13AA 4F                 6819 	ld	c,a
   13AB 13                 6820 	inc	de
   13AC 1A                 6821 	ld	a,(de)
   13AD 47                 6822 	ld	b,a
                           6823 ;	genCmpEq
                           6824 ;	AOP_STK for 
                           6825 ; genCmpEq: left 2, right 2, result 0
   13AE F8 02              6826 	lda	hl,2(sp)
   13B0 7E                 6827 	ld	a,(hl)
   13B1 B9                 6828 	cp	c
   13B2 C2 BD 13           6829 	jp	nz,00132$
   13B5 23                 6830 	inc	hl
   13B6 7E                 6831 	ld	a,(hl)
   13B7 B8                 6832 	cp	b
   13B8 C2 C6 13           6833 	jp	nz,00110$
   13BB 18 03              6834 	jr	00133$
   13BD                    6835 00132$:
   13BD C3 C6 13           6836 	jp	00110$
   13C0                    6837 00133$:
                           6838 ;	genLabel
   13C0                    6839 00109$:
                           6840 ;	game.c 1046
                           6841 ;	genRet
   13C0 11 00 00           6842 	ld	de,#0x0000
   13C3 C3 C9 13           6843 	jp	00114$
                           6844 ;	genLabel
   13C6                    6845 00110$:
                           6846 ;	game.c 1049
                           6847 ;	genRet
   13C6 11 01 00           6848 	ld	de,#0x0001
                           6849 ;	genLabel
   13C9                    6850 00114$:
                           6851 ;	genEndFunction
                           6852 	
   13C9 C9                 6853 	ret
   13CA                    6854 ___can_move_to_map_pos_end:
                           6855 ;	game.c 1052
                           6856 ;	genLabel
                           6857 ;	genFunction
                           6858 ;	---------------------------------
                           6859 ; Function can_move
                           6860 ; ---------------------------------
   13CA                    6861 ___can_move_start:
   13CA                    6862 _can_move:
   13CA E8 FA              6863 	lda	sp,-6(sp)
                           6864 ;	game.c 1063
                           6865 ;	genCmpGt
                           6866 ;	AOP_STK for 
   13CC 3E 04              6867 	ld	a,#0x04
   13CE F8 0A              6868 	lda	hl,10(sp)
   13D0 96                 6869 	sub	a,(hl)
   13D1 DA 17 14           6870 	jp	c,00106$
                           6871 ;	genJumpTab
                           6872 ;	AOP_STK for 
   13D4 5E                 6873 	ld	e,(hl)
   13D5 16 00              6874 	ld	d,#0x00
   13D7 21 DE 13           6875 	ld	hl,#00121$
   13DA 19                 6876 	add	hl,de
   13DB 19                 6877 	add	hl,de
   13DC 19                 6878 	add	hl,de
   13DD E9                 6879 	jp	(hl)
   13DE                    6880 00121$:
   13DE C3 11 14           6881 	jp	00105$
   13E1 C3 FF 13           6882 	jp	00103$
   13E4 C3 F6 13           6883 	jp	00102$
   13E7 C3 08 14           6884 	jp	00104$
   13EA C3 ED 13           6885 	jp	00101$
                           6886 ;	game.c 1065
                           6887 ;	genLabel
   13ED                    6888 00101$:
                           6889 ;	genMinus
                           6890 ;	AOP_STK for 
   13ED F8 08              6891 	lda	hl,8(sp)
   13EF 7E                 6892 	ld	a,(hl)
   13F0 C6 F8              6893 	add	a,#0xF8
   13F2 77                 6894 	ld	(hl),a
                           6895 ;	game.c 1066
                           6896 ;	genGoto
   13F3 C3 17 14           6897 	jp	00106$
                           6898 ;	game.c 1068
                           6899 ;	genLabel
   13F6                    6900 00102$:
                           6901 ;	genPlus
                           6902 ;	AOP_STK for 
                           6903 ;	genPlusIncr
                           6904 ;	Can't optimise plus by inc, falling back to the normal way
   13F6 F8 08              6905 	lda	hl,8(sp)
   13F8 7E                 6906 	ld	a,(hl)
   13F9 C6 08              6907 	add	a,#0x08
   13FB 77                 6908 	ld	(hl),a
                           6909 ;	game.c 1069
                           6910 ;	genGoto
   13FC C3 17 14           6911 	jp	00106$
                           6912 ;	game.c 1071
                           6913 ;	genLabel
   13FF                    6914 00103$:
                           6915 ;	genMinus
                           6916 ;	AOP_STK for 
   13FF F8 09              6917 	lda	hl,9(sp)
   1401 7E                 6918 	ld	a,(hl)
   1402 C6 F8              6919 	add	a,#0xF8
   1404 77                 6920 	ld	(hl),a
                           6921 ;	game.c 1072
                           6922 ;	genGoto
   1405 C3 17 14           6923 	jp	00106$
                           6924 ;	game.c 1074
                           6925 ;	genLabel
   1408                    6926 00104$:
                           6927 ;	genPlus
                           6928 ;	AOP_STK for 
                           6929 ;	genPlusIncr
                           6930 ;	Can't optimise plus by inc, falling back to the normal way
   1408 F8 09              6931 	lda	hl,9(sp)
   140A 7E                 6932 	ld	a,(hl)
   140B C6 08              6933 	add	a,#0x08
   140D 77                 6934 	ld	(hl),a
                           6935 ;	game.c 1075
                           6936 ;	genGoto
   140E C3 17 14           6937 	jp	00106$
                           6938 ;	game.c 1077
                           6939 ;	genLabel
   1411                    6940 00105$:
                           6941 ;	genRet
   1411 11 00 00           6942 	ld	de,#0x0000
   1414 C3 B0 14           6943 	jp	00114$
                           6944 ;	game.c 1078
                           6945 ;	genLabel
   1417                    6946 00106$:
                           6947 ;	game.c 1080
                           6948 ;	genCast
                           6949 ;	AOP_STK for 
   1417 F8 08              6950 	lda	hl,8(sp)
   1419 4E                 6951 	ld	c,(hl)
   141A 06 00              6952 	ld	b,#0x00
                           6953 ;	genRightShift
   141C CB 38              6954 	srl	b
   141E CB 19              6955 	rr	c
   1420 CB 38              6956 	srl	b
   1422 CB 19              6957 	rr	c
   1424 CB 38              6958 	srl	b
   1426 CB 19              6959 	rr	c
                           6960 ;	genMinus
   1428 0B                 6961 	dec	bc
                           6962 ;	genCast
                           6963 ;	AOP_STK for _can_move__x_1_1
   1429 F8 05              6964 	lda	hl,5(sp)
   142B 71                 6965 	ld	(hl),c
                           6966 ;	game.c 1081
                           6967 ;	genCast
                           6968 ;	AOP_STK for 
   142C F8 09              6969 	lda	hl,9(sp)
   142E 46                 6970 	ld	b,(hl)
   142F 0E 00              6971 	ld	c,#0x00
                           6972 ;	genRightShift
   1431 CB 39              6973 	srl	c
   1433 CB 18              6974 	rr	b
   1435 CB 39              6975 	srl	c
   1437 CB 18              6976 	rr	b
   1439 CB 39              6977 	srl	c
   143B CB 18              6978 	rr	b
                           6979 ;	genMinus
   143D 58                 6980 	ld	e,b
   143E 51                 6981 	ld	d,c
   143F 1B                 6982 	dec	de
   1440 1B                 6983 	dec	de
   1441 43                 6984 	ld	b,e
   1442 4A                 6985 	ld	c,d
                           6986 ;	genCast
                           6987 ;	AOP_STK for _can_move__y_1_1
   1443 F8 04              6988 	lda	hl,4(sp)
   1445 70                 6989 	ld	(hl),b
                           6990 ;	game.c 1088
                           6991 ;	genCmpLt
                           6992 ;	AOP_STK for _can_move__x_1_1
   1446 23                 6993 	inc	hl
   1447 7E                 6994 	ld	a,(hl)
   1448 FE 00              6995 	cp	#0x00
   144A DA 71 14           6996 	jp	c,00107$
                           6997 ;	genCast
                           6998 ;	AOP_STK for _can_move__x_1_1
   144D 46                 6999 	ld	b,(hl)
   144E 0E 00              7000 	ld	c,#0x00
                           7001 ;	genCmpGt
   1450 3E 13              7002 	ld	a,#0x13
   1452 90                 7003 	sub	a,b
   1453 3E 00              7004 	ld	a,#0x00
   1455 99                 7005 	sbc	a,c
   1456 DA 71 14           7006 	jp	c,00107$
                           7007 ;	genCmpLt
                           7008 ;	AOP_STK for _can_move__y_1_1
   1459 2B                 7009 	dec	hl
   145A 7E                 7010 	ld	a,(hl)
   145B FE 00              7011 	cp	#0x00
   145D DA 71 14           7012 	jp	c,00107$
                           7013 ;	genCast
                           7014 ;	AOP_STK for _can_move__y_1_1
                           7015 ;	AOP_STK for _can_move_sloc0_1_0
   1460 7E                 7016 	ld	a,(hl)
   1461 F8 00              7017 	lda	hl,0(sp)
   1463 22                 7018 	ld	(hl+),a
   1464 36 00              7019 	ld	(hl),#0x00
                           7020 ;	genCmpGt
                           7021 ;	AOP_STK for _can_move_sloc0_1_0
   1466 3E 11              7022 	ld	a,#0x11
   1468 2B                 7023 	dec	hl
   1469 96                 7024 	sub	a,(hl)
   146A 3E 00              7025 	ld	a,#0x00
   146C 23                 7026 	inc	hl
   146D 9E                 7027 	sbc	a,(hl)
   146E D2 77 14           7028 	jp	nc,00108$
                           7029 ;	genLabel
   1471                    7030 00107$:
                           7031 ;	game.c 1090
                           7032 ;	genRet
   1471 11 00 00           7033 	ld	de,#0x0000
   1474 C3 B0 14           7034 	jp	00114$
                           7035 ;	genLabel
   1477                    7036 00108$:
                           7037 ;	game.c 1097
                           7038 ;	genAssign
                           7039 ;	(registers are the same)
                           7040 ;	genAssign
                           7041 ;	AOP_STK for _can_move_map_position_1_1
   1477 F8 02              7042 	lda	hl,2(sp)
   1479 70                 7043 	ld	(hl),b
   147A 23                 7044 	inc	hl
   147B 71                 7045 	ld	(hl),c
                           7046 ;	game.c 1098
                           7047 ;	genMult
                           7048 ;	AOP_STK for _can_move_sloc0_1_0
   147C F8 00              7049 	lda	hl,0(sp)
   147E 5E                 7050 	ld	e,(hl)
   147F 23                 7051 	inc	hl
   1480 56                 7052 	ld	d,(hl)
   1481 6B                 7053 	ld	l,e
   1482 62                 7054 	ld	h,d
   1483 29                 7055 	add	hl,hl
   1484 29                 7056 	add	hl,hl
   1485 19                 7057 	add	hl,de
   1486 29                 7058 	add	hl,hl
   1487 29                 7059 	add	hl,hl
   1488 4D                 7060 	ld	c,l
   1489 44                 7061 	ld	b,h
                           7062 ;	genPlus
                           7063 ;	AOP_STK for _can_move_map_position_1_1
                           7064 ;	Can't optimise plus by inc, falling back to the normal way
   148A F8 02              7065 	lda	hl,2(sp)
   148C 2A                 7066 	ld	a,(hl+)
   148D 66                 7067 	ld	h,(hl)
   148E 6F                 7068 	ld	l,a
   148F 09                 7069 	add	hl,bc
   1490 7D                 7070 	ld	a,l
   1491 54                 7071 	ld	d,h
   1492 F8 02              7072 	lda	hl,2(sp)
   1494 22                 7073 	ld	(hl+),a
   1495 72                 7074 	ld	(hl),d
                           7075 ;	game.c 1100
                           7076 ;	genIpush
                           7077 ; _saveRegsForCall: sendSetSize: 0 deInUse: 0 bcInUse: 0 deSending: 0
                           7078 ;	AOP_STK for _can_move_map_position_1_1
   1496 2B                 7079 	dec	hl
   1497 2A                 7080 	ld	a,(hl+)
   1498 66                 7081 	ld	h,(hl)
   1499 6F                 7082 	ld	l,a
   149A E5                 7083 	push	hl
                           7084 ;	genCall
   149B CD 01 13           7085 	call	_can_move_to_map_pos
   149E 42                 7086 	ld	b,d
   149F 4B                 7087 	ld	c,e
   14A0 E8 02              7088 	lda	sp,2(sp)
                           7089 ;	genIfx
   14A2 79                 7090 	ld	a,c
   14A3 B0                 7091 	or	a,b
   14A4 CA AD 14           7092 	jp	z,00113$
                           7093 ;	game.c 1101
                           7094 ;	genRet
   14A7 11 01 00           7095 	ld	de,#0x0001
   14AA C3 B0 14           7096 	jp	00114$
                           7097 ;	genLabel
   14AD                    7098 00113$:
                           7099 ;	game.c 1104
                           7100 ;	genRet
   14AD 11 00 00           7101 	ld	de,#0x0000
                           7102 ;	genLabel
   14B0                    7103 00114$:
                           7104 ;	genEndFunction
   14B0 E8 06              7105 	lda	sp,6(sp)
   14B2 C9                 7106 	ret
   14B3                    7107 ___can_move_end:
                           7108 ;	game.c 1107
                           7109 ;	genLabel
                           7110 ;	genFunction
                           7111 ;	---------------------------------
                           7112 ; Function rotate_player
                           7113 ; ---------------------------------
   14B3                    7114 ___rotate_player_start:
   14B3                    7115 _rotate_player:
   14B3 E8 FC              7116 	lda	sp,-4(sp)
                           7117 ;	game.c 1108
                           7118 ;	genAssign
                           7119 ;	AOP_HL for _player
   14B5 21 13 1A           7120 	ld	hl,#_player
   14B8 4E                 7121 	ld	c,(hl)
   14B9 23                 7122 	inc	hl
   14BA 46                 7123 	ld	b,(hl)
                           7124 ;	genPlus
                           7125 ;	genPlusIncr
                           7126 ;	Can't optimise plus by inc, falling back to the normal way
   14BB 79                 7127 	ld	a,c
   14BC C6 07              7128 	add	a,#0x07
   14BE 4F                 7129 	ld	c,a
   14BF 78                 7130 	ld	a,b
   14C0 CE 00              7131 	adc	a,#0x00
   14C2 47                 7132 	ld	b,a
                           7133 ;	genPointerGet
   14C3 0A                 7134 	ld	a,(bc)
   14C4 4F                 7135 	ld	c,a
                           7136 ;	genAssign
                           7137 ;	AOP_HL for _player
                           7138 ;	AOP_STK for _rotate_player_sloc0_1_0
   14C5 2B                 7139 	dec	hl
   14C6 2A                 7140 	ld	a,(hl+)
   14C7 5E                 7141 	ld	e,(hl)
   14C8 F8 02              7142 	lda	hl,2(sp)
   14CA 22                 7143 	ld	(hl+),a
   14CB 73                 7144 	ld	(hl),e
                           7145 ;	genPlus
                           7146 ;	AOP_STK for _rotate_player_sloc0_1_0
                           7147 ;	AOP_STK for _rotate_player_sloc1_1_0
                           7148 ;	genPlusIncr
                           7149 ;	Can't optimise plus by inc, falling back to the normal way
   14CC 2B                 7150 	dec	hl
   14CD 5E                 7151 	ld	e,(hl)
   14CE 23                 7152 	inc	hl
   14CF 56                 7153 	ld	d,(hl)
   14D0 21 0B 00           7154 	ld	hl,#0x000B
   14D3 19                 7155 	add	hl,de
   14D4 7D                 7156 	ld	a,l
   14D5 54                 7157 	ld	d,h
   14D6 F8 00              7158 	lda	hl,0(sp)
                           7159 ;	genPointerGet
                           7160 ;	AOP_STK for _rotate_player_sloc1_1_0
   14D8 22                 7161 	ld	(hl+),a
   14D9 72                 7162 	ld	(hl),d
   14DA 5F                 7163 	ld	e,a
   14DB 1A                 7164 	ld	a,(de)
   14DC 47                 7165 	ld	b,a
                           7166 ;	genIpush
                           7167 ; _saveRegsForCall: sendSetSize: 0 deInUse: 0 bcInUse: 0 deSending: 0
   14DD 79                 7168 	ld	a,c
   14DE F5                 7169 	push	af
   14DF 33                 7170 	inc	sp
                           7171 ;	genIpush
   14E0 78                 7172 	ld	a,b
   14E1 F5                 7173 	push	af
   14E2 33                 7174 	inc	sp
                           7175 ;	genCall
   14E3 CD 00 00           7176 	call	_set_sprite_tile
   14E6 E8 02              7177 	lda	sp,2(sp)
                           7178 ;	game.c 1109
                           7179 ;	genAssign
                           7180 ;	AOP_HL for _player
   14E8 21 13 1A           7181 	ld	hl,#_player
   14EB 4E                 7182 	ld	c,(hl)
   14EC 23                 7183 	inc	hl
   14ED 46                 7184 	ld	b,(hl)
                           7185 ;	genPlus
                           7186 ;	genPlusIncr
                           7187 ;	Can't optimise plus by inc, falling back to the normal way
   14EE 79                 7188 	ld	a,c
   14EF C6 0B              7189 	add	a,#0x0B
   14F1 4F                 7190 	ld	c,a
   14F2 78                 7191 	ld	a,b
   14F3 CE 00              7192 	adc	a,#0x00
   14F5 47                 7193 	ld	b,a
                           7194 ;	genPointerGet
   14F6 0A                 7195 	ld	a,(bc)
   14F7 4F                 7196 	ld	c,a
                           7197 ;	genIpush
                           7198 ; _saveRegsForCall: sendSetSize: 0 deInUse: 0 bcInUse: 0 deSending: 0
   14F8 3E 20              7199 	ld	a,#0x20
   14FA F5                 7200 	push	af
   14FB 33                 7201 	inc	sp
                           7202 ;	genIpush
   14FC 79                 7203 	ld	a,c
   14FD F5                 7204 	push	af
   14FE 33                 7205 	inc	sp
                           7206 ;	genCall
   14FF CD 00 00           7207 	call	_set_sprite_prop
   1502 E8 02              7208 	lda	sp,2(sp)
                           7209 ;	game.c 1110
                           7210 ;	genIpush
                           7211 ; _saveRegsForCall: sendSetSize: 0 deInUse: 0 bcInUse: 0 deSending: 0
   1504 3E 05              7212 	ld	a,#0x05
   1506 F5                 7213 	push	af
   1507 33                 7214 	inc	sp
                           7215 ;	genCall
   1508 CD 00 00           7216 	call	_performantDelay
   150B E8 01              7217 	lda	sp,1(sp)
                           7218 ;	game.c 1111
                           7219 ;	genAssign
                           7220 ;	AOP_HL for _player
   150D 21 13 1A           7221 	ld	hl,#_player
   1510 4E                 7222 	ld	c,(hl)
   1511 23                 7223 	inc	hl
   1512 46                 7224 	ld	b,(hl)
                           7225 ;	genPlus
                           7226 ;	genPlusIncr
   1513 03                 7227 	inc	bc
   1514 03                 7228 	inc	bc
   1515 03                 7229 	inc	bc
   1516 03                 7230 	inc	bc
                           7231 ;	genPointerGet
   1517 0A                 7232 	ld	a,(bc)
   1518 4F                 7233 	ld	c,a
                           7234 ;	genAssign
                           7235 ;	AOP_HL for _player
                           7236 ;	AOP_STK for _rotate_player_sloc1_1_0
   1519 2B                 7237 	dec	hl
   151A 2A                 7238 	ld	a,(hl+)
   151B 5E                 7239 	ld	e,(hl)
   151C F8 00              7240 	lda	hl,0(sp)
   151E 22                 7241 	ld	(hl+),a
   151F 73                 7242 	ld	(hl),e
                           7243 ;	genPlus
                           7244 ;	AOP_STK for _rotate_player_sloc1_1_0
                           7245 ;	AOP_STK for _rotate_player_sloc0_1_0
                           7246 ;	genPlusIncr
                           7247 ;	Can't optimise plus by inc, falling back to the normal way
   1520 2B                 7248 	dec	hl
   1521 5E                 7249 	ld	e,(hl)
   1522 23                 7250 	inc	hl
   1523 56                 7251 	ld	d,(hl)
   1524 21 0B 00           7252 	ld	hl,#0x000B
   1527 19                 7253 	add	hl,de
   1528 7D                 7254 	ld	a,l
   1529 54                 7255 	ld	d,h
   152A F8 02              7256 	lda	hl,2(sp)
                           7257 ;	genPointerGet
                           7258 ;	AOP_STK for _rotate_player_sloc0_1_0
   152C 22                 7259 	ld	(hl+),a
   152D 72                 7260 	ld	(hl),d
   152E 5F                 7261 	ld	e,a
   152F 1A                 7262 	ld	a,(de)
   1530 47                 7263 	ld	b,a
                           7264 ;	genIpush
                           7265 ; _saveRegsForCall: sendSetSize: 0 deInUse: 0 bcInUse: 0 deSending: 0
   1531 79                 7266 	ld	a,c
   1532 F5                 7267 	push	af
   1533 33                 7268 	inc	sp
                           7269 ;	genIpush
   1534 78                 7270 	ld	a,b
   1535 F5                 7271 	push	af
   1536 33                 7272 	inc	sp
                           7273 ;	genCall
   1537 CD 00 00           7274 	call	_set_sprite_tile
   153A E8 02              7275 	lda	sp,2(sp)
                           7276 ;	game.c 1112
                           7277 ;	genAssign
                           7278 ;	AOP_HL for _player
   153C 21 13 1A           7279 	ld	hl,#_player
   153F 4E                 7280 	ld	c,(hl)
   1540 23                 7281 	inc	hl
   1541 46                 7282 	ld	b,(hl)
                           7283 ;	genPlus
                           7284 ;	genPlusIncr
                           7285 ;	Can't optimise plus by inc, falling back to the normal way
   1542 79                 7286 	ld	a,c
   1543 C6 0B              7287 	add	a,#0x0B
   1545 4F                 7288 	ld	c,a
   1546 78                 7289 	ld	a,b
   1547 CE 00              7290 	adc	a,#0x00
   1549 47                 7291 	ld	b,a
                           7292 ;	genPointerGet
   154A 0A                 7293 	ld	a,(bc)
   154B 4F                 7294 	ld	c,a
                           7295 ;	genIpush
                           7296 ; _saveRegsForCall: sendSetSize: 0 deInUse: 0 bcInUse: 0 deSending: 0
   154C 3E 60              7297 	ld	a,#0x60
   154E F5                 7298 	push	af
   154F 33                 7299 	inc	sp
                           7300 ;	genIpush
   1550 79                 7301 	ld	a,c
   1551 F5                 7302 	push	af
   1552 33                 7303 	inc	sp
                           7304 ;	genCall
   1553 CD 00 00           7305 	call	_set_sprite_prop
   1556 E8 02              7306 	lda	sp,2(sp)
                           7307 ;	game.c 1113
                           7308 ;	genIpush
                           7309 ; _saveRegsForCall: sendSetSize: 0 deInUse: 0 bcInUse: 0 deSending: 0
   1558 3E 05              7310 	ld	a,#0x05
   155A F5                 7311 	push	af
   155B 33                 7312 	inc	sp
                           7313 ;	genCall
   155C CD 00 00           7314 	call	_performantDelay
   155F E8 01              7315 	lda	sp,1(sp)
                           7316 ;	game.c 1114
                           7317 ;	genAssign
                           7318 ;	AOP_HL for _player
   1561 21 13 1A           7319 	ld	hl,#_player
   1564 4E                 7320 	ld	c,(hl)
   1565 23                 7321 	inc	hl
   1566 46                 7322 	ld	b,(hl)
                           7323 ;	genPlus
                           7324 ;	genPlusIncr
                           7325 ;	Can't optimise plus by inc, falling back to the normal way
   1567 79                 7326 	ld	a,c
   1568 C6 07              7327 	add	a,#0x07
   156A 4F                 7328 	ld	c,a
   156B 78                 7329 	ld	a,b
   156C CE 00              7330 	adc	a,#0x00
   156E 47                 7331 	ld	b,a
                           7332 ;	genPointerGet
   156F 0A                 7333 	ld	a,(bc)
   1570 4F                 7334 	ld	c,a
                           7335 ;	genAssign
                           7336 ;	AOP_HL for _player
                           7337 ;	AOP_STK for _rotate_player_sloc1_1_0
   1571 2B                 7338 	dec	hl
   1572 2A                 7339 	ld	a,(hl+)
   1573 5E                 7340 	ld	e,(hl)
   1574 F8 00              7341 	lda	hl,0(sp)
   1576 22                 7342 	ld	(hl+),a
   1577 73                 7343 	ld	(hl),e
                           7344 ;	genPlus
                           7345 ;	AOP_STK for _rotate_player_sloc1_1_0
                           7346 ;	AOP_STK for _rotate_player_sloc0_1_0
                           7347 ;	genPlusIncr
                           7348 ;	Can't optimise plus by inc, falling back to the normal way
   1578 2B                 7349 	dec	hl
   1579 5E                 7350 	ld	e,(hl)
   157A 23                 7351 	inc	hl
   157B 56                 7352 	ld	d,(hl)
   157C 21 0B 00           7353 	ld	hl,#0x000B
   157F 19                 7354 	add	hl,de
   1580 7D                 7355 	ld	a,l
   1581 54                 7356 	ld	d,h
   1582 F8 02              7357 	lda	hl,2(sp)
                           7358 ;	genPointerGet
                           7359 ;	AOP_STK for _rotate_player_sloc0_1_0
   1584 22                 7360 	ld	(hl+),a
   1585 72                 7361 	ld	(hl),d
   1586 5F                 7362 	ld	e,a
   1587 1A                 7363 	ld	a,(de)
   1588 47                 7364 	ld	b,a
                           7365 ;	genIpush
                           7366 ; _saveRegsForCall: sendSetSize: 0 deInUse: 0 bcInUse: 0 deSending: 0
   1589 79                 7367 	ld	a,c
   158A F5                 7368 	push	af
   158B 33                 7369 	inc	sp
                           7370 ;	genIpush
   158C 78                 7371 	ld	a,b
   158D F5                 7372 	push	af
   158E 33                 7373 	inc	sp
                           7374 ;	genCall
   158F CD 00 00           7375 	call	_set_sprite_tile
   1592 E8 02              7376 	lda	sp,2(sp)
                           7377 ;	game.c 1115
                           7378 ;	genAssign
                           7379 ;	AOP_HL for _player
   1594 21 13 1A           7380 	ld	hl,#_player
   1597 4E                 7381 	ld	c,(hl)
   1598 23                 7382 	inc	hl
   1599 46                 7383 	ld	b,(hl)
                           7384 ;	genPlus
                           7385 ;	genPlusIncr
                           7386 ;	Can't optimise plus by inc, falling back to the normal way
   159A 79                 7387 	ld	a,c
   159B C6 0B              7388 	add	a,#0x0B
   159D 4F                 7389 	ld	c,a
   159E 78                 7390 	ld	a,b
   159F CE 00              7391 	adc	a,#0x00
   15A1 47                 7392 	ld	b,a
                           7393 ;	genPointerGet
   15A2 0A                 7394 	ld	a,(bc)
   15A3 4F                 7395 	ld	c,a
                           7396 ;	genIpush
                           7397 ; _saveRegsForCall: sendSetSize: 0 deInUse: 0 bcInUse: 0 deSending: 0
   15A4 3E 40              7398 	ld	a,#0x40
   15A6 F5                 7399 	push	af
   15A7 33                 7400 	inc	sp
                           7401 ;	genIpush
   15A8 79                 7402 	ld	a,c
   15A9 F5                 7403 	push	af
   15AA 33                 7404 	inc	sp
                           7405 ;	genCall
   15AB CD 00 00           7406 	call	_set_sprite_prop
   15AE E8 02              7407 	lda	sp,2(sp)
                           7408 ;	game.c 1116
                           7409 ;	genIpush
                           7410 ; _saveRegsForCall: sendSetSize: 0 deInUse: 0 bcInUse: 0 deSending: 0
   15B0 3E 05              7411 	ld	a,#0x05
   15B2 F5                 7412 	push	af
   15B3 33                 7413 	inc	sp
                           7414 ;	genCall
   15B4 CD 00 00           7415 	call	_performantDelay
   15B7 E8 01              7416 	lda	sp,1(sp)
                           7417 ;	game.c 1117
                           7418 ;	genAssign
                           7419 ;	AOP_HL for _player
   15B9 21 13 1A           7420 	ld	hl,#_player
   15BC 4E                 7421 	ld	c,(hl)
   15BD 23                 7422 	inc	hl
   15BE 46                 7423 	ld	b,(hl)
                           7424 ;	genPlus
                           7425 ;	genPlusIncr
   15BF 03                 7426 	inc	bc
   15C0 03                 7427 	inc	bc
   15C1 03                 7428 	inc	bc
   15C2 03                 7429 	inc	bc
                           7430 ;	genPointerGet
   15C3 0A                 7431 	ld	a,(bc)
   15C4 4F                 7432 	ld	c,a
                           7433 ;	genAssign
                           7434 ;	AOP_HL for _player
                           7435 ;	AOP_STK for _rotate_player_sloc1_1_0
   15C5 2B                 7436 	dec	hl
   15C6 2A                 7437 	ld	a,(hl+)
   15C7 5E                 7438 	ld	e,(hl)
   15C8 F8 00              7439 	lda	hl,0(sp)
   15CA 22                 7440 	ld	(hl+),a
   15CB 73                 7441 	ld	(hl),e
                           7442 ;	genPlus
                           7443 ;	AOP_STK for _rotate_player_sloc1_1_0
                           7444 ;	AOP_STK for _rotate_player_sloc0_1_0
                           7445 ;	genPlusIncr
                           7446 ;	Can't optimise plus by inc, falling back to the normal way
   15CC 2B                 7447 	dec	hl
   15CD 5E                 7448 	ld	e,(hl)
   15CE 23                 7449 	inc	hl
   15CF 56                 7450 	ld	d,(hl)
   15D0 21 0B 00           7451 	ld	hl,#0x000B
   15D3 19                 7452 	add	hl,de
   15D4 7D                 7453 	ld	a,l
   15D5 54                 7454 	ld	d,h
   15D6 F8 02              7455 	lda	hl,2(sp)
                           7456 ;	genPointerGet
                           7457 ;	AOP_STK for _rotate_player_sloc0_1_0
   15D8 22                 7458 	ld	(hl+),a
   15D9 72                 7459 	ld	(hl),d
   15DA 5F                 7460 	ld	e,a
   15DB 1A                 7461 	ld	a,(de)
   15DC 47                 7462 	ld	b,a
                           7463 ;	genIpush
                           7464 ; _saveRegsForCall: sendSetSize: 0 deInUse: 0 bcInUse: 0 deSending: 0
   15DD 79                 7465 	ld	a,c
   15DE F5                 7466 	push	af
   15DF 33                 7467 	inc	sp
                           7468 ;	genIpush
   15E0 78                 7469 	ld	a,b
   15E1 F5                 7470 	push	af
   15E2 33                 7471 	inc	sp
                           7472 ;	genCall
   15E3 CD 00 00           7473 	call	_set_sprite_tile
   15E6 E8 02              7474 	lda	sp,2(sp)
                           7475 ;	game.c 1118
                           7476 ;	genAssign
                           7477 ;	AOP_HL for _player
   15E8 21 13 1A           7478 	ld	hl,#_player
   15EB 4E                 7479 	ld	c,(hl)
   15EC 23                 7480 	inc	hl
   15ED 46                 7481 	ld	b,(hl)
                           7482 ;	genPlus
                           7483 ;	genPlusIncr
                           7484 ;	Can't optimise plus by inc, falling back to the normal way
   15EE 79                 7485 	ld	a,c
   15EF C6 0B              7486 	add	a,#0x0B
   15F1 4F                 7487 	ld	c,a
   15F2 78                 7488 	ld	a,b
   15F3 CE 00              7489 	adc	a,#0x00
   15F5 47                 7490 	ld	b,a
                           7491 ;	genPointerGet
   15F6 0A                 7492 	ld	a,(bc)
   15F7 4F                 7493 	ld	c,a
                           7494 ;	genIpush
                           7495 ; _saveRegsForCall: sendSetSize: 0 deInUse: 0 bcInUse: 0 deSending: 0
   15F8 3E 00              7496 	ld	a,#0x00
   15FA F5                 7497 	push	af
   15FB 33                 7498 	inc	sp
                           7499 ;	genIpush
   15FC 79                 7500 	ld	a,c
   15FD F5                 7501 	push	af
   15FE 33                 7502 	inc	sp
                           7503 ;	genCall
   15FF CD 00 00           7504 	call	_set_sprite_prop
   1602 E8 02              7505 	lda	sp,2(sp)
                           7506 ;	game.c 1119
                           7507 ;	genIpush
                           7508 ; _saveRegsForCall: sendSetSize: 0 deInUse: 0 bcInUse: 0 deSending: 0
   1604 3E 05              7509 	ld	a,#0x05
   1606 F5                 7510 	push	af
   1607 33                 7511 	inc	sp
                           7512 ;	genCall
   1608 CD 00 00           7513 	call	_performantDelay
   160B E8 01              7514 	lda	sp,1(sp)
                           7515 ;	game.c 1120
                           7516 ;	genAssign
                           7517 ;	AOP_HL for _player
   160D 21 13 1A           7518 	ld	hl,#_player
   1610 4E                 7519 	ld	c,(hl)
   1611 23                 7520 	inc	hl
   1612 46                 7521 	ld	b,(hl)
                           7522 ;	genPlus
                           7523 ;	genPlusIncr
   1613 03                 7524 	inc	bc
   1614 03                 7525 	inc	bc
                           7526 ;	genPointerGet
   1615 0A                 7527 	ld	a,(bc)
   1616 4F                 7528 	ld	c,a
                           7529 ;	genAssign
                           7530 ;	AOP_HL for _player
                           7531 ;	AOP_STK for _rotate_player_sloc1_1_0
   1617 2B                 7532 	dec	hl
   1618 2A                 7533 	ld	a,(hl+)
   1619 5E                 7534 	ld	e,(hl)
   161A F8 00              7535 	lda	hl,0(sp)
   161C 22                 7536 	ld	(hl+),a
   161D 73                 7537 	ld	(hl),e
                           7538 ;	genPlus
                           7539 ;	AOP_STK for _rotate_player_sloc1_1_0
                           7540 ;	AOP_STK for _rotate_player_sloc0_1_0
                           7541 ;	genPlusIncr
                           7542 ;	Can't optimise plus by inc, falling back to the normal way
   161E 2B                 7543 	dec	hl
   161F 5E                 7544 	ld	e,(hl)
   1620 23                 7545 	inc	hl
   1621 56                 7546 	ld	d,(hl)
   1622 21 0B 00           7547 	ld	hl,#0x000B
   1625 19                 7548 	add	hl,de
   1626 7D                 7549 	ld	a,l
   1627 54                 7550 	ld	d,h
   1628 F8 02              7551 	lda	hl,2(sp)
                           7552 ;	genPointerGet
                           7553 ;	AOP_STK for _rotate_player_sloc0_1_0
   162A 22                 7554 	ld	(hl+),a
   162B 72                 7555 	ld	(hl),d
   162C 5F                 7556 	ld	e,a
   162D 1A                 7557 	ld	a,(de)
   162E 47                 7558 	ld	b,a
                           7559 ;	genIpush
                           7560 ; _saveRegsForCall: sendSetSize: 0 deInUse: 0 bcInUse: 0 deSending: 0
   162F 79                 7561 	ld	a,c
   1630 F5                 7562 	push	af
   1631 33                 7563 	inc	sp
                           7564 ;	genIpush
   1632 78                 7565 	ld	a,b
   1633 F5                 7566 	push	af
   1634 33                 7567 	inc	sp
                           7568 ;	genCall
   1635 CD 00 00           7569 	call	_set_sprite_tile
   1638 E8 02              7570 	lda	sp,2(sp)
                           7571 ;	game.c 1121
                           7572 ;	genAssign
                           7573 ;	AOP_HL for _player
   163A 21 13 1A           7574 	ld	hl,#_player
   163D 4E                 7575 	ld	c,(hl)
   163E 23                 7576 	inc	hl
   163F 46                 7577 	ld	b,(hl)
                           7578 ;	genPlus
                           7579 ;	genPlusIncr
                           7580 ;	Can't optimise plus by inc, falling back to the normal way
   1640 79                 7581 	ld	a,c
   1641 C6 0B              7582 	add	a,#0x0B
   1643 4F                 7583 	ld	c,a
   1644 78                 7584 	ld	a,b
   1645 CE 00              7585 	adc	a,#0x00
   1647 47                 7586 	ld	b,a
                           7587 ;	genPointerGet
   1648 0A                 7588 	ld	a,(bc)
   1649 4F                 7589 	ld	c,a
                           7590 ;	genIpush
                           7591 ; _saveRegsForCall: sendSetSize: 0 deInUse: 0 bcInUse: 0 deSending: 0
   164A 3E 00              7592 	ld	a,#0x00
   164C F5                 7593 	push	af
   164D 33                 7594 	inc	sp
                           7595 ;	genIpush
   164E 79                 7596 	ld	a,c
   164F F5                 7597 	push	af
   1650 33                 7598 	inc	sp
                           7599 ;	genCall
   1651 CD 00 00           7600 	call	_set_sprite_prop
   1654 E8 02              7601 	lda	sp,2(sp)
                           7602 ;	genLabel
   1656                    7603 00101$:
                           7604 ;	genEndFunction
   1656 E8 04              7605 	lda	sp,4(sp)
   1658 C9                 7606 	ret
   1659                    7607 ___rotate_player_end:
                           7608 ;	game.c 1124
                           7609 ;	genLabel
                           7610 ;	genFunction
                           7611 ;	---------------------------------
                           7612 ; Function move_character
                           7613 ; ---------------------------------
   1659                    7614 ___move_character_start:
   1659                    7615 _move_character:
   1659 E8 F1              7616 	lda	sp,-15(sp)
                           7617 ;	game.c 1127
                           7618 ;	genAssign
                           7619 ;	AOP_HL for _player
   165B 21 13 1A           7620 	ld	hl,#_player
   165E 4E                 7621 	ld	c,(hl)
   165F 23                 7622 	inc	hl
   1660 46                 7623 	ld	b,(hl)
                           7624 ;	genPlus
                           7625 ;	genPlusIncr
                           7626 ;	Can't optimise plus by inc, falling back to the normal way
   1661 79                 7627 	ld	a,c
   1662 C6 0B              7628 	add	a,#0x0B
   1664 4F                 7629 	ld	c,a
   1665 78                 7630 	ld	a,b
   1666 CE 00              7631 	adc	a,#0x00
   1668 47                 7632 	ld	b,a
                           7633 ;	genPointerGet
   1669 0A                 7634 	ld	a,(bc)
   166A 4F                 7635 	ld	c,a
                           7636 ;	genAssign
                           7637 ;	AOP_STK for 
                           7638 ;	AOP_STK for _move_character_sloc0_1_0
   166B F8 11              7639 	lda	hl,17(sp)
   166D 2A                 7640 	ld	a,(hl+)
   166E 5E                 7641 	ld	e,(hl)
   166F F8 0D              7642 	lda	hl,13(sp)
   1671 22                 7643 	ld	(hl+),a
   1672 73                 7644 	ld	(hl),e
                           7645 ;	genPlus
                           7646 ;	AOP_STK for _move_character_sloc0_1_0
                           7647 ;	AOP_STK for _move_character_sloc1_1_0
                           7648 ;	genPlusIncr
                           7649 ;	Can't optimise plus by inc, falling back to the normal way
   1673 2B                 7650 	dec	hl
   1674 5E                 7651 	ld	e,(hl)
   1675 23                 7652 	inc	hl
   1676 56                 7653 	ld	d,(hl)
   1677 21 0B 00           7654 	ld	hl,#0x000B
   167A 19                 7655 	add	hl,de
   167B 7D                 7656 	ld	a,l
   167C 54                 7657 	ld	d,h
   167D F8 0B              7658 	lda	hl,11(sp)
                           7659 ;	genPointerGet
                           7660 ;	AOP_STK for _move_character_sloc1_1_0
   167F 22                 7661 	ld	(hl+),a
   1680 72                 7662 	ld	(hl),d
   1681 5F                 7663 	ld	e,a
   1682 1A                 7664 	ld	a,(de)
   1683 47                 7665 	ld	b,a
                           7666 ;	genCmpEq
                           7667 ; genCmpEq: left 1, right 1, result 0
   1684 79                 7668 	ld	a,c
   1685 B8                 7669 	cp	b
                           7670 ;	game.c 1128
                           7671 ;	genRet
                           7672 ;	genLabel
   1686 CA 8C 16           7673 	jp	z,00102$
   1689                    7674 00217$:
   1689 C3 E3 1F           7675 	jp	00179$
   168C                    7676 00102$:
                           7677 ;	game.c 1131
                           7678 ;	genPlus
                           7679 ;	AOP_STK for _move_character_sloc0_1_0
                           7680 ;	AOP_STK for _move_character_sloc2_1_0
                           7681 ;	genPlusIncr
                           7682 ;	Can't optimise plus by inc, falling back to the normal way
   168C F8 0D              7683 	lda	hl,13(sp)
   168E 5E                 7684 	ld	e,(hl)
   168F 23                 7685 	inc	hl
   1690 56                 7686 	ld	d,(hl)
   1691 21 09 00           7687 	ld	hl,#0x0009
   1694 19                 7688 	add	hl,de
   1695 7D                 7689 	ld	a,l
   1696 54                 7690 	ld	d,h
   1697 F8 09              7691 	lda	hl,9(sp)
                           7692 ;	genPointerGet
                           7693 ;	AOP_STK for _move_character_sloc2_1_0
   1699 22                 7694 	ld	(hl+),a
   169A 72                 7695 	ld	(hl),d
   169B 5F                 7696 	ld	e,a
   169C 1A                 7697 	ld	a,(de)
                           7698 ;	genCmpEq
                           7699 ; genCmpEq: left 1, right 1, result 0
   169D 4F                 7700 	ld	c,a
   169E B7                 7701 	or	a,a
   169F CA A9 1A           7702 	jp	z,00177$
   16A2                    7703 00218$:
                           7704 ;	game.c 1134
                           7705 ;	genCmpEq
                           7706 ; genCmpEq: left 1, right 1, result 0
   16A2 78                 7707 	ld	a,b
   16A3 FE 01              7708 	cp	a,#0x01
   16A5 C2 FF 19           7709 	jp	nz,00126$
   16A8 18 03              7710 	jr	00220$
   16AA                    7711 00219$:
   16AA C3 FF 19           7712 	jp	00126$
   16AD                    7713 00220$:
                           7714 ;	game.c 1136
                           7715 ;	genAssign
   16AD 0E 02              7716 	ld	c,#0x02
                           7717 ;	game.c 1139
                           7718 ;	genPlus
                           7719 ;	AOP_STK for _move_character_sloc0_1_0
                           7720 ;	AOP_STK for _move_character_sloc3_1_0
                           7721 ;	genPlusIncr
                           7722 ;	Can't optimise plus by inc, falling back to the normal way
   16AF F8 0D              7723 	lda	hl,13(sp)
   16B1 5E                 7724 	ld	e,(hl)
   16B2 23                 7725 	inc	hl
   16B3 56                 7726 	ld	d,(hl)
   16B4 21 0A 00           7727 	ld	hl,#0x000A
   16B7 19                 7728 	add	hl,de
   16B8 7D                 7729 	ld	a,l
   16B9 54                 7730 	ld	d,h
   16BA F8 07              7731 	lda	hl,7(sp)
                           7732 ;	genPointerGet
                           7733 ;	AOP_STK for _move_character_sloc3_1_0
                           7734 ;	AOP_STK for _move_character_sloc4_1_0
   16BC 22                 7735 	ld	(hl+),a
   16BD 72                 7736 	ld	(hl),d
   16BE 5F                 7737 	ld	e,a
   16BF 1A                 7738 	ld	a,(de)
   16C0 2B                 7739 	dec	hl
   16C1 2B                 7740 	dec	hl
                           7741 ;	genCmpEq
                           7742 ;	AOP_STK for _move_character_sloc4_1_0
                           7743 ; genCmpEq: left 1, right 1, result 0
   16C2 77                 7744 	ld      (hl),a
                           7745 ; Removed redundent load
   16C3 FE 04              7746 	cp	a,#0x04
   16C5 CA E5 16           7747 	jp	z,00105$
   16C8                    7748 00221$:
                           7749 ;	game.c 1140
                           7750 ;	genCmpEq
                           7751 ;	AOP_STK for _move_character_sloc4_1_0
                           7752 ; genCmpEq: left 1, right 1, result 0
   16C8 F8 06              7753 	lda	hl,6(sp)
   16CA 7E                 7754 	ld	a,(hl)
   16CB FE 08              7755 	cp	a,#0x08
   16CD CA E5 16           7756 	jp	z,00105$
   16D0                    7757 00222$:
                           7758 ;	game.c 1141
                           7759 ;	genCmpEq
                           7760 ;	AOP_STK for _move_character_sloc4_1_0
                           7761 ; genCmpEq: left 1, right 1, result 0
   16D0 F8 06              7762 	lda	hl,6(sp)
   16D2 7E                 7763 	ld	a,(hl)
   16D3 FE 0C              7764 	cp	a,#0x0C
   16D5 CA E5 16           7765 	jp	z,00105$
   16D8                    7766 00223$:
                           7767 ;	game.c 1142
                           7768 ;	genCmpEq
                           7769 ;	AOP_STK for _move_character_sloc4_1_0
                           7770 ; genCmpEq: left 1, right 1, result 0
   16D8 F8 06              7771 	lda	hl,6(sp)
   16DA 7E                 7772 	ld	a,(hl)
   16DB FE 10              7773 	cp	a,#0x10
   16DD C2 40 17           7774 	jp	nz,00106$
   16E0 18 03              7775 	jr	00225$
   16E2                    7776 00224$:
   16E2 C3 40 17           7777 	jp	00106$
   16E5                    7778 00225$:
                           7779 ;	genLabel
   16E5                    7780 00105$:
                           7781 ;	game.c 1144
                           7782 ;	genPlus
                           7783 ;	AOP_STK for _move_character_sloc0_1_0
                           7784 ;	AOP_STK for _move_character_sloc5_1_0
                           7785 ;	genPlusIncr
                           7786 ;	Can't optimise plus by inc, falling back to the normal way
   16E5 F8 0D              7787 	lda	hl,13(sp)
   16E7 5E                 7788 	ld	e,(hl)
   16E8 23                 7789 	inc	hl
   16E9 56                 7790 	ld	d,(hl)
   16EA 21 08 00           7791 	ld	hl,#0x0008
   16ED 19                 7792 	add	hl,de
   16EE 7D                 7793 	ld	a,l
   16EF 54                 7794 	ld	d,h
   16F0 F8 04              7795 	lda	hl,4(sp)
                           7796 ;	genPointerGet
                           7797 ;	AOP_STK for _move_character_sloc5_1_0
                           7798 ;	AOP_STK for _move_character_sloc4_1_0
   16F2 22                 7799 	ld	(hl+),a
   16F3 72                 7800 	ld	(hl),d
   16F4 5F                 7801 	ld	e,a
   16F5 1A                 7802 	ld	a,(de)
   16F6 23                 7803 	inc	hl
   16F7 77                 7804 	ld	(hl),a
                           7805 ;	genPlus
                           7806 ;	AOP_STK for _move_character_sloc0_1_0
                           7807 ;	AOP_STK for _move_character_sloc5_1_0
                           7808 ;	genPlusIncr
                           7809 ;	Can't optimise plus by inc, falling back to the normal way
   16F8 F8 0D              7810 	lda	hl,13(sp)
   16FA 5E                 7811 	ld	e,(hl)
   16FB 23                 7812 	inc	hl
   16FC 56                 7813 	ld	d,(hl)
   16FD 21 01 00           7814 	ld	hl,#0x0001
   1700 19                 7815 	add	hl,de
   1701 7D                 7816 	ld	a,l
   1702 54                 7817 	ld	d,h
   1703 F8 04              7818 	lda	hl,4(sp)
                           7819 ;	genPointerGet
                           7820 ;	AOP_STK for _move_character_sloc5_1_0
                           7821 ;	AOP_STK for _move_character_sloc6_1_0
   1705 22                 7822 	ld	(hl+),a
   1706 72                 7823 	ld	(hl),d
   1707 5F                 7824 	ld	e,a
   1708 1A                 7825 	ld	a,(de)
   1709 2B                 7826 	dec	hl
   170A 2B                 7827 	dec	hl
   170B 77                 7828 	ld	(hl),a
                           7829 ;	genPointerGet
                           7830 ;	AOP_STK for _move_character_sloc0_1_0
                           7831 ;	AOP_STK for _move_character_sloc5_1_0
   170C F8 0D              7832 	lda	hl,13(sp)
   170E 5E                 7833 	ld	e,(hl)
   170F 23                 7834 	inc	hl
   1710 56                 7835 	ld	d,(hl)
   1711 1A                 7836 	ld	a,(de)
   1712 F8 04              7837 	lda	hl,4(sp)
   1714 77                 7838 	ld	(hl),a
                           7839 ;	genIpush
                           7840 ; _saveRegsForCall: sendSetSize: 0 deInUse: 0 bcInUse: 1 deSending: 0
   1715 C5                 7841 	push	bc
                           7842 ;	AOP_STK for _move_character_sloc4_1_0
   1716 23                 7843 	inc	hl
   1717 23                 7844 	inc	hl
   1718 7E                 7845 	ld	a,(hl)
   1719 F5                 7846 	push	af
   171A 33                 7847 	inc	sp
                           7848 ;	genIpush
                           7849 ;	AOP_STK for _move_character_sloc6_1_0
   171B F8 06              7850 	lda	hl,6(sp)
   171D 7E                 7851 	ld	a,(hl)
   171E F5                 7852 	push	af
   171F 33                 7853 	inc	sp
                           7854 ;	genIpush
                           7855 ;	AOP_STK for _move_character_sloc5_1_0
   1720 23                 7856 	inc	hl
   1721 7E                 7857 	ld	a,(hl)
   1722 F5                 7858 	push	af
   1723 33                 7859 	inc	sp
                           7860 ;	genCall
   1724 CD CA 13           7861 	call	_can_move
                           7862 ;	AOP_STK for _move_character_sloc5_1_0
   1727 F8 0A              7863 	lda	hl,10(sp)
   1729 72                 7864 	ld	(hl),d
   172A 2B                 7865 	dec	hl
   172B 73                 7866 	ld	(hl),e
   172C E8 03              7867 	lda	sp,3(sp)
   172E C1                 7868 	pop	bc
                           7869 ;	genIfx
                           7870 ;	AOP_STK for _move_character_sloc5_1_0
   172F F8 04              7871 	lda	hl,4(sp)
   1731 2A                 7872 	ld	a,(hl+)
   1732 B6                 7873 	or	a,(hl)
   1733 C2 40 17           7874 	jp	nz,00106$
                           7875 ;	game.c 1145
                           7876 ;	genAssign (pointer)
                           7877 ;	AOP_STK for _move_character_sloc3_1_0
   1736 23                 7878 	inc	hl
   1737 23                 7879 	inc	hl
   1738 5E                 7880 	ld	e,(hl)
   1739 23                 7881 	inc	hl
   173A 56                 7882 	ld	d,(hl)
   173B 3E 01              7883 	ld	a,#0x01
   173D 12                 7884 	ld	(de),a
                           7885 ;	game.c 1147
                           7886 ;	genAssign
   173E 0E 00              7887 	ld	c,#0x00
                           7888 ;	genLabel
   1740                    7889 00106$:
                           7890 ;	game.c 1152
                           7891 ;	genPlus
                           7892 ;	AOP_STK for _move_character_sloc0_1_0
                           7893 ;	AOP_STK for _move_character_sloc5_1_0
                           7894 ;	genPlusIncr
                           7895 ;	Can't optimise plus by inc, falling back to the normal way
   1740 F8 0D              7896 	lda	hl,13(sp)
   1742 5E                 7897 	ld	e,(hl)
   1743 23                 7898 	inc	hl
   1744 56                 7899 	ld	d,(hl)
   1745 21 08 00           7900 	ld	hl,#0x0008
   1748 19                 7901 	add	hl,de
   1749 7D                 7902 	ld	a,l
   174A 54                 7903 	ld	d,h
   174B F8 04              7904 	lda	hl,4(sp)
                           7905 ;	genPointerGet
                           7906 ;	AOP_STK for _move_character_sloc5_1_0
                           7907 ;	AOP_STK for _move_character_sloc6_1_0
   174D 22                 7908 	ld	(hl+),a
   174E 72                 7909 	ld	(hl),d
   174F 5F                 7910 	ld	e,a
   1750 1A                 7911 	ld	a,(de)
   1751 2B                 7912 	dec	hl
   1752 2B                 7913 	dec	hl
   1753 77                 7914 	ld	(hl),a
                           7915 ;	genCmpGt
                           7916 ;	AOP_STK for _move_character_sloc6_1_0
                           7917 ;	AOP_STK for _move_character_sloc5_1_0
   1754 3E 04              7918 	ld	a,#0x04
   1756 96                 7919 	sub	a,(hl)
   1757 3E 00              7920 	ld	a,#0x00
   1759 17                 7921 	rla
   175A 23                 7922 	inc	hl
   175B 77                 7923 	ld	(hl),a
                           7924 ;	genIfx
                           7925 ;	AOP_STK for _move_character_sloc5_1_0
   175C AF                 7926 	xor	a,a
   175D B6                 7927 	or	a,(hl)
   175E C2 C9 18           7928 	jp	nz,00115$
                           7929 ;	genJumpTab
                           7930 ;	AOP_STK for _move_character_sloc6_1_0
   1761 2B                 7931 	dec	hl
   1762 5E                 7932 	ld	e,(hl)
   1763 16 00              7933 	ld	d,#0x00
   1765 21 6C 17           7934 	ld	hl,#00226$
   1768 19                 7935 	add	hl,de
   1769 19                 7936 	add	hl,de
   176A 19                 7937 	add	hl,de
   176B E9                 7938 	jp	(hl)
   176C                    7939 00226$:
   176C C3 C3 18           7940 	jp	00114$
   176F C3 15 18           7941 	jp	00112$
   1772 C3 CB 17           7942 	jp	00111$
   1775 C3 6F 18           7943 	jp	00113$
   1778 C3 7B 17           7944 	jp	00110$
                           7945 ;	game.c 1154
                           7946 ;	genLabel
   177B                    7947 00110$:
                           7948 ;	genPointerGet
                           7949 ;	AOP_STK for _move_character_sloc0_1_0
                           7950 ;	AOP_STK for _move_character_sloc4_1_0
   177B F8 0D              7951 	lda	hl,13(sp)
   177D 5E                 7952 	ld	e,(hl)
   177E 23                 7953 	inc	hl
   177F 56                 7954 	ld	d,(hl)
   1780 1A                 7955 	ld	a,(de)
   1781 F8 06              7956 	lda	hl,6(sp)
                           7957 ;	genMinus
                           7958 ;	AOP_STK for _move_character_sloc4_1_0
                           7959 ;	AOP_STK for _move_character_sloc7_1_0
   1783 77                 7960 	ld      (hl),a
                           7961 ; Removed redundent load
   1784 91                 7962 	sub	a,c
   1785 F8 02              7963 	lda	hl,2(sp)
   1787 77                 7964 	ld	(hl),a
                           7965 ;	genAssign (pointer)
                           7966 ;	AOP_STK for _move_character_sloc0_1_0
                           7967 ;	AOP_STK for _move_character_sloc7_1_0
   1788 F8 0D              7968 	lda	hl,13(sp)
   178A 5E                 7969 	ld	e,(hl)
   178B 23                 7970 	inc	hl
   178C 56                 7971 	ld	d,(hl)
   178D F8 02              7972 	lda	hl,2(sp)
   178F 7E                 7973 	ld	a,(hl)
   1790 12                 7974 	ld	(de),a
                           7975 ;	game.c 1155
                           7976 ;	genPlus
                           7977 ;	AOP_STK for _move_character_sloc0_1_0
                           7978 ;	AOP_STK for _move_character_sloc8_1_0
                           7979 ;	genPlusIncr
                           7980 ;	Can't optimise plus by inc, falling back to the normal way
   1791 F8 0D              7981 	lda	hl,13(sp)
   1793 5E                 7982 	ld	e,(hl)
   1794 23                 7983 	inc	hl
   1795 56                 7984 	ld	d,(hl)
   1796 21 04 00           7985 	ld	hl,#0x0004
   1799 19                 7986 	add	hl,de
   179A 7D                 7987 	ld	a,l
   179B 54                 7988 	ld	d,h
   179C F8 00              7989 	lda	hl,0(sp)
                           7990 ;	genPointerGet
                           7991 ;	AOP_STK for _move_character_sloc8_1_0
                           7992 ;	AOP_STK for _move_character_sloc7_1_0
   179E 22                 7993 	ld	(hl+),a
   179F 72                 7994 	ld	(hl),d
   17A0 5F                 7995 	ld	e,a
   17A1 1A                 7996 	ld	a,(de)
   17A2 23                 7997 	inc	hl
   17A3 77                 7998 	ld	(hl),a
                           7999 ;	genIpush
                           8000 ; _saveRegsForCall: sendSetSize: 0 deInUse: 0 bcInUse: 1 deSending: 0
   17A4 C5                 8001 	push	bc
                           8002 ;	AOP_STK for _move_character_sloc7_1_0
   17A5 7E                 8003 	ld	a,(hl)
   17A6 F5                 8004 	push	af
   17A7 33                 8005 	inc	sp
                           8006 ;	genIpush
   17A8 78                 8007 	ld	a,b
   17A9 F5                 8008 	push	af
   17AA 33                 8009 	inc	sp
                           8010 ;	genCall
   17AB CD 00 00           8011 	call	_set_sprite_tile
   17AE E8 02              8012 	lda	sp,2(sp)
   17B0 C1                 8013 	pop	bc
                           8014 ;	game.c 1156
                           8015 ;	genPointerGet
                           8016 ;	AOP_STK for _move_character_sloc1_1_0
                           8017 ;	AOP_STK for _move_character_sloc8_1_0
   17B1 F8 0B              8018 	lda	hl,11(sp)
   17B3 5E                 8019 	ld	e,(hl)
   17B4 23                 8020 	inc	hl
   17B5 56                 8021 	ld	d,(hl)
   17B6 1A                 8022 	ld	a,(de)
   17B7 F8 00              8023 	lda	hl,0(sp)
   17B9 77                 8024 	ld	(hl),a
                           8025 ;	genIpush
                           8026 ; _saveRegsForCall: sendSetSize: 0 deInUse: 0 bcInUse: 1 deSending: 0
   17BA C5                 8027 	push	bc
   17BB 3E 20              8028 	ld	a,#0x20
   17BD F5                 8029 	push	af
   17BE 33                 8030 	inc	sp
                           8031 ;	genIpush
                           8032 ;	AOP_STK for _move_character_sloc8_1_0
   17BF 7E                 8033 	ld	a,(hl)
   17C0 F5                 8034 	push	af
   17C1 33                 8035 	inc	sp
                           8036 ;	genCall
   17C2 CD 00 00           8037 	call	_set_sprite_prop
   17C5 E8 02              8038 	lda	sp,2(sp)
   17C7 C1                 8039 	pop	bc
                           8040 ;	game.c 1157
                           8041 ;	genGoto
   17C8 C3 C9 18           8042 	jp	00115$
                           8043 ;	game.c 1159
                           8044 ;	genLabel
   17CB                    8045 00111$:
                           8046 ;	genPlus
                           8047 ;	AOP_STK for _move_character_sloc0_1_0
                           8048 ;	AOP_STK for _move_character_sloc8_1_0
                           8049 ;	genPlusIncr
                           8050 ;	Can't optimise plus by inc, falling back to the normal way
   17CB F8 0D              8051 	lda	hl,13(sp)
   17CD 5E                 8052 	ld	e,(hl)
   17CE 23                 8053 	inc	hl
   17CF 56                 8054 	ld	d,(hl)
   17D0 21 04 00           8055 	ld	hl,#0x0004
   17D3 19                 8056 	add	hl,de
   17D4 7D                 8057 	ld	a,l
   17D5 54                 8058 	ld	d,h
   17D6 F8 00              8059 	lda	hl,0(sp)
                           8060 ;	genPointerGet
                           8061 ;	AOP_STK for _move_character_sloc8_1_0
                           8062 ;	AOP_STK for _move_character_sloc7_1_0
   17D8 22                 8063 	ld	(hl+),a
   17D9 72                 8064 	ld	(hl),d
   17DA 5F                 8065 	ld	e,a
   17DB 1A                 8066 	ld	a,(de)
   17DC 23                 8067 	inc	hl
   17DD 77                 8068 	ld	(hl),a
                           8069 ;	genIpush
                           8070 ; _saveRegsForCall: sendSetSize: 0 deInUse: 0 bcInUse: 1 deSending: 0
   17DE C5                 8071 	push	bc
                           8072 ;	AOP_STK for _move_character_sloc7_1_0
   17DF 7E                 8073 	ld	a,(hl)
   17E0 F5                 8074 	push	af
   17E1 33                 8075 	inc	sp
                           8076 ;	genIpush
   17E2 78                 8077 	ld	a,b
   17E3 F5                 8078 	push	af
   17E4 33                 8079 	inc	sp
                           8080 ;	genCall
   17E5 CD 00 00           8081 	call	_set_sprite_tile
   17E8 E8 02              8082 	lda	sp,2(sp)
   17EA C1                 8083 	pop	bc
                           8084 ;	game.c 1160
                           8085 ;	genPointerGet
                           8086 ;	AOP_STK for _move_character_sloc1_1_0
                           8087 ;	AOP_STK for _move_character_sloc8_1_0
   17EB F8 0B              8088 	lda	hl,11(sp)
   17ED 5E                 8089 	ld	e,(hl)
   17EE 23                 8090 	inc	hl
   17EF 56                 8091 	ld	d,(hl)
   17F0 1A                 8092 	ld	a,(de)
   17F1 F8 00              8093 	lda	hl,0(sp)
   17F3 77                 8094 	ld	(hl),a
                           8095 ;	genIpush
                           8096 ; _saveRegsForCall: sendSetSize: 0 deInUse: 0 bcInUse: 1 deSending: 0
   17F4 C5                 8097 	push	bc
   17F5 3E 00              8098 	ld	a,#0x00
   17F7 F5                 8099 	push	af
   17F8 33                 8100 	inc	sp
                           8101 ;	genIpush
                           8102 ;	AOP_STK for _move_character_sloc8_1_0
   17F9 7E                 8103 	ld	a,(hl)
   17FA F5                 8104 	push	af
   17FB 33                 8105 	inc	sp
                           8106 ;	genCall
   17FC CD 00 00           8107 	call	_set_sprite_prop
   17FF E8 02              8108 	lda	sp,2(sp)
   1801 C1                 8109 	pop	bc
                           8110 ;	game.c 1161
                           8111 ;	genPointerGet
                           8112 ;	AOP_STK for _move_character_sloc0_1_0
                           8113 ;	AOP_STK for _move_character_sloc8_1_0
   1802 F8 0D              8114 	lda	hl,13(sp)
   1804 5E                 8115 	ld	e,(hl)
   1805 23                 8116 	inc	hl
   1806 56                 8117 	ld	d,(hl)
   1807 1A                 8118 	ld	a,(de)
   1808 F8 00              8119 	lda	hl,0(sp)
                           8120 ;	genPlus
                           8121 ;	AOP_STK for _move_character_sloc8_1_0
                           8122 ;	Can't optimise plus by inc, falling back to the normal way
   180A 77                 8123 	ld      (hl),a
                           8124 ; Removed redundent load
   180B 81                 8125 	add	a,c
                           8126 ;	genAssign (pointer)
                           8127 ;	AOP_STK for _move_character_sloc0_1_0
   180C F8 0D              8128 	lda	hl,13(sp)
   180E 5E                 8129 	ld	e,(hl)
   180F 23                 8130 	inc	hl
   1810 56                 8131 	ld	d,(hl)
   1811 12                 8132 	ld	(de),a
                           8133 ;	game.c 1162
                           8134 ;	genGoto
   1812 C3 C9 18           8135 	jp	00115$
                           8136 ;	game.c 1164
                           8137 ;	genLabel
   1815                    8138 00112$:
                           8139 ;	genPlus
                           8140 ;	AOP_STK for _move_character_sloc0_1_0
                           8141 ;	AOP_STK for _move_character_sloc8_1_0
                           8142 ;	genPlusIncr
                           8143 ;	Can't optimise plus by inc, falling back to the normal way
   1815 F8 0D              8144 	lda	hl,13(sp)
   1817 5E                 8145 	ld	e,(hl)
   1818 23                 8146 	inc	hl
   1819 56                 8147 	ld	d,(hl)
   181A 21 07 00           8148 	ld	hl,#0x0007
   181D 19                 8149 	add	hl,de
   181E 7D                 8150 	ld	a,l
   181F 54                 8151 	ld	d,h
   1820 F8 00              8152 	lda	hl,0(sp)
                           8153 ;	genPointerGet
                           8154 ;	AOP_STK for _move_character_sloc8_1_0
                           8155 ;	AOP_STK for _move_character_sloc7_1_0
   1822 22                 8156 	ld	(hl+),a
   1823 72                 8157 	ld	(hl),d
   1824 5F                 8158 	ld	e,a
   1825 1A                 8159 	ld	a,(de)
   1826 23                 8160 	inc	hl
   1827 77                 8161 	ld	(hl),a
                           8162 ;	genIpush
                           8163 ; _saveRegsForCall: sendSetSize: 0 deInUse: 0 bcInUse: 1 deSending: 0
   1828 C5                 8164 	push	bc
                           8165 ;	AOP_STK for _move_character_sloc7_1_0
   1829 7E                 8166 	ld	a,(hl)
   182A F5                 8167 	push	af
   182B 33                 8168 	inc	sp
                           8169 ;	genIpush
   182C 78                 8170 	ld	a,b
   182D F5                 8171 	push	af
   182E 33                 8172 	inc	sp
                           8173 ;	genCall
   182F CD 00 00           8174 	call	_set_sprite_tile
   1832 E8 02              8175 	lda	sp,2(sp)
   1834 C1                 8176 	pop	bc
                           8177 ;	game.c 1165
                           8178 ;	genPointerGet
                           8179 ;	AOP_STK for _move_character_sloc1_1_0
                           8180 ;	AOP_STK for _move_character_sloc8_1_0
   1835 F8 0B              8181 	lda	hl,11(sp)
   1837 5E                 8182 	ld	e,(hl)
   1838 23                 8183 	inc	hl
   1839 56                 8184 	ld	d,(hl)
   183A 1A                 8185 	ld	a,(de)
   183B F8 00              8186 	lda	hl,0(sp)
   183D 77                 8187 	ld	(hl),a
                           8188 ;	genIpush
                           8189 ; _saveRegsForCall: sendSetSize: 0 deInUse: 0 bcInUse: 1 deSending: 0
   183E C5                 8190 	push	bc
   183F 3E 20              8191 	ld	a,#0x20
   1841 F5                 8192 	push	af
   1842 33                 8193 	inc	sp
                           8194 ;	genIpush
                           8195 ;	AOP_STK for _move_character_sloc8_1_0
   1843 7E                 8196 	ld	a,(hl)
   1844 F5                 8197 	push	af
   1845 33                 8198 	inc	sp
                           8199 ;	genCall
   1846 CD 00 00           8200 	call	_set_sprite_prop
   1849 E8 02              8201 	lda	sp,2(sp)
   184B C1                 8202 	pop	bc
                           8203 ;	game.c 1166
                           8204 ;	genPlus
                           8205 ;	AOP_STK for _move_character_sloc0_1_0
                           8206 ;	AOP_STK for _move_character_sloc8_1_0
                           8207 ;	genPlusIncr
                           8208 ;	Can't optimise plus by inc, falling back to the normal way
   184C F8 0D              8209 	lda	hl,13(sp)
   184E 5E                 8210 	ld	e,(hl)
   184F 23                 8211 	inc	hl
   1850 56                 8212 	ld	d,(hl)
   1851 21 01 00           8213 	ld	hl,#0x0001
   1854 19                 8214 	add	hl,de
   1855 7D                 8215 	ld	a,l
   1856 54                 8216 	ld	d,h
   1857 F8 00              8217 	lda	hl,0(sp)
                           8218 ;	genPointerGet
                           8219 ;	AOP_STK for _move_character_sloc8_1_0
                           8220 ;	AOP_STK for _move_character_sloc7_1_0
   1859 22                 8221 	ld	(hl+),a
   185A 72                 8222 	ld	(hl),d
   185B 5F                 8223 	ld	e,a
   185C 1A                 8224 	ld	a,(de)
   185D 23                 8225 	inc	hl
                           8226 ;	genMinus
                           8227 ;	AOP_STK for _move_character_sloc7_1_0
                           8228 ;	AOP_STK for _move_character_sloc4_1_0
   185E 77                 8229 	ld      (hl),a
                           8230 ; Removed redundent load
   185F 91                 8231 	sub	a,c
   1860 F8 06              8232 	lda	hl,6(sp)
   1862 77                 8233 	ld	(hl),a
                           8234 ;	genAssign (pointer)
                           8235 ;	AOP_STK for _move_character_sloc8_1_0
                           8236 ;	AOP_STK for _move_character_sloc4_1_0
   1863 F8 00              8237 	lda	hl,0(sp)
   1865 5E                 8238 	ld	e,(hl)
   1866 23                 8239 	inc	hl
   1867 56                 8240 	ld	d,(hl)
   1868 F8 06              8241 	lda	hl,6(sp)
   186A 7E                 8242 	ld	a,(hl)
   186B 12                 8243 	ld	(de),a
                           8244 ;	game.c 1167
                           8245 ;	genGoto
   186C C3 C9 18           8246 	jp	00115$
                           8247 ;	game.c 1169
                           8248 ;	genLabel
   186F                    8249 00113$:
                           8250 ;	genPlus
                           8251 ;	AOP_STK for _move_character_sloc0_1_0
                           8252 ;	AOP_STK for _move_character_sloc8_1_0
                           8253 ;	genPlusIncr
                           8254 ;	Can't optimise plus by inc, falling back to the normal way
   186F F8 0D              8255 	lda	hl,13(sp)
   1871 5E                 8256 	ld	e,(hl)
   1872 23                 8257 	inc	hl
   1873 56                 8258 	ld	d,(hl)
   1874 21 07 00           8259 	ld	hl,#0x0007
   1877 19                 8260 	add	hl,de
   1878 7D                 8261 	ld	a,l
   1879 54                 8262 	ld	d,h
   187A F8 00              8263 	lda	hl,0(sp)
                           8264 ;	genPointerGet
                           8265 ;	AOP_STK for _move_character_sloc8_1_0
                           8266 ;	AOP_STK for _move_character_sloc7_1_0
   187C 22                 8267 	ld	(hl+),a
   187D 72                 8268 	ld	(hl),d
   187E 5F                 8269 	ld	e,a
   187F 1A                 8270 	ld	a,(de)
   1880 23                 8271 	inc	hl
   1881 77                 8272 	ld	(hl),a
                           8273 ;	genIpush
                           8274 ; _saveRegsForCall: sendSetSize: 0 deInUse: 0 bcInUse: 1 deSending: 0
   1882 C5                 8275 	push	bc
                           8276 ;	AOP_STK for _move_character_sloc7_1_0
   1883 7E                 8277 	ld	a,(hl)
   1884 F5                 8278 	push	af
   1885 33                 8279 	inc	sp
                           8280 ;	genIpush
   1886 78                 8281 	ld	a,b
   1887 F5                 8282 	push	af
   1888 33                 8283 	inc	sp
                           8284 ;	genCall
   1889 CD 00 00           8285 	call	_set_sprite_tile
   188C E8 02              8286 	lda	sp,2(sp)
   188E C1                 8287 	pop	bc
                           8288 ;	game.c 1170
                           8289 ;	genPointerGet
                           8290 ;	AOP_STK for _move_character_sloc1_1_0
                           8291 ;	AOP_STK for _move_character_sloc8_1_0
   188F F8 0B              8292 	lda	hl,11(sp)
   1891 5E                 8293 	ld	e,(hl)
   1892 23                 8294 	inc	hl
   1893 56                 8295 	ld	d,(hl)
   1894 1A                 8296 	ld	a,(de)
   1895 F8 00              8297 	lda	hl,0(sp)
   1897 77                 8298 	ld	(hl),a
                           8299 ;	genIpush
                           8300 ; _saveRegsForCall: sendSetSize: 0 deInUse: 0 bcInUse: 1 deSending: 0
   1898 C5                 8301 	push	bc
   1899 3E 40              8302 	ld	a,#0x40
   189B F5                 8303 	push	af
   189C 33                 8304 	inc	sp
                           8305 ;	genIpush
                           8306 ;	AOP_STK for _move_character_sloc8_1_0
   189D 7E                 8307 	ld	a,(hl)
   189E F5                 8308 	push	af
   189F 33                 8309 	inc	sp
                           8310 ;	genCall
   18A0 CD 00 00           8311 	call	_set_sprite_prop
   18A3 E8 02              8312 	lda	sp,2(sp)
   18A5 C1                 8313 	pop	bc
                           8314 ;	game.c 1171
                           8315 ;	genPlus
                           8316 ;	AOP_STK for _move_character_sloc0_1_0
                           8317 ;	AOP_STK for _move_character_sloc8_1_0
                           8318 ;	genPlusIncr
                           8319 ;	Can't optimise plus by inc, falling back to the normal way
   18A6 F8 0D              8320 	lda	hl,13(sp)
   18A8 5E                 8321 	ld	e,(hl)
   18A9 23                 8322 	inc	hl
   18AA 56                 8323 	ld	d,(hl)
   18AB 21 01 00           8324 	ld	hl,#0x0001
   18AE 19                 8325 	add	hl,de
   18AF 7D                 8326 	ld	a,l
   18B0 54                 8327 	ld	d,h
   18B1 F8 00              8328 	lda	hl,0(sp)
                           8329 ;	genPointerGet
                           8330 ;	AOP_STK for _move_character_sloc8_1_0
                           8331 ;	AOP_STK for _move_character_sloc7_1_0
   18B3 22                 8332 	ld	(hl+),a
   18B4 72                 8333 	ld	(hl),d
   18B5 5F                 8334 	ld	e,a
   18B6 1A                 8335 	ld	a,(de)
   18B7 23                 8336 	inc	hl
                           8337 ;	genPlus
                           8338 ;	AOP_STK for _move_character_sloc7_1_0
                           8339 ;	Can't optimise plus by inc, falling back to the normal way
   18B8 77                 8340 	ld      (hl),a
                           8341 ; Removed redundent load
   18B9 81                 8342 	add	a,c
                           8343 ;	genAssign (pointer)
                           8344 ;	AOP_STK for _move_character_sloc8_1_0
   18BA 2B                 8345 	dec	hl
   18BB 2B                 8346 	dec	hl
   18BC 5E                 8347 	ld	e,(hl)
   18BD 23                 8348 	inc	hl
   18BE 56                 8349 	ld	d,(hl)
   18BF 12                 8350 	ld	(de),a
                           8351 ;	game.c 1172
                           8352 ;	genGoto
   18C0 C3 C9 18           8353 	jp	00115$
                           8354 ;	game.c 1174
                           8355 ;	genLabel
   18C3                    8356 00114$:
                           8357 ;	genCall
                           8358 ; _saveRegsForCall: sendSetSize: 0 deInUse: 0 bcInUse: 1 deSending: 0
   18C3 C5                 8359 	push	bc
   18C4 CD B3 14           8360 	call	_rotate_player
   18C7 E1                 8361 	pop	hl
   18C8 44                 8362 	ld	b,h
                           8363 ;	game.c 1176
                           8364 ;	genLabel
   18C9                    8365 00115$:
                           8366 ;	game.c 1178
                           8367 ;	genPointerGet
                           8368 ;	AOP_STK for _move_character_sloc3_1_0
   18C9 F8 07              8369 	lda	hl,7(sp)
   18CB 5E                 8370 	ld	e,(hl)
   18CC 23                 8371 	inc	hl
   18CD 56                 8372 	ld	d,(hl)
   18CE 1A                 8373 	ld	a,(de)
   18CF 4F                 8374 	ld	c,a
                           8375 ;	genMinus
   18D0 0D                 8376 	dec	c
                           8377 ;	genAssign (pointer)
                           8378 ;	AOP_STK for _move_character_sloc3_1_0
   18D1 2B                 8379 	dec	hl
   18D2 5E                 8380 	ld	e,(hl)
   18D3 23                 8381 	inc	hl
   18D4 56                 8382 	ld	d,(hl)
   18D5 79                 8383 	ld	a,c
   18D6 12                 8384 	ld	(de),a
                           8385 ;	game.c 1179
                           8386 ;	genCmpEq
                           8387 ; genCmpEq: left 1, right 1, result 0
   18D7 79                 8388 	ld	a,c
   18D8 B7                 8389 	or	a,a
   18D9 C2 F3 19           8390 	jp	nz,00122$
   18DC 18 03              8391 	jr	00228$
   18DE                    8392 00227$:
   18DE C3 F3 19           8393 	jp	00122$
   18E1                    8394 00228$:
                           8395 ;	game.c 1180
                           8396 ;	genAssign (pointer)
                           8397 ;	AOP_STK for _move_character_sloc2_1_0
   18E1 F8 09              8398 	lda	hl,9(sp)
   18E3 5E                 8399 	ld	e,(hl)
   18E4 23                 8400 	inc	hl
   18E5 56                 8401 	ld	d,(hl)
   18E6 3E 00              8402 	ld	a,#0x00
   18E8 12                 8403 	ld	(de),a
                           8404 ;	game.c 1181
                           8405 ;	genCmpLt
                           8406 ;	AOP_STK for _move_character_sloc6_1_0
   18E9 F8 03              8407 	lda	hl,3(sp)
   18EB 7E                 8408 	ld	a,(hl)
   18EC FE 01              8409 	cp	#0x01
   18EE DA F3 19           8410 	jp	c,00122$
                           8411 ;	genIfx
                           8412 ;	AOP_STK for _move_character_sloc5_1_0
   18F1 AF                 8413 	xor	a,a
   18F2 23                 8414 	inc	hl
   18F3 B6                 8415 	or	a,(hl)
   18F4 C2 F3 19           8416 	jp	nz,00122$
                           8417 ;	genMinus
                           8418 ;	AOP_STK for _move_character_sloc6_1_0
   18F7 2B                 8419 	dec	hl
   18F8 7E                 8420 	ld	a,(hl)
   18F9 C6 FF              8421 	add	a,#0xFF
   18FB 4F                 8422 	ld	c,a
                           8423 ;	genJumpTab
   18FC 59                 8424 	ld	e,c
   18FD 16 00              8425 	ld	d,#0x00
   18FF 21 06 19           8426 	ld	hl,#00229$
   1902 19                 8427 	add	hl,de
   1903 19                 8428 	add	hl,de
   1904 19                 8429 	add	hl,de
   1905 E9                 8430 	jp	(hl)
   1906                    8431 00229$:
   1906 C3 84 19           8432 	jp	00118$
   1909 C3 4B 19           8433 	jp	00117$
   190C C3 BD 19           8434 	jp	00119$
   190F C3 12 19           8435 	jp	00116$
                           8436 ;	game.c 1184
                           8437 ;	genLabel
   1912                    8438 00116$:
                           8439 ;	genPlus
                           8440 ;	AOP_STK for _move_character_sloc0_1_0
                           8441 ;	AOP_STK for _move_character_sloc8_1_0
                           8442 ;	genPlusIncr
                           8443 ;	Can't optimise plus by inc, falling back to the normal way
   1912 F8 0D              8444 	lda	hl,13(sp)
   1914 5E                 8445 	ld	e,(hl)
   1915 23                 8446 	inc	hl
   1916 56                 8447 	ld	d,(hl)
   1917 21 02 00           8448 	ld	hl,#0x0002
   191A 19                 8449 	add	hl,de
   191B 7D                 8450 	ld	a,l
   191C 54                 8451 	ld	d,h
   191D F8 00              8452 	lda	hl,0(sp)
                           8453 ;	genPointerGet
                           8454 ;	AOP_STK for _move_character_sloc8_1_0
   191F 22                 8455 	ld	(hl+),a
   1920 72                 8456 	ld	(hl),d
   1921 5F                 8457 	ld	e,a
   1922 1A                 8458 	ld	a,(de)
   1923 4F                 8459 	ld	c,a
                           8460 ;	genIpush
                           8461 ; _saveRegsForCall: sendSetSize: 0 deInUse: 0 bcInUse: 1 deSending: 0
   1924 C5                 8462 	push	bc
   1925 79                 8463 	ld	a,c
   1926 F5                 8464 	push	af
   1927 33                 8465 	inc	sp
                           8466 ;	genIpush
   1928 78                 8467 	ld	a,b
   1929 F5                 8468 	push	af
   192A 33                 8469 	inc	sp
                           8470 ;	genCall
   192B CD 00 00           8471 	call	_set_sprite_tile
   192E E8 02              8472 	lda	sp,2(sp)
   1930 E1                 8473 	pop	hl
   1931 44                 8474 	ld	b,h
                           8475 ;	game.c 1185
                           8476 ;	genPointerGet
                           8477 ;	AOP_STK for _move_character_sloc1_1_0
   1932 F8 0B              8478 	lda	hl,11(sp)
   1934 5E                 8479 	ld	e,(hl)
   1935 23                 8480 	inc	hl
   1936 56                 8481 	ld	d,(hl)
   1937 1A                 8482 	ld	a,(de)
   1938 4F                 8483 	ld	c,a
                           8484 ;	genIpush
                           8485 ; _saveRegsForCall: sendSetSize: 0 deInUse: 0 bcInUse: 1 deSending: 0
   1939 C5                 8486 	push	bc
   193A 3E 20              8487 	ld	a,#0x20
   193C F5                 8488 	push	af
   193D 33                 8489 	inc	sp
                           8490 ;	genIpush
   193E 79                 8491 	ld	a,c
   193F F5                 8492 	push	af
   1940 33                 8493 	inc	sp
                           8494 ;	genCall
   1941 CD 00 00           8495 	call	_set_sprite_prop
   1944 E8 02              8496 	lda	sp,2(sp)
   1946 E1                 8497 	pop	hl
   1947 44                 8498 	ld	b,h
                           8499 ;	game.c 1186
                           8500 ;	genGoto
   1948 C3 F3 19           8501 	jp	00122$
                           8502 ;	game.c 1189
                           8503 ;	genLabel
   194B                    8504 00117$:
                           8505 ;	genPlus
                           8506 ;	AOP_STK for _move_character_sloc0_1_0
                           8507 ;	AOP_STK for _move_character_sloc8_1_0
                           8508 ;	genPlusIncr
                           8509 ;	Can't optimise plus by inc, falling back to the normal way
   194B F8 0D              8510 	lda	hl,13(sp)
   194D 5E                 8511 	ld	e,(hl)
   194E 23                 8512 	inc	hl
   194F 56                 8513 	ld	d,(hl)
   1950 21 02 00           8514 	ld	hl,#0x0002
   1953 19                 8515 	add	hl,de
   1954 7D                 8516 	ld	a,l
   1955 54                 8517 	ld	d,h
   1956 F8 00              8518 	lda	hl,0(sp)
                           8519 ;	genPointerGet
                           8520 ;	AOP_STK for _move_character_sloc8_1_0
   1958 22                 8521 	ld	(hl+),a
   1959 72                 8522 	ld	(hl),d
   195A 5F                 8523 	ld	e,a
   195B 1A                 8524 	ld	a,(de)
   195C 4F                 8525 	ld	c,a
                           8526 ;	genIpush
                           8527 ; _saveRegsForCall: sendSetSize: 0 deInUse: 0 bcInUse: 1 deSending: 0
   195D C5                 8528 	push	bc
   195E 79                 8529 	ld	a,c
   195F F5                 8530 	push	af
   1960 33                 8531 	inc	sp
                           8532 ;	genIpush
   1961 78                 8533 	ld	a,b
   1962 F5                 8534 	push	af
   1963 33                 8535 	inc	sp
                           8536 ;	genCall
   1964 CD 00 00           8537 	call	_set_sprite_tile
   1967 E8 02              8538 	lda	sp,2(sp)
   1969 E1                 8539 	pop	hl
   196A 44                 8540 	ld	b,h
                           8541 ;	game.c 1190
                           8542 ;	genPointerGet
                           8543 ;	AOP_STK for _move_character_sloc1_1_0
   196B F8 0B              8544 	lda	hl,11(sp)
   196D 5E                 8545 	ld	e,(hl)
   196E 23                 8546 	inc	hl
   196F 56                 8547 	ld	d,(hl)
   1970 1A                 8548 	ld	a,(de)
   1971 4F                 8549 	ld	c,a
                           8550 ;	genIpush
                           8551 ; _saveRegsForCall: sendSetSize: 0 deInUse: 0 bcInUse: 1 deSending: 0
   1972 C5                 8552 	push	bc
   1973 3E 00              8553 	ld	a,#0x00
   1975 F5                 8554 	push	af
   1976 33                 8555 	inc	sp
                           8556 ;	genIpush
   1977 79                 8557 	ld	a,c
   1978 F5                 8558 	push	af
   1979 33                 8559 	inc	sp
                           8560 ;	genCall
   197A CD 00 00           8561 	call	_set_sprite_prop
   197D E8 02              8562 	lda	sp,2(sp)
   197F E1                 8563 	pop	hl
   1980 44                 8564 	ld	b,h
                           8565 ;	game.c 1191
                           8566 ;	genGoto
   1981 C3 F3 19           8567 	jp	00122$
                           8568 ;	game.c 1193
                           8569 ;	genLabel
   1984                    8570 00118$:
                           8571 ;	genPlus
                           8572 ;	AOP_STK for _move_character_sloc0_1_0
                           8573 ;	AOP_STK for _move_character_sloc8_1_0
                           8574 ;	genPlusIncr
                           8575 ;	Can't optimise plus by inc, falling back to the normal way
   1984 F8 0D              8576 	lda	hl,13(sp)
   1986 5E                 8577 	ld	e,(hl)
   1987 23                 8578 	inc	hl
   1988 56                 8579 	ld	d,(hl)
   1989 21 05 00           8580 	ld	hl,#0x0005
   198C 19                 8581 	add	hl,de
   198D 7D                 8582 	ld	a,l
   198E 54                 8583 	ld	d,h
   198F F8 00              8584 	lda	hl,0(sp)
                           8585 ;	genPointerGet
                           8586 ;	AOP_STK for _move_character_sloc8_1_0
   1991 22                 8587 	ld	(hl+),a
   1992 72                 8588 	ld	(hl),d
   1993 5F                 8589 	ld	e,a
   1994 1A                 8590 	ld	a,(de)
   1995 4F                 8591 	ld	c,a
                           8592 ;	genIpush
                           8593 ; _saveRegsForCall: sendSetSize: 0 deInUse: 0 bcInUse: 1 deSending: 0
   1996 C5                 8594 	push	bc
   1997 79                 8595 	ld	a,c
   1998 F5                 8596 	push	af
   1999 33                 8597 	inc	sp
                           8598 ;	genIpush
   199A 78                 8599 	ld	a,b
   199B F5                 8600 	push	af
   199C 33                 8601 	inc	sp
                           8602 ;	genCall
   199D CD 00 00           8603 	call	_set_sprite_tile
   19A0 E8 02              8604 	lda	sp,2(sp)
   19A2 E1                 8605 	pop	hl
   19A3 44                 8606 	ld	b,h
                           8607 ;	game.c 1194
                           8608 ;	genPointerGet
                           8609 ;	AOP_STK for _move_character_sloc1_1_0
   19A4 F8 0B              8610 	lda	hl,11(sp)
   19A6 5E                 8611 	ld	e,(hl)
   19A7 23                 8612 	inc	hl
   19A8 56                 8613 	ld	d,(hl)
   19A9 1A                 8614 	ld	a,(de)
   19AA 4F                 8615 	ld	c,a
                           8616 ;	genIpush
                           8617 ; _saveRegsForCall: sendSetSize: 0 deInUse: 0 bcInUse: 1 deSending: 0
   19AB C5                 8618 	push	bc
   19AC 3E 20              8619 	ld	a,#0x20
   19AE F5                 8620 	push	af
   19AF 33                 8621 	inc	sp
                           8622 ;	genIpush
   19B0 79                 8623 	ld	a,c
   19B1 F5                 8624 	push	af
   19B2 33                 8625 	inc	sp
                           8626 ;	genCall
   19B3 CD 00 00           8627 	call	_set_sprite_prop
   19B6 E8 02              8628 	lda	sp,2(sp)
   19B8 E1                 8629 	pop	hl
   19B9 44                 8630 	ld	b,h
                           8631 ;	game.c 1195
                           8632 ;	genGoto
   19BA C3 F3 19           8633 	jp	00122$
                           8634 ;	game.c 1197
                           8635 ;	genLabel
   19BD                    8636 00119$:
                           8637 ;	genPlus
                           8638 ;	AOP_STK for _move_character_sloc0_1_0
                           8639 ;	AOP_STK for _move_character_sloc8_1_0
                           8640 ;	genPlusIncr
                           8641 ;	Can't optimise plus by inc, falling back to the normal way
   19BD F8 0D              8642 	lda	hl,13(sp)
   19BF 5E                 8643 	ld	e,(hl)
   19C0 23                 8644 	inc	hl
   19C1 56                 8645 	ld	d,(hl)
   19C2 21 05 00           8646 	ld	hl,#0x0005
   19C5 19                 8647 	add	hl,de
   19C6 7D                 8648 	ld	a,l
   19C7 54                 8649 	ld	d,h
   19C8 F8 00              8650 	lda	hl,0(sp)
                           8651 ;	genPointerGet
                           8652 ;	AOP_STK for _move_character_sloc8_1_0
   19CA 22                 8653 	ld	(hl+),a
   19CB 72                 8654 	ld	(hl),d
   19CC 5F                 8655 	ld	e,a
   19CD 1A                 8656 	ld	a,(de)
   19CE 4F                 8657 	ld	c,a
                           8658 ;	genIpush
                           8659 ; _saveRegsForCall: sendSetSize: 0 deInUse: 0 bcInUse: 1 deSending: 0
   19CF C5                 8660 	push	bc
   19D0 79                 8661 	ld	a,c
   19D1 F5                 8662 	push	af
   19D2 33                 8663 	inc	sp
                           8664 ;	genIpush
   19D3 78                 8665 	ld	a,b
   19D4 F5                 8666 	push	af
   19D5 33                 8667 	inc	sp
                           8668 ;	genCall
   19D6 CD 00 00           8669 	call	_set_sprite_tile
   19D9 E8 02              8670 	lda	sp,2(sp)
   19DB E1                 8671 	pop	hl
   19DC 44                 8672 	ld	b,h
                           8673 ;	game.c 1198
                           8674 ;	genPointerGet
                           8675 ;	AOP_STK for _move_character_sloc1_1_0
   19DD F8 0B              8676 	lda	hl,11(sp)
   19DF 5E                 8677 	ld	e,(hl)
   19E0 23                 8678 	inc	hl
   19E1 56                 8679 	ld	d,(hl)
   19E2 1A                 8680 	ld	a,(de)
   19E3 4F                 8681 	ld	c,a
                           8682 ;	genIpush
                           8683 ; _saveRegsForCall: sendSetSize: 0 deInUse: 0 bcInUse: 1 deSending: 0
   19E4 C5                 8684 	push	bc
   19E5 3E 40              8685 	ld	a,#0x40
   19E7 F5                 8686 	push	af
   19E8 33                 8687 	inc	sp
                           8688 ;	genIpush
   19E9 79                 8689 	ld	a,c
   19EA F5                 8690 	push	af
   19EB 33                 8691 	inc	sp
                           8692 ;	genCall
   19EC CD 00 00           8693 	call	_set_sprite_prop
   19EF E8 02              8694 	lda	sp,2(sp)
   19F1 E1                 8695 	pop	hl
   19F2 44                 8696 	ld	b,h
                           8697 ;	game.c 1200
                           8698 ;	genLabel
   19F3                    8699 00122$:
                           8700 ;	game.c 1203
                           8701 ;	genCmpEq
                           8702 ;	AOP_HL for _input_timer
                           8703 ; genCmpEq: left 1, right 1, result 0
   19F3 21 63 18           8704 	ld	hl,#_input_timer
   19F6 7E                 8705 	ld	a,(hl)
   19F7 B7                 8706 	or	a,a
   19F8 CA FF 19           8707 	jp	z,00126$
   19FB                    8708 00230$:
                           8709 ;	game.c 1204
                           8710 ;	genMinus
                           8711 ;	AOP_HL for _input_timer
   19FB 21 63 18           8712 	ld	hl,#_input_timer
   19FE 35                 8713 	dec	(hl)
                           8714 ;	genLabel
   19FF                    8715 00126$:
                           8716 ;	game.c 1209
                           8717 ;	genCmpEq
                           8718 ; genCmpEq: left 1, right 1, result 0
   19FF 78                 8719 	ld	a,b
   1A00 FE 02              8720 	cp	a,#0x02
   1A02 C2 79 1F           8721 	jp	nz,00178$
   1A05 18 03              8722 	jr	00232$
   1A07                    8723 00231$:
   1A07 C3 79 1F           8724 	jp	00178$
   1A0A                    8725 00232$:
                           8726 ;	game.c 1210
                           8727 ;	genPlus
                           8728 ;	AOP_STK for _move_character_sloc0_1_0
                           8729 ;	AOP_STK for _move_character_sloc8_1_0
                           8730 ;	genPlusIncr
                           8731 ;	Can't optimise plus by inc, falling back to the normal way
   1A0A F8 0D              8732 	lda	hl,13(sp)
   1A0C 5E                 8733 	ld	e,(hl)
   1A0D 23                 8734 	inc	hl
   1A0E 56                 8735 	ld	d,(hl)
   1A0F 21 04 00           8736 	ld	hl,#0x0004
   1A12 19                 8737 	add	hl,de
   1A13 7D                 8738 	ld	a,l
   1A14 54                 8739 	ld	d,h
   1A15 F8 00              8740 	lda	hl,0(sp)
                           8741 ;	genPointerGet
                           8742 ;	AOP_STK for _move_character_sloc8_1_0
   1A17 22                 8743 	ld	(hl+),a
   1A18 72                 8744 	ld	(hl),d
   1A19 5F                 8745 	ld	e,a
   1A1A 1A                 8746 	ld	a,(de)
   1A1B 4F                 8747 	ld	c,a
                           8748 ;	genIpush
                           8749 ; _saveRegsForCall: sendSetSize: 0 deInUse: 0 bcInUse: 1 deSending: 0
   1A1C C5                 8750 	push	bc
   1A1D 79                 8751 	ld	a,c
   1A1E F5                 8752 	push	af
   1A1F 33                 8753 	inc	sp
                           8754 ;	genIpush
   1A20 78                 8755 	ld	a,b
   1A21 F5                 8756 	push	af
   1A22 33                 8757 	inc	sp
                           8758 ;	genCall
   1A23 CD 00 00           8759 	call	_set_sprite_tile
   1A26 E8 02              8760 	lda	sp,2(sp)
   1A28 E1                 8761 	pop	hl
   1A29 44                 8762 	ld	b,h
                           8763 ;	game.c 1212
                           8764 ;	genPointerGet
                           8765 ;	AOP_STK for _move_character_sloc2_1_0
   1A2A F8 09              8766 	lda	hl,9(sp)
   1A2C 5E                 8767 	ld	e,(hl)
   1A2D 23                 8768 	inc	hl
   1A2E 56                 8769 	ld	d,(hl)
   1A2F 1A                 8770 	ld	a,(de)
                           8771 ;	genCmpEq
                           8772 ; genCmpEq: left 1, right 1, result 0
   1A30 4F                 8773 	ld	c,a
   1A31 FE 01              8774 	cp	a,#0x01
   1A33 C2 52 1A           8775 	jp	nz,00128$
   1A36 18 03              8776 	jr	00234$
   1A38                    8777 00233$:
   1A38 C3 52 1A           8778 	jp	00128$
   1A3B                    8779 00234$:
                           8780 ;	game.c 1214
                           8781 ;	genAssign (pointer)
                           8782 ;	AOP_STK for _move_character_sloc2_1_0
   1A3B F8 09              8783 	lda	hl,9(sp)
   1A3D 5E                 8784 	ld	e,(hl)
   1A3E 23                 8785 	inc	hl
   1A3F 56                 8786 	ld	d,(hl)
   1A40 3E 02              8787 	ld	a,#0x02
   1A42 12                 8788 	ld	(de),a
                           8789 ;	game.c 1215
                           8790 ;	genPlus
                           8791 ;	AOP_STK for _move_character_sloc0_1_0
                           8792 ;	genPlusIncr
                           8793 ;	Can't optimise plus by inc, falling back to the normal way
   1A43 F8 0D              8794 	lda	hl,13(sp)
   1A45 5E                 8795 	ld	e,(hl)
   1A46 23                 8796 	inc	hl
   1A47 56                 8797 	ld	d,(hl)
   1A48 21 0A 00           8798 	ld	hl,#0x000A
   1A4B 19                 8799 	add	hl,de
   1A4C 7D                 8800 	ld	a,l
   1A4D 54                 8801 	ld	d,h
   1A4E 6F                 8802 	ld	l,a
   1A4F 62                 8803 	ld	h,d
                           8804 ;	genAssign (pointer)
   1A50 36 10              8805 	ld	(hl),#0x10
                           8806 ;	genLabel
   1A52                    8807 00128$:
                           8808 ;	game.c 1217
                           8809 ;	genPlus
                           8810 ;	AOP_STK for _move_character_sloc0_1_0
                           8811 ;	AOP_STK for _move_character_sloc8_1_0
                           8812 ;	genPlusIncr
                           8813 ;	Can't optimise plus by inc, falling back to the normal way
   1A52 F8 0D              8814 	lda	hl,13(sp)
   1A54 5E                 8815 	ld	e,(hl)
   1A55 23                 8816 	inc	hl
   1A56 56                 8817 	ld	d,(hl)
   1A57 21 0A 00           8818 	ld	hl,#0x000A
   1A5A 19                 8819 	add	hl,de
   1A5B 7D                 8820 	ld	a,l
   1A5C 54                 8821 	ld	d,h
   1A5D F8 00              8822 	lda	hl,0(sp)
                           8823 ;	genPointerGet
                           8824 ;	AOP_STK for _move_character_sloc8_1_0
   1A5F 22                 8825 	ld	(hl+),a
   1A60 72                 8826 	ld	(hl),d
   1A61 5F                 8827 	ld	e,a
   1A62 1A                 8828 	ld	a,(de)
   1A63 4F                 8829 	ld	c,a
                           8830 ;	genMinus
   1A64 0D                 8831 	dec	c
                           8832 ;	genAssign (pointer)
                           8833 ;	AOP_STK for _move_character_sloc8_1_0
   1A65 2B                 8834 	dec	hl
   1A66 5E                 8835 	ld	e,(hl)
   1A67 23                 8836 	inc	hl
   1A68 56                 8837 	ld	d,(hl)
   1A69 79                 8838 	ld	a,c
   1A6A 12                 8839 	ld	(de),a
                           8840 ;	game.c 1219
                           8841 ;	genCmpEq
                           8842 ; genCmpEq: left 1, right 1, result 0
   1A6B 79                 8843 	ld	a,c
   1A6C B7                 8844 	or	a,a
   1A6D C2 79 1F           8845 	jp	nz,00178$
   1A70 18 03              8846 	jr	00236$
   1A72                    8847 00235$:
   1A72 C3 79 1F           8848 	jp	00178$
   1A75                    8849 00236$:
                           8850 ;	game.c 1220
                           8851 ;	genAssign (pointer)
                           8852 ;	AOP_STK for _move_character_sloc2_1_0
   1A75 F8 09              8853 	lda	hl,9(sp)
   1A77 5E                 8854 	ld	e,(hl)
   1A78 23                 8855 	inc	hl
   1A79 56                 8856 	ld	d,(hl)
   1A7A 3E 00              8857 	ld	a,#0x00
   1A7C 12                 8858 	ld	(de),a
                           8859 ;	game.c 1221
                           8860 ;	genPlus
                           8861 ;	AOP_STK for _move_character_sloc0_1_0
                           8862 ;	AOP_STK for _move_character_sloc8_1_0
                           8863 ;	genPlusIncr
                           8864 ;	Can't optimise plus by inc, falling back to the normal way
   1A7D F8 0D              8865 	lda	hl,13(sp)
   1A7F 5E                 8866 	ld	e,(hl)
   1A80 23                 8867 	inc	hl
   1A81 56                 8868 	ld	d,(hl)
   1A82 21 02 00           8869 	ld	hl,#0x0002
   1A85 19                 8870 	add	hl,de
   1A86 7D                 8871 	ld	a,l
   1A87 54                 8872 	ld	d,h
   1A88 F8 00              8873 	lda	hl,0(sp)
                           8874 ;	genPointerGet
                           8875 ;	AOP_STK for _move_character_sloc8_1_0
   1A8A 22                 8876 	ld	(hl+),a
   1A8B 72                 8877 	ld	(hl),d
   1A8C 5F                 8878 	ld	e,a
   1A8D 1A                 8879 	ld	a,(de)
   1A8E 4F                 8880 	ld	c,a
                           8881 ;	genPointerGet
                           8882 ;	AOP_STK for _move_character_sloc1_1_0
                           8883 ;	AOP_STK for _move_character_sloc8_1_0
   1A8F F8 0B              8884 	lda	hl,11(sp)
   1A91 5E                 8885 	ld	e,(hl)
   1A92 23                 8886 	inc	hl
   1A93 56                 8887 	ld	d,(hl)
   1A94 1A                 8888 	ld	a,(de)
   1A95 F8 00              8889 	lda	hl,0(sp)
   1A97 77                 8890 	ld	(hl),a
                           8891 ;	genIpush
                           8892 ; _saveRegsForCall: sendSetSize: 0 deInUse: 0 bcInUse: 1 deSending: 0
   1A98 C5                 8893 	push	bc
   1A99 79                 8894 	ld	a,c
   1A9A F5                 8895 	push	af
   1A9B 33                 8896 	inc	sp
                           8897 ;	genIpush
                           8898 ;	AOP_STK for _move_character_sloc8_1_0
   1A9C 7E                 8899 	ld	a,(hl)
   1A9D F5                 8900 	push	af
   1A9E 33                 8901 	inc	sp
                           8902 ;	genCall
   1A9F CD 00 00           8903 	call	_set_sprite_tile
   1AA2 E8 02              8904 	lda	sp,2(sp)
   1AA4 E1                 8905 	pop	hl
   1AA5 44                 8906 	ld	b,h
                           8907 ;	genGoto
   1AA6 C3 79 1F           8908 	jp	00178$
                           8909 ;	genLabel
   1AA9                    8910 00177$:
                           8911 ;	game.c 1232
                           8912 ;	genCmpEq
                           8913 ;	AOP_HL for _input_timer
                           8914 ; genCmpEq: left 1, right 1, result 0
   1AA9 21 63 18           8915 	ld	hl,#_input_timer
   1AAC 7E                 8916 	ld	a,(hl)
   1AAD FE 04              8917 	cp	a,#0x04
   1AAF C2 0B 1B           8918 	jp	nz,00136$
   1AB2 18 03              8919 	jr	00238$
   1AB4                    8920 00237$:
   1AB4 C3 0B 1B           8921 	jp	00136$
   1AB7                    8922 00238$:
                           8923 ;	game.c 1233
                           8924 ;	genPlus
                           8925 ;	AOP_STK for _move_character_sloc0_1_0
                           8926 ;	AOP_STK for _move_character_sloc8_1_0
                           8927 ;	genPlusIncr
                           8928 ;	Can't optimise plus by inc, falling back to the normal way
   1AB7 F8 0D              8929 	lda	hl,13(sp)
   1AB9 5E                 8930 	ld	e,(hl)
   1ABA 23                 8931 	inc	hl
   1ABB 56                 8932 	ld	d,(hl)
   1ABC 21 08 00           8933 	ld	hl,#0x0008
   1ABF 19                 8934 	add	hl,de
   1AC0 7D                 8935 	ld	a,l
   1AC1 54                 8936 	ld	d,h
   1AC2 F8 00              8937 	lda	hl,0(sp)
                           8938 ;	genPointerGet
                           8939 ;	AOP_STK for _move_character_sloc8_1_0
   1AC4 22                 8940 	ld	(hl+),a
   1AC5 72                 8941 	ld	(hl),d
   1AC6 5F                 8942 	ld	e,a
   1AC7 1A                 8943 	ld	a,(de)
   1AC8 4F                 8944 	ld	c,a
                           8945 ;	genPlus
                           8946 ;	AOP_STK for _move_character_sloc0_1_0
                           8947 ;	AOP_STK for _move_character_sloc8_1_0
                           8948 ;	genPlusIncr
                           8949 ;	Can't optimise plus by inc, falling back to the normal way
   1AC9 F8 0D              8950 	lda	hl,13(sp)
   1ACB 5E                 8951 	ld	e,(hl)
   1ACC 23                 8952 	inc	hl
   1ACD 56                 8953 	ld	d,(hl)
   1ACE 21 01 00           8954 	ld	hl,#0x0001
   1AD1 19                 8955 	add	hl,de
   1AD2 7D                 8956 	ld	a,l
   1AD3 54                 8957 	ld	d,h
   1AD4 F8 00              8958 	lda	hl,0(sp)
                           8959 ;	genPointerGet
                           8960 ;	AOP_STK for _move_character_sloc8_1_0
                           8961 ;	AOP_STK for _move_character_sloc7_1_0
   1AD6 22                 8962 	ld	(hl+),a
   1AD7 72                 8963 	ld	(hl),d
   1AD8 5F                 8964 	ld	e,a
   1AD9 1A                 8965 	ld	a,(de)
   1ADA 23                 8966 	inc	hl
   1ADB 77                 8967 	ld	(hl),a
                           8968 ;	genPointerGet
                           8969 ;	AOP_STK for _move_character_sloc0_1_0
                           8970 ;	AOP_STK for _move_character_sloc8_1_0
   1ADC F8 0D              8971 	lda	hl,13(sp)
   1ADE 5E                 8972 	ld	e,(hl)
   1ADF 23                 8973 	inc	hl
   1AE0 56                 8974 	ld	d,(hl)
   1AE1 1A                 8975 	ld	a,(de)
   1AE2 F8 00              8976 	lda	hl,0(sp)
   1AE4 77                 8977 	ld	(hl),a
                           8978 ;	genIpush
                           8979 ; _saveRegsForCall: sendSetSize: 0 deInUse: 0 bcInUse: 1 deSending: 0
   1AE5 C5                 8980 	push	bc
   1AE6 79                 8981 	ld	a,c
   1AE7 F5                 8982 	push	af
   1AE8 33                 8983 	inc	sp
                           8984 ;	genIpush
                           8985 ;	AOP_STK for _move_character_sloc7_1_0
   1AE9 23                 8986 	inc	hl
   1AEA 23                 8987 	inc	hl
   1AEB 7E                 8988 	ld	a,(hl)
   1AEC F5                 8989 	push	af
   1AED 33                 8990 	inc	sp
                           8991 ;	genIpush
                           8992 ;	AOP_STK for _move_character_sloc8_1_0
   1AEE 2B                 8993 	dec	hl
   1AEF 2B                 8994 	dec	hl
   1AF0 7E                 8995 	ld	a,(hl)
   1AF1 F5                 8996 	push	af
   1AF2 33                 8997 	inc	sp
                           8998 ;	genCall
   1AF3 CD CA 13           8999 	call	_can_move
                           9000 ;	AOP_STK for _move_character_sloc8_1_0
   1AF6 F8 06              9001 	lda	hl,6(sp)
   1AF8 72                 9002 	ld	(hl),d
   1AF9 2B                 9003 	dec	hl
   1AFA 73                 9004 	ld	(hl),e
   1AFB E8 03              9005 	lda	sp,3(sp)
   1AFD E1                 9006 	pop	hl
   1AFE 44                 9007 	ld	b,h
                           9008 ;	genIfx
                           9009 ;	AOP_STK for _move_character_sloc8_1_0
   1AFF F8 00              9010 	lda	hl,0(sp)
   1B01 2A                 9011 	ld	a,(hl+)
   1B02 B6                 9012 	or	a,(hl)
   1B03 C2 0B 1B           9013 	jp	nz,00136$
                           9014 ;	game.c 1234
                           9015 ;	genAssign
                           9016 ;	AOP_HL for _input_timer
   1B06 21 63 18           9017 	ld	hl,#_input_timer
   1B09 36 00              9018 	ld	(hl),#0x00
                           9019 ;	genLabel
   1B0B                    9020 00136$:
                           9021 ;	game.c 1242
                           9022 ;	genPlus
                           9023 ;	AOP_STK for _move_character_sloc0_1_0
                           9024 ;	AOP_STK for _move_character_sloc8_1_0
                           9025 ;	genPlusIncr
                           9026 ;	Can't optimise plus by inc, falling back to the normal way
   1B0B F8 0D              9027 	lda	hl,13(sp)
   1B0D 5E                 9028 	ld	e,(hl)
   1B0E 23                 9029 	inc	hl
   1B0F 56                 9030 	ld	d,(hl)
   1B10 21 08 00           9031 	ld	hl,#0x0008
   1B13 19                 9032 	add	hl,de
   1B14 7D                 9033 	ld	a,l
   1B15 54                 9034 	ld	d,h
   1B16 F8 00              9035 	lda	hl,0(sp)
                           9036 ;	genPointerGet
                           9037 ;	AOP_STK for _move_character_sloc8_1_0
   1B18 22                 9038 	ld	(hl+),a
   1B19 72                 9039 	ld	(hl),d
   1B1A 5F                 9040 	ld	e,a
   1B1B 1A                 9041 	ld	a,(de)
                           9042 ;	genCmpLt
                           9043 ;	AOP_STK for _move_character_sloc7_1_0
   1B1C 4F                 9044 	ld	c,a
   1B1D FE 01              9045 	cp	#0x01
   1B1F 3E 00              9046 	ld	a,#0x00
   1B21 17                 9047 	rla
   1B22 23                 9048 	inc	hl
   1B23 77                 9049 	ld	(hl),a
                           9050 ;	genIfx
                           9051 ;	AOP_STK for _move_character_sloc7_1_0
   1B24 AF                 9052 	xor	a,a
   1B25 B6                 9053 	or	a,(hl)
   1B26 C2 D7 1D           9054 	jp	nz,00157$
                           9055 ;	genCmpGt
   1B29 3E 04              9056 	ld	a,#0x04
   1B2B 91                 9057 	sub	a,c
   1B2C DA D7 1D           9058 	jp	c,00157$
                           9059 ;	genMinus
                           9060 ;	AOP_STK for _move_character_sloc6_1_0
   1B2F 79                 9061 	ld	a,c
   1B30 C6 FF              9062 	add	a,#0xFF
   1B32 23                 9063 	inc	hl
                           9064 ;	genJumpTab
                           9065 ;	AOP_STK for _move_character_sloc6_1_0
   1B33 77                 9066 	ld      (hl),a
   1B34 5F                 9067 	ld      e,a
   1B35 16 00              9068 	ld	d,#0x00
   1B37 21 3E 1B           9069 	ld	hl,#00239$
   1B3A 19                 9070 	add	hl,de
   1B3B 19                 9071 	add	hl,de
   1B3C 19                 9072 	add	hl,de
   1B3D E9                 9073 	jp	(hl)
   1B3E                    9074 00239$:
   1B3E C3 96 1C           9075 	jp	00147$
   1B41 C3 F0 1B           9076 	jp	00142$
   1B44 C3 3C 1D           9077 	jp	00152$
   1B47 C3 4A 1B           9078 	jp	00137$
                           9079 ;	game.c 1245
                           9080 ;	genLabel
   1B4A                    9081 00137$:
                           9082 ;	genPlus
                           9083 ;	AOP_STK for _move_character_sloc0_1_0
                           9084 ;	AOP_STK for _move_character_sloc5_1_0
                           9085 ;	genPlusIncr
                           9086 ;	Can't optimise plus by inc, falling back to the normal way
   1B4A F8 0D              9087 	lda	hl,13(sp)
   1B4C 5E                 9088 	ld	e,(hl)
   1B4D 23                 9089 	inc	hl
   1B4E 56                 9090 	ld	d,(hl)
   1B4F 21 02 00           9091 	ld	hl,#0x0002
   1B52 19                 9092 	add	hl,de
   1B53 7D                 9093 	ld	a,l
   1B54 54                 9094 	ld	d,h
   1B55 F8 04              9095 	lda	hl,4(sp)
                           9096 ;	genPointerGet
                           9097 ;	AOP_STK for _move_character_sloc5_1_0
                           9098 ;	AOP_STK for _move_character_sloc6_1_0
   1B57 22                 9099 	ld	(hl+),a
   1B58 72                 9100 	ld	(hl),d
   1B59 5F                 9101 	ld	e,a
   1B5A 1A                 9102 	ld	a,(de)
   1B5B 2B                 9103 	dec	hl
   1B5C 2B                 9104 	dec	hl
   1B5D 77                 9105 	ld	(hl),a
                           9106 ;	genIpush
                           9107 ; _saveRegsForCall: sendSetSize: 0 deInUse: 0 bcInUse: 1 deSending: 0
   1B5E C5                 9108 	push	bc
                           9109 ;	AOP_STK for _move_character_sloc6_1_0
   1B5F 7E                 9110 	ld	a,(hl)
   1B60 F5                 9111 	push	af
   1B61 33                 9112 	inc	sp
                           9113 ;	genIpush
   1B62 78                 9114 	ld	a,b
   1B63 F5                 9115 	push	af
   1B64 33                 9116 	inc	sp
                           9117 ;	genCall
   1B65 CD 00 00           9118 	call	_set_sprite_tile
   1B68 E8 02              9119 	lda	sp,2(sp)
   1B6A C1                 9120 	pop	bc
                           9121 ;	game.c 1246
                           9122 ;	genCmpEq
                           9123 ;	AOP_HL for _input_timer
                           9124 ; genCmpEq: left 1, right 1, result 0
   1B6B 21 63 18           9125 	ld	hl,#_input_timer
   1B6E 7E                 9126 	ld	a,(hl)
   1B6F FE 04              9127 	cp	a,#0x04
   1B71 C2 A7 1B           9128 	jp	nz,00139$
   1B74 18 03              9129 	jr	00241$
   1B76                    9130 00240$:
   1B76 C3 A7 1B           9131 	jp	00139$
   1B79                    9132 00241$:
                           9133 ;	game.c 1247
                           9134 ;	genPlus
                           9135 ;	AOP_STK for _move_character_sloc0_1_0
                           9136 ;	AOP_STK for _move_character_sloc3_1_0
                           9137 ;	genPlusIncr
                           9138 ;	Can't optimise plus by inc, falling back to the normal way
   1B79 F8 0D              9139 	lda	hl,13(sp)
   1B7B 5E                 9140 	ld	e,(hl)
   1B7C 23                 9141 	inc	hl
   1B7D 56                 9142 	ld	d,(hl)
   1B7E 21 03 00           9143 	ld	hl,#0x0003
   1B81 19                 9144 	add	hl,de
   1B82 7D                 9145 	ld	a,l
   1B83 54                 9146 	ld	d,h
   1B84 F8 07              9147 	lda	hl,7(sp)
                           9148 ;	genPointerGet
                           9149 ;	AOP_STK for _move_character_sloc3_1_0
                           9150 ;	AOP_STK for _move_character_sloc6_1_0
   1B86 22                 9151 	ld	(hl+),a
   1B87 72                 9152 	ld	(hl),d
   1B88 5F                 9153 	ld	e,a
   1B89 1A                 9154 	ld	a,(de)
   1B8A F8 03              9155 	lda	hl,3(sp)
   1B8C 77                 9156 	ld	(hl),a
                           9157 ;	genPointerGet
                           9158 ;	AOP_STK for _move_character_sloc1_1_0
                           9159 ;	AOP_STK for _move_character_sloc4_1_0
   1B8D F8 0B              9160 	lda	hl,11(sp)
   1B8F 5E                 9161 	ld	e,(hl)
   1B90 23                 9162 	inc	hl
   1B91 56                 9163 	ld	d,(hl)
   1B92 1A                 9164 	ld	a,(de)
   1B93 F8 06              9165 	lda	hl,6(sp)
   1B95 77                 9166 	ld	(hl),a
                           9167 ;	genIpush
                           9168 ; _saveRegsForCall: sendSetSize: 0 deInUse: 0 bcInUse: 1 deSending: 0
   1B96 C5                 9169 	push	bc
                           9170 ;	AOP_STK for _move_character_sloc6_1_0
   1B97 F8 05              9171 	lda	hl,5(sp)
   1B99 7E                 9172 	ld	a,(hl)
   1B9A F5                 9173 	push	af
   1B9B 33                 9174 	inc	sp
                           9175 ;	genIpush
                           9176 ;	AOP_STK for _move_character_sloc4_1_0
   1B9C F8 09              9177 	lda	hl,9(sp)
   1B9E 7E                 9178 	ld	a,(hl)
   1B9F F5                 9179 	push	af
   1BA0 33                 9180 	inc	sp
                           9181 ;	genCall
   1BA1 CD 00 00           9182 	call	_set_sprite_tile
   1BA4 E8 02              9183 	lda	sp,2(sp)
   1BA6 C1                 9184 	pop	bc
                           9185 ;	genLabel
   1BA7                    9186 00139$:
                           9187 ;	game.c 1249
                           9188 ;	genCmpEq
                           9189 ;	AOP_HL for _input_timer
                           9190 ; genCmpEq: left 1, right 1, result 0
   1BA7 21 63 18           9191 	ld	hl,#_input_timer
   1BAA 7E                 9192 	ld	a,(hl)
   1BAB FE 02              9193 	cp	a,#0x02
   1BAD C2 D6 1B           9194 	jp	nz,00141$
   1BB0 18 03              9195 	jr	00243$
   1BB2                    9196 00242$:
   1BB2 C3 D6 1B           9197 	jp	00141$
   1BB5                    9198 00243$:
                           9199 ;	game.c 1250
                           9200 ;	genPointerGet
                           9201 ;	AOP_STK for _move_character_sloc5_1_0
                           9202 ;	AOP_STK for _move_character_sloc6_1_0
   1BB5 F8 04              9203 	lda	hl,4(sp)
   1BB7 5E                 9204 	ld	e,(hl)
   1BB8 23                 9205 	inc	hl
   1BB9 56                 9206 	ld	d,(hl)
   1BBA 1A                 9207 	ld	a,(de)
   1BBB 2B                 9208 	dec	hl
   1BBC 2B                 9209 	dec	hl
   1BBD 77                 9210 	ld	(hl),a
                           9211 ;	genPointerGet
                           9212 ;	AOP_STK for _move_character_sloc1_1_0
                           9213 ;	AOP_STK for _move_character_sloc5_1_0
   1BBE F8 0B              9214 	lda	hl,11(sp)
   1BC0 5E                 9215 	ld	e,(hl)
   1BC1 23                 9216 	inc	hl
   1BC2 56                 9217 	ld	d,(hl)
   1BC3 1A                 9218 	ld	a,(de)
   1BC4 F8 04              9219 	lda	hl,4(sp)
   1BC6 77                 9220 	ld	(hl),a
                           9221 ;	genIpush
                           9222 ; _saveRegsForCall: sendSetSize: 0 deInUse: 0 bcInUse: 1 deSending: 0
   1BC7 C5                 9223 	push	bc
                           9224 ;	AOP_STK for _move_character_sloc6_1_0
   1BC8 2B                 9225 	dec	hl
   1BC9 7E                 9226 	ld	a,(hl)
   1BCA F5                 9227 	push	af
   1BCB 33                 9228 	inc	sp
                           9229 ;	genIpush
                           9230 ;	AOP_STK for _move_character_sloc5_1_0
   1BCC 23                 9231 	inc	hl
   1BCD 7E                 9232 	ld	a,(hl)
   1BCE F5                 9233 	push	af
   1BCF 33                 9234 	inc	sp
                           9235 ;	genCall
   1BD0 CD 00 00           9236 	call	_set_sprite_tile
   1BD3 E8 02              9237 	lda	sp,2(sp)
   1BD5 C1                 9238 	pop	bc
                           9239 ;	genLabel
   1BD6                    9240 00141$:
                           9241 ;	game.c 1252
                           9242 ;	genPointerGet
                           9243 ;	AOP_STK for _move_character_sloc1_1_0
                           9244 ;	AOP_STK for _move_character_sloc6_1_0
   1BD6 F8 0B              9245 	lda	hl,11(sp)
   1BD8 5E                 9246 	ld	e,(hl)
   1BD9 23                 9247 	inc	hl
   1BDA 56                 9248 	ld	d,(hl)
   1BDB 1A                 9249 	ld	a,(de)
   1BDC F8 03              9250 	lda	hl,3(sp)
   1BDE 77                 9251 	ld	(hl),a
                           9252 ;	genIpush
                           9253 ; _saveRegsForCall: sendSetSize: 0 deInUse: 0 bcInUse: 1 deSending: 0
   1BDF C5                 9254 	push	bc
   1BE0 3E 20              9255 	ld	a,#0x20
   1BE2 F5                 9256 	push	af
   1BE3 33                 9257 	inc	sp
                           9258 ;	genIpush
                           9259 ;	AOP_STK for _move_character_sloc6_1_0
   1BE4 7E                 9260 	ld	a,(hl)
   1BE5 F5                 9261 	push	af
   1BE6 33                 9262 	inc	sp
                           9263 ;	genCall
   1BE7 CD 00 00           9264 	call	_set_sprite_prop
   1BEA E8 02              9265 	lda	sp,2(sp)
   1BEC C1                 9266 	pop	bc
                           9267 ;	game.c 1253
                           9268 ;	genGoto
   1BED C3 D7 1D           9269 	jp	00157$
                           9270 ;	game.c 1256
                           9271 ;	genLabel
   1BF0                    9272 00142$:
                           9273 ;	genPlus
                           9274 ;	AOP_STK for _move_character_sloc0_1_0
                           9275 ;	AOP_STK for _move_character_sloc5_1_0
                           9276 ;	genPlusIncr
                           9277 ;	Can't optimise plus by inc, falling back to the normal way
   1BF0 F8 0D              9278 	lda	hl,13(sp)
   1BF2 5E                 9279 	ld	e,(hl)
   1BF3 23                 9280 	inc	hl
   1BF4 56                 9281 	ld	d,(hl)
   1BF5 21 02 00           9282 	ld	hl,#0x0002
   1BF8 19                 9283 	add	hl,de
   1BF9 7D                 9284 	ld	a,l
   1BFA 54                 9285 	ld	d,h
   1BFB F8 04              9286 	lda	hl,4(sp)
                           9287 ;	genPointerGet
                           9288 ;	AOP_STK for _move_character_sloc5_1_0
                           9289 ;	AOP_STK for _move_character_sloc6_1_0
   1BFD 22                 9290 	ld	(hl+),a
   1BFE 72                 9291 	ld	(hl),d
   1BFF 5F                 9292 	ld	e,a
   1C00 1A                 9293 	ld	a,(de)
   1C01 2B                 9294 	dec	hl
   1C02 2B                 9295 	dec	hl
   1C03 77                 9296 	ld	(hl),a
                           9297 ;	genIpush
                           9298 ; _saveRegsForCall: sendSetSize: 0 deInUse: 0 bcInUse: 1 deSending: 0
   1C04 C5                 9299 	push	bc
                           9300 ;	AOP_STK for _move_character_sloc6_1_0
   1C05 7E                 9301 	ld	a,(hl)
   1C06 F5                 9302 	push	af
   1C07 33                 9303 	inc	sp
                           9304 ;	genIpush
   1C08 78                 9305 	ld	a,b
   1C09 F5                 9306 	push	af
   1C0A 33                 9307 	inc	sp
                           9308 ;	genCall
   1C0B CD 00 00           9309 	call	_set_sprite_tile
   1C0E E8 02              9310 	lda	sp,2(sp)
   1C10 C1                 9311 	pop	bc
                           9312 ;	game.c 1257
                           9313 ;	genCmpEq
                           9314 ;	AOP_HL for _input_timer
                           9315 ; genCmpEq: left 1, right 1, result 0
   1C11 21 63 18           9316 	ld	hl,#_input_timer
   1C14 7E                 9317 	ld	a,(hl)
   1C15 FE 04              9318 	cp	a,#0x04
   1C17 C2 4D 1C           9319 	jp	nz,00144$
   1C1A 18 03              9320 	jr	00245$
   1C1C                    9321 00244$:
   1C1C C3 4D 1C           9322 	jp	00144$
   1C1F                    9323 00245$:
                           9324 ;	game.c 1258
                           9325 ;	genPlus
                           9326 ;	AOP_STK for _move_character_sloc0_1_0
                           9327 ;	AOP_STK for _move_character_sloc3_1_0
                           9328 ;	genPlusIncr
                           9329 ;	Can't optimise plus by inc, falling back to the normal way
   1C1F F8 0D              9330 	lda	hl,13(sp)
   1C21 5E                 9331 	ld	e,(hl)
   1C22 23                 9332 	inc	hl
   1C23 56                 9333 	ld	d,(hl)
   1C24 21 03 00           9334 	ld	hl,#0x0003
   1C27 19                 9335 	add	hl,de
   1C28 7D                 9336 	ld	a,l
   1C29 54                 9337 	ld	d,h
   1C2A F8 07              9338 	lda	hl,7(sp)
                           9339 ;	genPointerGet
                           9340 ;	AOP_STK for _move_character_sloc3_1_0
                           9341 ;	AOP_STK for _move_character_sloc6_1_0
   1C2C 22                 9342 	ld	(hl+),a
   1C2D 72                 9343 	ld	(hl),d
   1C2E 5F                 9344 	ld	e,a
   1C2F 1A                 9345 	ld	a,(de)
   1C30 F8 03              9346 	lda	hl,3(sp)
   1C32 77                 9347 	ld	(hl),a
                           9348 ;	genPointerGet
                           9349 ;	AOP_STK for _move_character_sloc1_1_0
                           9350 ;	AOP_STK for _move_character_sloc4_1_0
   1C33 F8 0B              9351 	lda	hl,11(sp)
   1C35 5E                 9352 	ld	e,(hl)
   1C36 23                 9353 	inc	hl
   1C37 56                 9354 	ld	d,(hl)
   1C38 1A                 9355 	ld	a,(de)
   1C39 F8 06              9356 	lda	hl,6(sp)
   1C3B 77                 9357 	ld	(hl),a
                           9358 ;	genIpush
                           9359 ; _saveRegsForCall: sendSetSize: 0 deInUse: 0 bcInUse: 1 deSending: 0
   1C3C C5                 9360 	push	bc
                           9361 ;	AOP_STK for _move_character_sloc6_1_0
   1C3D F8 05              9362 	lda	hl,5(sp)
   1C3F 7E                 9363 	ld	a,(hl)
   1C40 F5                 9364 	push	af
   1C41 33                 9365 	inc	sp
                           9366 ;	genIpush
                           9367 ;	AOP_STK for _move_character_sloc4_1_0
   1C42 F8 09              9368 	lda	hl,9(sp)
   1C44 7E                 9369 	ld	a,(hl)
   1C45 F5                 9370 	push	af
   1C46 33                 9371 	inc	sp
                           9372 ;	genCall
   1C47 CD 00 00           9373 	call	_set_sprite_tile
   1C4A E8 02              9374 	lda	sp,2(sp)
   1C4C C1                 9375 	pop	bc
                           9376 ;	genLabel
   1C4D                    9377 00144$:
                           9378 ;	game.c 1260
                           9379 ;	genCmpEq
                           9380 ;	AOP_HL for _input_timer
                           9381 ; genCmpEq: left 1, right 1, result 0
   1C4D 21 63 18           9382 	ld	hl,#_input_timer
   1C50 7E                 9383 	ld	a,(hl)
   1C51 FE 02              9384 	cp	a,#0x02
   1C53 C2 7C 1C           9385 	jp	nz,00146$
   1C56 18 03              9386 	jr	00247$
   1C58                    9387 00246$:
   1C58 C3 7C 1C           9388 	jp	00146$
   1C5B                    9389 00247$:
                           9390 ;	game.c 1261
                           9391 ;	genPointerGet
                           9392 ;	AOP_STK for _move_character_sloc5_1_0
                           9393 ;	AOP_STK for _move_character_sloc6_1_0
   1C5B F8 04              9394 	lda	hl,4(sp)
   1C5D 5E                 9395 	ld	e,(hl)
   1C5E 23                 9396 	inc	hl
   1C5F 56                 9397 	ld	d,(hl)
   1C60 1A                 9398 	ld	a,(de)
   1C61 2B                 9399 	dec	hl
   1C62 2B                 9400 	dec	hl
   1C63 77                 9401 	ld	(hl),a
                           9402 ;	genPointerGet
                           9403 ;	AOP_STK for _move_character_sloc1_1_0
                           9404 ;	AOP_STK for _move_character_sloc5_1_0
   1C64 F8 0B              9405 	lda	hl,11(sp)
   1C66 5E                 9406 	ld	e,(hl)
   1C67 23                 9407 	inc	hl
   1C68 56                 9408 	ld	d,(hl)
   1C69 1A                 9409 	ld	a,(de)
   1C6A F8 04              9410 	lda	hl,4(sp)
   1C6C 77                 9411 	ld	(hl),a
                           9412 ;	genIpush
                           9413 ; _saveRegsForCall: sendSetSize: 0 deInUse: 0 bcInUse: 1 deSending: 0
   1C6D C5                 9414 	push	bc
                           9415 ;	AOP_STK for _move_character_sloc6_1_0
   1C6E 2B                 9416 	dec	hl
   1C6F 7E                 9417 	ld	a,(hl)
   1C70 F5                 9418 	push	af
   1C71 33                 9419 	inc	sp
                           9420 ;	genIpush
                           9421 ;	AOP_STK for _move_character_sloc5_1_0
   1C72 23                 9422 	inc	hl
   1C73 7E                 9423 	ld	a,(hl)
   1C74 F5                 9424 	push	af
   1C75 33                 9425 	inc	sp
                           9426 ;	genCall
   1C76 CD 00 00           9427 	call	_set_sprite_tile
   1C79 E8 02              9428 	lda	sp,2(sp)
   1C7B C1                 9429 	pop	bc
                           9430 ;	genLabel
   1C7C                    9431 00146$:
                           9432 ;	game.c 1264
                           9433 ;	genPointerGet
                           9434 ;	AOP_STK for _move_character_sloc1_1_0
                           9435 ;	AOP_STK for _move_character_sloc6_1_0
   1C7C F8 0B              9436 	lda	hl,11(sp)
   1C7E 5E                 9437 	ld	e,(hl)
   1C7F 23                 9438 	inc	hl
   1C80 56                 9439 	ld	d,(hl)
   1C81 1A                 9440 	ld	a,(de)
   1C82 F8 03              9441 	lda	hl,3(sp)
   1C84 77                 9442 	ld	(hl),a
                           9443 ;	genIpush
                           9444 ; _saveRegsForCall: sendSetSize: 0 deInUse: 0 bcInUse: 1 deSending: 0
   1C85 C5                 9445 	push	bc
   1C86 3E 00              9446 	ld	a,#0x00
   1C88 F5                 9447 	push	af
   1C89 33                 9448 	inc	sp
                           9449 ;	genIpush
                           9450 ;	AOP_STK for _move_character_sloc6_1_0
   1C8A 7E                 9451 	ld	a,(hl)
   1C8B F5                 9452 	push	af
   1C8C 33                 9453 	inc	sp
                           9454 ;	genCall
   1C8D CD 00 00           9455 	call	_set_sprite_prop
   1C90 E8 02              9456 	lda	sp,2(sp)
   1C92 C1                 9457 	pop	bc
                           9458 ;	game.c 1265
                           9459 ;	genGoto
   1C93 C3 D7 1D           9460 	jp	00157$
                           9461 ;	game.c 1267
                           9462 ;	genLabel
   1C96                    9463 00147$:
                           9464 ;	genPlus
                           9465 ;	AOP_STK for _move_character_sloc0_1_0
                           9466 ;	AOP_STK for _move_character_sloc5_1_0
                           9467 ;	genPlusIncr
                           9468 ;	Can't optimise plus by inc, falling back to the normal way
   1C96 F8 0D              9469 	lda	hl,13(sp)
   1C98 5E                 9470 	ld	e,(hl)
   1C99 23                 9471 	inc	hl
   1C9A 56                 9472 	ld	d,(hl)
   1C9B 21 05 00           9473 	ld	hl,#0x0005
   1C9E 19                 9474 	add	hl,de
   1C9F 7D                 9475 	ld	a,l
   1CA0 54                 9476 	ld	d,h
   1CA1 F8 04              9477 	lda	hl,4(sp)
                           9478 ;	genPointerGet
                           9479 ;	AOP_STK for _move_character_sloc5_1_0
                           9480 ;	AOP_STK for _move_character_sloc6_1_0
   1CA3 22                 9481 	ld	(hl+),a
   1CA4 72                 9482 	ld	(hl),d
   1CA5 5F                 9483 	ld	e,a
   1CA6 1A                 9484 	ld	a,(de)
   1CA7 2B                 9485 	dec	hl
   1CA8 2B                 9486 	dec	hl
   1CA9 77                 9487 	ld	(hl),a
                           9488 ;	genIpush
                           9489 ; _saveRegsForCall: sendSetSize: 0 deInUse: 0 bcInUse: 1 deSending: 0
   1CAA C5                 9490 	push	bc
                           9491 ;	AOP_STK for _move_character_sloc6_1_0
   1CAB 7E                 9492 	ld	a,(hl)
   1CAC F5                 9493 	push	af
   1CAD 33                 9494 	inc	sp
                           9495 ;	genIpush
   1CAE 78                 9496 	ld	a,b
   1CAF F5                 9497 	push	af
   1CB0 33                 9498 	inc	sp
                           9499 ;	genCall
   1CB1 CD 00 00           9500 	call	_set_sprite_tile
   1CB4 E8 02              9501 	lda	sp,2(sp)
   1CB6 C1                 9502 	pop	bc
                           9503 ;	game.c 1269
                           9504 ;	genCmpEq
                           9505 ;	AOP_HL for _input_timer
                           9506 ; genCmpEq: left 1, right 1, result 0
   1CB7 21 63 18           9507 	ld	hl,#_input_timer
   1CBA 7E                 9508 	ld	a,(hl)
   1CBB FE 04              9509 	cp	a,#0x04
   1CBD C2 F3 1C           9510 	jp	nz,00149$
   1CC0 18 03              9511 	jr	00249$
   1CC2                    9512 00248$:
   1CC2 C3 F3 1C           9513 	jp	00149$
   1CC5                    9514 00249$:
                           9515 ;	game.c 1270
                           9516 ;	genPlus
                           9517 ;	AOP_STK for _move_character_sloc0_1_0
                           9518 ;	AOP_STK for _move_character_sloc3_1_0
                           9519 ;	genPlusIncr
                           9520 ;	Can't optimise plus by inc, falling back to the normal way
   1CC5 F8 0D              9521 	lda	hl,13(sp)
   1CC7 5E                 9522 	ld	e,(hl)
   1CC8 23                 9523 	inc	hl
   1CC9 56                 9524 	ld	d,(hl)
   1CCA 21 06 00           9525 	ld	hl,#0x0006
   1CCD 19                 9526 	add	hl,de
   1CCE 7D                 9527 	ld	a,l
   1CCF 54                 9528 	ld	d,h
   1CD0 F8 07              9529 	lda	hl,7(sp)
                           9530 ;	genPointerGet
                           9531 ;	AOP_STK for _move_character_sloc3_1_0
                           9532 ;	AOP_STK for _move_character_sloc6_1_0
   1CD2 22                 9533 	ld	(hl+),a
   1CD3 72                 9534 	ld	(hl),d
   1CD4 5F                 9535 	ld	e,a
   1CD5 1A                 9536 	ld	a,(de)
   1CD6 F8 03              9537 	lda	hl,3(sp)
   1CD8 77                 9538 	ld	(hl),a
                           9539 ;	genPointerGet
                           9540 ;	AOP_STK for _move_character_sloc1_1_0
                           9541 ;	AOP_STK for _move_character_sloc4_1_0
   1CD9 F8 0B              9542 	lda	hl,11(sp)
   1CDB 5E                 9543 	ld	e,(hl)
   1CDC 23                 9544 	inc	hl
   1CDD 56                 9545 	ld	d,(hl)
   1CDE 1A                 9546 	ld	a,(de)
   1CDF F8 06              9547 	lda	hl,6(sp)
   1CE1 77                 9548 	ld	(hl),a
                           9549 ;	genIpush
                           9550 ; _saveRegsForCall: sendSetSize: 0 deInUse: 0 bcInUse: 1 deSending: 0
   1CE2 C5                 9551 	push	bc
                           9552 ;	AOP_STK for _move_character_sloc6_1_0
   1CE3 F8 05              9553 	lda	hl,5(sp)
   1CE5 7E                 9554 	ld	a,(hl)
   1CE6 F5                 9555 	push	af
   1CE7 33                 9556 	inc	sp
                           9557 ;	genIpush
                           9558 ;	AOP_STK for _move_character_sloc4_1_0
   1CE8 F8 09              9559 	lda	hl,9(sp)
   1CEA 7E                 9560 	ld	a,(hl)
   1CEB F5                 9561 	push	af
   1CEC 33                 9562 	inc	sp
                           9563 ;	genCall
   1CED CD 00 00           9564 	call	_set_sprite_tile
   1CF0 E8 02              9565 	lda	sp,2(sp)
   1CF2 C1                 9566 	pop	bc
                           9567 ;	genLabel
   1CF3                    9568 00149$:
                           9569 ;	game.c 1272
                           9570 ;	genCmpEq
                           9571 ;	AOP_HL for _input_timer
                           9572 ; genCmpEq: left 1, right 1, result 0
   1CF3 21 63 18           9573 	ld	hl,#_input_timer
   1CF6 7E                 9574 	ld	a,(hl)
   1CF7 FE 02              9575 	cp	a,#0x02
   1CF9 C2 22 1D           9576 	jp	nz,00151$
   1CFC 18 03              9577 	jr	00251$
   1CFE                    9578 00250$:
   1CFE C3 22 1D           9579 	jp	00151$
   1D01                    9580 00251$:
                           9581 ;	game.c 1273
                           9582 ;	genPointerGet
                           9583 ;	AOP_STK for _move_character_sloc5_1_0
                           9584 ;	AOP_STK for _move_character_sloc6_1_0
   1D01 F8 04              9585 	lda	hl,4(sp)
   1D03 5E                 9586 	ld	e,(hl)
   1D04 23                 9587 	inc	hl
   1D05 56                 9588 	ld	d,(hl)
   1D06 1A                 9589 	ld	a,(de)
   1D07 2B                 9590 	dec	hl
   1D08 2B                 9591 	dec	hl
   1D09 77                 9592 	ld	(hl),a
                           9593 ;	genPointerGet
                           9594 ;	AOP_STK for _move_character_sloc1_1_0
                           9595 ;	AOP_STK for _move_character_sloc5_1_0
   1D0A F8 0B              9596 	lda	hl,11(sp)
   1D0C 5E                 9597 	ld	e,(hl)
   1D0D 23                 9598 	inc	hl
   1D0E 56                 9599 	ld	d,(hl)
   1D0F 1A                 9600 	ld	a,(de)
   1D10 F8 04              9601 	lda	hl,4(sp)
   1D12 77                 9602 	ld	(hl),a
                           9603 ;	genIpush
                           9604 ; _saveRegsForCall: sendSetSize: 0 deInUse: 0 bcInUse: 1 deSending: 0
   1D13 C5                 9605 	push	bc
                           9606 ;	AOP_STK for _move_character_sloc6_1_0
   1D14 2B                 9607 	dec	hl
   1D15 7E                 9608 	ld	a,(hl)
   1D16 F5                 9609 	push	af
   1D17 33                 9610 	inc	sp
                           9611 ;	genIpush
                           9612 ;	AOP_STK for _move_character_sloc5_1_0
   1D18 23                 9613 	inc	hl
   1D19 7E                 9614 	ld	a,(hl)
   1D1A F5                 9615 	push	af
   1D1B 33                 9616 	inc	sp
                           9617 ;	genCall
   1D1C CD 00 00           9618 	call	_set_sprite_tile
   1D1F E8 02              9619 	lda	sp,2(sp)
   1D21 C1                 9620 	pop	bc
                           9621 ;	genLabel
   1D22                    9622 00151$:
                           9623 ;	game.c 1276
                           9624 ;	genPointerGet
                           9625 ;	AOP_STK for _move_character_sloc1_1_0
                           9626 ;	AOP_STK for _move_character_sloc6_1_0
   1D22 F8 0B              9627 	lda	hl,11(sp)
   1D24 5E                 9628 	ld	e,(hl)
   1D25 23                 9629 	inc	hl
   1D26 56                 9630 	ld	d,(hl)
   1D27 1A                 9631 	ld	a,(de)
   1D28 F8 03              9632 	lda	hl,3(sp)
   1D2A 77                 9633 	ld	(hl),a
                           9634 ;	genIpush
                           9635 ; _saveRegsForCall: sendSetSize: 0 deInUse: 0 bcInUse: 1 deSending: 0
   1D2B C5                 9636 	push	bc
   1D2C 3E 20              9637 	ld	a,#0x20
   1D2E F5                 9638 	push	af
   1D2F 33                 9639 	inc	sp
                           9640 ;	genIpush
                           9641 ;	AOP_STK for _move_character_sloc6_1_0
   1D30 7E                 9642 	ld	a,(hl)
   1D31 F5                 9643 	push	af
   1D32 33                 9644 	inc	sp
                           9645 ;	genCall
   1D33 CD 00 00           9646 	call	_set_sprite_prop
   1D36 E8 02              9647 	lda	sp,2(sp)
   1D38 C1                 9648 	pop	bc
                           9649 ;	game.c 1277
                           9650 ;	genGoto
   1D39 C3 D7 1D           9651 	jp	00157$
                           9652 ;	game.c 1279
                           9653 ;	genLabel
   1D3C                    9654 00152$:
                           9655 ;	genPlus
                           9656 ;	AOP_STK for _move_character_sloc0_1_0
                           9657 ;	AOP_STK for _move_character_sloc5_1_0
                           9658 ;	genPlusIncr
                           9659 ;	Can't optimise plus by inc, falling back to the normal way
   1D3C F8 0D              9660 	lda	hl,13(sp)
   1D3E 5E                 9661 	ld	e,(hl)
   1D3F 23                 9662 	inc	hl
   1D40 56                 9663 	ld	d,(hl)
   1D41 21 05 00           9664 	ld	hl,#0x0005
   1D44 19                 9665 	add	hl,de
   1D45 7D                 9666 	ld	a,l
   1D46 54                 9667 	ld	d,h
   1D47 F8 04              9668 	lda	hl,4(sp)
                           9669 ;	genPointerGet
                           9670 ;	AOP_STK for _move_character_sloc5_1_0
                           9671 ;	AOP_STK for _move_character_sloc6_1_0
   1D49 22                 9672 	ld	(hl+),a
   1D4A 72                 9673 	ld	(hl),d
   1D4B 5F                 9674 	ld	e,a
   1D4C 1A                 9675 	ld	a,(de)
   1D4D 2B                 9676 	dec	hl
   1D4E 2B                 9677 	dec	hl
   1D4F 77                 9678 	ld	(hl),a
                           9679 ;	genIpush
                           9680 ; _saveRegsForCall: sendSetSize: 0 deInUse: 0 bcInUse: 1 deSending: 0
   1D50 C5                 9681 	push	bc
                           9682 ;	AOP_STK for _move_character_sloc6_1_0
   1D51 7E                 9683 	ld	a,(hl)
   1D52 F5                 9684 	push	af
   1D53 33                 9685 	inc	sp
                           9686 ;	genIpush
   1D54 78                 9687 	ld	a,b
   1D55 F5                 9688 	push	af
   1D56 33                 9689 	inc	sp
                           9690 ;	genCall
   1D57 CD 00 00           9691 	call	_set_sprite_tile
   1D5A E8 02              9692 	lda	sp,2(sp)
   1D5C E1                 9693 	pop	hl
   1D5D 4D                 9694 	ld	c,l
                           9695 ;	game.c 1281
                           9696 ;	genCmpEq
                           9697 ;	AOP_HL for _input_timer
                           9698 ; genCmpEq: left 1, right 1, result 0
   1D5E 21 63 18           9699 	ld	hl,#_input_timer
   1D61 7E                 9700 	ld	a,(hl)
   1D62 FE 04              9701 	cp	a,#0x04
   1D64 C2 95 1D           9702 	jp	nz,00154$
   1D67 18 03              9703 	jr	00253$
   1D69                    9704 00252$:
   1D69 C3 95 1D           9705 	jp	00154$
   1D6C                    9706 00253$:
                           9707 ;	game.c 1282
                           9708 ;	genPlus
                           9709 ;	AOP_STK for _move_character_sloc0_1_0
                           9710 ;	AOP_STK for _move_character_sloc3_1_0
                           9711 ;	genPlusIncr
                           9712 ;	Can't optimise plus by inc, falling back to the normal way
   1D6C F8 0D              9713 	lda	hl,13(sp)
   1D6E 5E                 9714 	ld	e,(hl)
   1D6F 23                 9715 	inc	hl
   1D70 56                 9716 	ld	d,(hl)
   1D71 21 06 00           9717 	ld	hl,#0x0006
   1D74 19                 9718 	add	hl,de
   1D75 7D                 9719 	ld	a,l
   1D76 54                 9720 	ld	d,h
   1D77 F8 07              9721 	lda	hl,7(sp)
                           9722 ;	genPointerGet
                           9723 ;	AOP_STK for _move_character_sloc3_1_0
   1D79 22                 9724 	ld	(hl+),a
   1D7A 72                 9725 	ld	(hl),d
   1D7B 5F                 9726 	ld	e,a
   1D7C 1A                 9727 	ld	a,(de)
   1D7D 47                 9728 	ld	b,a
                           9729 ;	genPointerGet
                           9730 ;	AOP_STK for _move_character_sloc1_1_0
                           9731 ;	AOP_STK for _move_character_sloc6_1_0
   1D7E F8 0B              9732 	lda	hl,11(sp)
   1D80 5E                 9733 	ld	e,(hl)
   1D81 23                 9734 	inc	hl
   1D82 56                 9735 	ld	d,(hl)
   1D83 1A                 9736 	ld	a,(de)
   1D84 F8 03              9737 	lda	hl,3(sp)
   1D86 77                 9738 	ld	(hl),a
                           9739 ;	genIpush
                           9740 ; _saveRegsForCall: sendSetSize: 0 deInUse: 0 bcInUse: 1 deSending: 0
   1D87 C5                 9741 	push	bc
   1D88 78                 9742 	ld	a,b
   1D89 F5                 9743 	push	af
   1D8A 33                 9744 	inc	sp
                           9745 ;	genIpush
                           9746 ;	AOP_STK for _move_character_sloc6_1_0
   1D8B 7E                 9747 	ld	a,(hl)
   1D8C F5                 9748 	push	af
   1D8D 33                 9749 	inc	sp
                           9750 ;	genCall
   1D8E CD 00 00           9751 	call	_set_sprite_tile
   1D91 E8 02              9752 	lda	sp,2(sp)
   1D93 E1                 9753 	pop	hl
   1D94 4D                 9754 	ld	c,l
                           9755 ;	genLabel
   1D95                    9756 00154$:
                           9757 ;	game.c 1284
                           9758 ;	genCmpEq
                           9759 ;	AOP_HL for _input_timer
                           9760 ; genCmpEq: left 1, right 1, result 0
   1D95 21 63 18           9761 	ld	hl,#_input_timer
   1D98 7E                 9762 	ld	a,(hl)
   1D99 FE 02              9763 	cp	a,#0x02
   1D9B C2 C1 1D           9764 	jp	nz,00156$
   1D9E 18 03              9765 	jr	00255$
   1DA0                    9766 00254$:
   1DA0 C3 C1 1D           9767 	jp	00156$
   1DA3                    9768 00255$:
                           9769 ;	game.c 1285
                           9770 ;	genPointerGet
                           9771 ;	AOP_STK for _move_character_sloc5_1_0
   1DA3 F8 04              9772 	lda	hl,4(sp)
   1DA5 5E                 9773 	ld	e,(hl)
   1DA6 23                 9774 	inc	hl
   1DA7 56                 9775 	ld	d,(hl)
   1DA8 1A                 9776 	ld	a,(de)
   1DA9 47                 9777 	ld	b,a
                           9778 ;	genPointerGet
                           9779 ;	AOP_STK for _move_character_sloc1_1_0
                           9780 ;	AOP_STK for _move_character_sloc6_1_0
   1DAA F8 0B              9781 	lda	hl,11(sp)
   1DAC 5E                 9782 	ld	e,(hl)
   1DAD 23                 9783 	inc	hl
   1DAE 56                 9784 	ld	d,(hl)
   1DAF 1A                 9785 	ld	a,(de)
   1DB0 F8 03              9786 	lda	hl,3(sp)
   1DB2 77                 9787 	ld	(hl),a
                           9788 ;	genIpush
                           9789 ; _saveRegsForCall: sendSetSize: 0 deInUse: 0 bcInUse: 1 deSending: 0
   1DB3 C5                 9790 	push	bc
   1DB4 78                 9791 	ld	a,b
   1DB5 F5                 9792 	push	af
   1DB6 33                 9793 	inc	sp
                           9794 ;	genIpush
                           9795 ;	AOP_STK for _move_character_sloc6_1_0
   1DB7 7E                 9796 	ld	a,(hl)
   1DB8 F5                 9797 	push	af
   1DB9 33                 9798 	inc	sp
                           9799 ;	genCall
   1DBA CD 00 00           9800 	call	_set_sprite_tile
   1DBD E8 02              9801 	lda	sp,2(sp)
   1DBF E1                 9802 	pop	hl
   1DC0 4D                 9803 	ld	c,l
                           9804 ;	genLabel
   1DC1                    9805 00156$:
                           9806 ;	game.c 1287
                           9807 ;	genPointerGet
                           9808 ;	AOP_STK for _move_character_sloc1_1_0
   1DC1 F8 0B              9809 	lda	hl,11(sp)
   1DC3 5E                 9810 	ld	e,(hl)
   1DC4 23                 9811 	inc	hl
   1DC5 56                 9812 	ld	d,(hl)
   1DC6 1A                 9813 	ld	a,(de)
   1DC7 47                 9814 	ld	b,a
                           9815 ;	genIpush
                           9816 ; _saveRegsForCall: sendSetSize: 0 deInUse: 0 bcInUse: 1 deSending: 0
   1DC8 C5                 9817 	push	bc
   1DC9 3E 40              9818 	ld	a,#0x40
   1DCB F5                 9819 	push	af
   1DCC 33                 9820 	inc	sp
                           9821 ;	genIpush
   1DCD 78                 9822 	ld	a,b
   1DCE F5                 9823 	push	af
   1DCF 33                 9824 	inc	sp
                           9825 ;	genCall
   1DD0 CD 00 00           9826 	call	_set_sprite_prop
   1DD3 E8 02              9827 	lda	sp,2(sp)
   1DD5 E1                 9828 	pop	hl
   1DD6 4D                 9829 	ld	c,l
                           9830 ;	game.c 1289
                           9831 ;	genLabel
   1DD7                    9832 00157$:
                           9833 ;	game.c 1292
                           9834 ;	genCmpEq
                           9835 ;	AOP_HL for _input_timer
                           9836 ; genCmpEq: left 1, right 1, result 1
   1DD7 21 63 18           9837 	ld	hl,#_input_timer
   1DDA 7E                 9838 	ld	a,(hl)
   1DDB B7                 9839 	or	a,a
   1DDC C2 E3 1D           9840 	jp	nz,00256$
   1DDF 3E 01              9841 	ld	a,#0x01
   1DE1 18 01              9842 	jr	00257$
   1DE3                    9843 00256$:
   1DE3 AF                 9844 	xor	a,a
   1DE4                    9845 00257$:
   1DE4 47                 9846 	ld	b,a
                           9847 ;	genIfx
   1DE5 AF                 9848 	xor	a,a
   1DE6 B0                 9849 	or	a,b
   1DE7 C2 67 1E           9850 	jp	nz,00164$
                           9851 ;	game.c 1294
                           9852 ;	genIfx
                           9853 ;	AOP_STK for _move_character_sloc7_1_0
   1DEA AF                 9854 	xor	a,a
   1DEB F8 02              9855 	lda	hl,2(sp)
   1DED B6                 9856 	or	a,(hl)
   1DEE C2 67 1E           9857 	jp	nz,00164$
                           9858 ;	genCmpGt
   1DF1 3E 04              9859 	ld	a,#0x04
   1DF3 91                 9860 	sub	a,c
   1DF4 DA 67 1E           9861 	jp	c,00164$
                           9862 ;	genMinus
   1DF7 0D                 9863 	dec	c
                           9864 ;	genJumpTab
   1DF8 59                 9865 	ld	e,c
   1DF9 16 00              9866 	ld	d,#0x00
   1DFB 21 02 1E           9867 	ld	hl,#00258$
   1DFE 19                 9868 	add	hl,de
   1DFF 19                 9869 	add	hl,de
   1E00 19                 9870 	add	hl,de
   1E01 E9                 9871 	jp	(hl)
   1E02                    9872 00258$:
   1E02 C3 31 1E           9873 	jp	00160$
   1E05 C3 20 1E           9874 	jp	00159$
   1E08 C3 4E 1E           9875 	jp	00161$
   1E0B C3 0E 1E           9876 	jp	00158$
                           9877 ;	game.c 1296
                           9878 ;	genLabel
   1E0E                    9879 00158$:
                           9880 ;	genPointerGet
                           9881 ;	AOP_STK for _move_character_sloc0_1_0
   1E0E F8 0D              9882 	lda	hl,13(sp)
   1E10 5E                 9883 	ld	e,(hl)
   1E11 23                 9884 	inc	hl
   1E12 56                 9885 	ld	d,(hl)
   1E13 1A                 9886 	ld	a,(de)
   1E14 4F                 9887 	ld	c,a
                           9888 ;	genMinus
   1E15 0D                 9889 	dec	c
   1E16 0D                 9890 	dec	c
                           9891 ;	genAssign (pointer)
                           9892 ;	AOP_STK for _move_character_sloc0_1_0
   1E17 2B                 9893 	dec	hl
   1E18 5E                 9894 	ld	e,(hl)
   1E19 23                 9895 	inc	hl
   1E1A 56                 9896 	ld	d,(hl)
   1E1B 79                 9897 	ld	a,c
   1E1C 12                 9898 	ld	(de),a
                           9899 ;	game.c 1297
                           9900 ;	genGoto
   1E1D C3 67 1E           9901 	jp	00164$
                           9902 ;	game.c 1299
                           9903 ;	genLabel
   1E20                    9904 00159$:
                           9905 ;	genPointerGet
                           9906 ;	AOP_STK for _move_character_sloc0_1_0
   1E20 F8 0D              9907 	lda	hl,13(sp)
   1E22 5E                 9908 	ld	e,(hl)
   1E23 23                 9909 	inc	hl
   1E24 56                 9910 	ld	d,(hl)
   1E25 1A                 9911 	ld	a,(de)
                           9912 ;	genPlus
                           9913 ;	genPlusIncr
                           9914 ;	Can't optimise plus by inc, falling back to the normal way
   1E26 4F                 9915 	ld	c,a
   1E27 C6 02              9916 	add	a,#0x02
                           9917 ;	genAssign (pointer)
                           9918 ;	AOP_STK for _move_character_sloc0_1_0
   1E29 2B                 9919 	dec	hl
   1E2A 5E                 9920 	ld	e,(hl)
   1E2B 23                 9921 	inc	hl
   1E2C 56                 9922 	ld	d,(hl)
   1E2D 12                 9923 	ld	(de),a
                           9924 ;	game.c 1300
                           9925 ;	genGoto
   1E2E C3 67 1E           9926 	jp	00164$
                           9927 ;	game.c 1302
                           9928 ;	genLabel
   1E31                    9929 00160$:
                           9930 ;	genPlus
                           9931 ;	AOP_STK for _move_character_sloc0_1_0
                           9932 ;	AOP_STK for _move_character_sloc5_1_0
                           9933 ;	genPlusIncr
                           9934 ;	Can't optimise plus by inc, falling back to the normal way
   1E31 F8 0D              9935 	lda	hl,13(sp)
   1E33 5E                 9936 	ld	e,(hl)
   1E34 23                 9937 	inc	hl
   1E35 56                 9938 	ld	d,(hl)
   1E36 21 01 00           9939 	ld	hl,#0x0001
   1E39 19                 9940 	add	hl,de
   1E3A 7D                 9941 	ld	a,l
   1E3B 54                 9942 	ld	d,h
   1E3C F8 04              9943 	lda	hl,4(sp)
                           9944 ;	genPointerGet
                           9945 ;	AOP_STK for _move_character_sloc5_1_0
   1E3E 22                 9946 	ld	(hl+),a
   1E3F 72                 9947 	ld	(hl),d
   1E40 5F                 9948 	ld	e,a
   1E41 1A                 9949 	ld	a,(de)
   1E42 4F                 9950 	ld	c,a
                           9951 ;	genMinus
   1E43 0D                 9952 	dec	c
   1E44 0D                 9953 	dec	c
                           9954 ;	genAssign (pointer)
                           9955 ;	AOP_STK for _move_character_sloc5_1_0
   1E45 2B                 9956 	dec	hl
   1E46 5E                 9957 	ld	e,(hl)
   1E47 23                 9958 	inc	hl
   1E48 56                 9959 	ld	d,(hl)
   1E49 79                 9960 	ld	a,c
   1E4A 12                 9961 	ld	(de),a
                           9962 ;	game.c 1303
                           9963 ;	genGoto
   1E4B C3 67 1E           9964 	jp	00164$
                           9965 ;	game.c 1305
                           9966 ;	genLabel
   1E4E                    9967 00161$:
                           9968 ;	genPlus
                           9969 ;	AOP_STK for _move_character_sloc0_1_0
                           9970 ;	AOP_STK for _move_character_sloc5_1_0
                           9971 ;	genPlusIncr
                           9972 ;	Can't optimise plus by inc, falling back to the normal way
   1E4E F8 0D              9973 	lda	hl,13(sp)
   1E50 5E                 9974 	ld	e,(hl)
   1E51 23                 9975 	inc	hl
   1E52 56                 9976 	ld	d,(hl)
   1E53 21 01 00           9977 	ld	hl,#0x0001
   1E56 19                 9978 	add	hl,de
   1E57 7D                 9979 	ld	a,l
   1E58 54                 9980 	ld	d,h
   1E59 F8 04              9981 	lda	hl,4(sp)
                           9982 ;	genPointerGet
                           9983 ;	AOP_STK for _move_character_sloc5_1_0
   1E5B 22                 9984 	ld	(hl+),a
   1E5C 72                 9985 	ld	(hl),d
   1E5D 5F                 9986 	ld	e,a
   1E5E 1A                 9987 	ld	a,(de)
                           9988 ;	genPlus
                           9989 ;	genPlusIncr
                           9990 ;	Can't optimise plus by inc, falling back to the normal way
   1E5F 4F                 9991 	ld	c,a
   1E60 C6 02              9992 	add	a,#0x02
                           9993 ;	genAssign (pointer)
                           9994 ;	AOP_STK for _move_character_sloc5_1_0
   1E62 2B                 9995 	dec	hl
   1E63 5E                 9996 	ld	e,(hl)
   1E64 23                 9997 	inc	hl
   1E65 56                 9998 	ld	d,(hl)
   1E66 12                 9999 	ld	(de),a
                          10000 ;	game.c 1307
                          10001 ;	genLabel
   1E67                   10002 00164$:
                          10003 ;	game.c 1310
                          10004 ;	genPlus
                          10005 ;	AOP_STK for _move_character_sloc0_1_0
                          10006 ;	AOP_STK for _move_character_sloc5_1_0
                          10007 ;	genPlusIncr
                          10008 ;	Can't optimise plus by inc, falling back to the normal way
   1E67 F8 0D             10009 	lda	hl,13(sp)
   1E69 5E                10010 	ld	e,(hl)
   1E6A 23                10011 	inc	hl
   1E6B 56                10012 	ld	d,(hl)
   1E6C 21 0C 00          10013 	ld	hl,#0x000C
   1E6F 19                10014 	add	hl,de
   1E70 7D                10015 	ld	a,l
   1E71 54                10016 	ld	d,h
   1E72 F8 04             10017 	lda	hl,4(sp)
                          10018 ;	genPointerGet
                          10019 ;	AOP_STK for _move_character_sloc5_1_0
                          10020 ;	AOP_STK for _move_character_sloc3_1_0
   1E74 22                10021 	ld	(hl+),a
   1E75 72                10022 	ld	(hl),d
   1E76 5F                10023 	ld	e,a
   1E77 1A                10024 	ld	a,(de)
   1E78 23                10025 	inc	hl
   1E79 23                10026 	inc	hl
   1E7A 77                10027 	ld	(hl),a
   1E7B 13                10028 	inc	de
   1E7C 1A                10029 	ld	a,(de)
   1E7D 23                10030 	inc	hl
   1E7E 77                10031 	ld	(hl),a
                          10032 ;	genPlus
                          10033 ;	AOP_STK for _move_character_sloc3_1_0
                          10034 ;	AOP_STK for _move_character_sloc2_1_0
                          10035 ;	Can't optimise plus by inc, falling back to the normal way
   1E7F 11 65 18          10036 	ld	de,#_map
   1E82 2B                10037 	dec	hl
   1E83 2A                10038 	ld	a,(hl+)
   1E84 66                10039 	ld	h,(hl)
   1E85 6F                10040 	ld	l,a
   1E86 19                10041 	add	hl,de
   1E87 7D                10042 	ld	a,l
   1E88 54                10043 	ld	d,h
   1E89 F8 09             10044 	lda	hl,9(sp)
                          10045 ;	genPointerGet
                          10046 ;	AOP_STK for _move_character_sloc2_1_0
   1E8B 22                10047 	ld	(hl+),a
   1E8C 72                10048 	ld	(hl),d
   1E8D 5F                10049 	ld	e,a
   1E8E 1A                10050 	ld	a,(de)
                          10051 ;	genCmpEq
                          10052 ; genCmpEq: left 1, right 1, result 0
   1E8F 4F                10053 	ld	c,a
   1E90 FE 0E             10054 	cp	a,#0x0E
   1E92 C2 B6 1E          10055 	jp	nz,00166$
   1E95 18 03             10056 	jr	00260$
   1E97                   10057 00259$:
   1E97 C3 B6 1E          10058 	jp	00166$
   1E9A                   10059 00260$:
                          10060 ;	game.c 1311
                          10061 ;	genAssign (pointer)
                          10062 ;	AOP_STK for _move_character_sloc2_1_0
   1E9A F8 09             10063 	lda	hl,9(sp)
   1E9C 5E                10064 	ld	e,(hl)
   1E9D 23                10065 	inc	hl
   1E9E 56                10066 	ld	d,(hl)
   1E9F 3E 11             10067 	ld	a,#0x11
   1EA1 12                10068 	ld	(de),a
                          10069 ;	game.c 1312
                          10070 ;	genIpush
                          10071 ; _saveRegsForCall: sendSetSize: 0 deInUse: 0 bcInUse: 1 deSending: 0
   1EA2 C5                10072 	push	bc
   1EA3 21 65 18          10073 	ld	hl,#_map
   1EA6 E5                10074 	push	hl
                          10075 ;	genIpush
   1EA7 21 14 12          10076 	ld	hl,#0x1214
   1EAA E5                10077 	push	hl
                          10078 ;	genIpush
   1EAB 21 00 00          10079 	ld	hl,#0x0000
   1EAE E5                10080 	push	hl
                          10081 ;	genCall
   1EAF CD 00 00          10082 	call	_set_bkg_tiles
   1EB2 E8 06             10083 	lda	sp,6(sp)
   1EB4 E1                10084 	pop	hl
   1EB5 44                10085 	ld	b,h
                          10086 ;	genLabel
   1EB6                   10087 00166$:
                          10088 ;	game.c 1316
                          10089 ;	genIfx
   1EB6 AF                10090 	xor	a,a
   1EB7 B0                10091 	or	a,b
   1EB8 C2 79 1F          10092 	jp	nz,00178$
                          10093 ;	game.c 1317
                          10094 ;	genMinus
                          10095 ;	AOP_HL for _input_timer
   1EBB 21 63 18          10096 	ld	hl,#_input_timer
   1EBE 35                10097 	dec	(hl)
                          10098 ;	game.c 1319
                          10099 ;	genPlus
                          10100 ;	AOP_STK for _move_character_sloc0_1_0
                          10101 ;	genPlusIncr
   1EBF F8 0D             10102 	lda	hl,13(sp)
   1EC1 4E                10103 	ld	c,(hl)
   1EC2 23                10104 	inc	hl
   1EC3 46                10105 	ld	b,(hl)
   1EC4 03                10106 	inc	bc
                          10107 ;	genPointerGet
                          10108 ;	AOP_STK for _move_character_sloc7_1_0
   1EC5 0A                10109 	ld	a,(bc)
   1EC6 F8 02             10110 	lda	hl,2(sp)
   1EC8 77                10111 	ld	(hl),a
                          10112 ;	genPointerGet
                          10113 ;	AOP_STK for _move_character_sloc0_1_0
                          10114 ;	AOP_STK for _move_character_sloc6_1_0
   1EC9 F8 0D             10115 	lda	hl,13(sp)
   1ECB 5E                10116 	ld	e,(hl)
   1ECC 23                10117 	inc	hl
   1ECD 56                10118 	ld	d,(hl)
   1ECE 1A                10119 	ld	a,(de)
   1ECF F8 03             10120 	lda	hl,3(sp)
   1ED1 77                10121 	ld	(hl),a
                          10122 ;	genIpush
                          10123 ; _saveRegsForCall: sendSetSize: 0 deInUse: 0 bcInUse: 1 deSending: 0
   1ED2 C5                10124 	push	bc
                          10125 ;	AOP_STK for _move_character_sloc7_1_0
   1ED3 2B                10126 	dec	hl
   1ED4 7E                10127 	ld	a,(hl)
   1ED5 F5                10128 	push	af
   1ED6 33                10129 	inc	sp
                          10130 ;	genIpush
                          10131 ;	AOP_STK for _move_character_sloc6_1_0
   1ED7 23                10132 	inc	hl
   1ED8 7E                10133 	ld	a,(hl)
   1ED9 F5                10134 	push	af
   1EDA 33                10135 	inc	sp
                          10136 ;	genCall
   1EDB CD 11 11          10137 	call	__get_map_position_from_xy
                          10138 ;	AOP_STK for _move_character_sloc3_1_0
   1EDE F8 0C             10139 	lda	hl,12(sp)
   1EE0 72                10140 	ld	(hl),d
   1EE1 2B                10141 	dec	hl
   1EE2 73                10142 	ld	(hl),e
   1EE3 E8 02             10143 	lda	sp,2(sp)
   1EE5 C1                10144 	pop	bc
                          10145 ;	genAssign (pointer)
                          10146 ;	AOP_STK for _move_character_sloc5_1_0
                          10147 ;	AOP_STK for _move_character_sloc3_1_0
   1EE6 F8 04             10148 	lda	hl,4(sp)
   1EE8 5E                10149 	ld	e,(hl)
   1EE9 23                10150 	inc	hl
   1EEA 56                10151 	ld	d,(hl)
   1EEB 23                10152 	inc	hl
   1EEC 23                10153 	inc	hl
   1EED 7E                10154 	ld	a,(hl)
   1EEE 12                10155 	ld	(de),a
   1EEF 13                10156 	inc	de
   1EF0 23                10157 	inc	hl
   1EF1 7E                10158 	ld	a,(hl)
   1EF2 12                10159 	ld	(de),a
                          10160 ;	game.c 1320
                          10161 ;	genPointerGet
                          10162 ;	AOP_STK for _move_character_sloc5_1_0
                          10163 ;	AOP_STK for _move_character_sloc2_1_0
   1EF3 F8 04             10164 	lda	hl,4(sp)
   1EF5 5E                10165 	ld	e,(hl)
   1EF6 23                10166 	inc	hl
   1EF7 56                10167 	ld	d,(hl)
   1EF8 1A                10168 	ld	a,(de)
   1EF9 F8 09             10169 	lda	hl,9(sp)
   1EFB 77                10170 	ld	(hl),a
   1EFC 13                10171 	inc	de
   1EFD 1A                10172 	ld	a,(de)
   1EFE 23                10173 	inc	hl
   1EFF 77                10174 	ld	(hl),a
                          10175 ;	genPlus
                          10176 ;	AOP_STK for _move_character_sloc3_1_0
                          10177 ;	AOP_STK for _move_character_sloc5_1_0
                          10178 ;	Can't optimise plus by inc, falling back to the normal way
   1F00 11 65 18          10179 	ld	de,#_map
   1F03 F8 07             10180 	lda	hl,7(sp)
   1F05 2A                10181 	ld	a,(hl+)
   1F06 66                10182 	ld	h,(hl)
   1F07 6F                10183 	ld	l,a
   1F08 19                10184 	add	hl,de
   1F09 7D                10185 	ld	a,l
   1F0A 54                10186 	ld	d,h
   1F0B F8 04             10187 	lda	hl,4(sp)
                          10188 ;	genPointerGet
                          10189 ;	AOP_STK for _move_character_sloc5_1_0
                          10190 ;	AOP_STK for _move_character_sloc7_1_0
   1F0D 22                10191 	ld	(hl+),a
   1F0E 72                10192 	ld	(hl),d
   1F0F 5F                10193 	ld	e,a
   1F10 1A                10194 	ld	a,(de)
   1F11 F8 02             10195 	lda	hl,2(sp)
                          10196 ;	genCmpEq
                          10197 ;	AOP_STK for _move_character_sloc7_1_0
                          10198 ; genCmpEq: left 1, right 1, result 0
   1F13 77                10199 	ld      (hl),a
                          10200 ; Removed redundent load
   1F14 FE 0D             10201 	cp	a,#0x0D
   1F16 CA 3F 1F          10202 	jp	z,00170$
   1F19                   10203 00261$:
                          10204 ;	genPlus
                          10205 ;	AOP_STK for _move_character_sloc2_1_0
                          10206 ;	AOP_STK for _move_character_sloc5_1_0
                          10207 ;	Can't optimise plus by inc, falling back to the normal way
   1F19 11 65 18          10208 	ld	de,#_map
   1F1C F8 09             10209 	lda	hl,9(sp)
   1F1E 2A                10210 	ld	a,(hl+)
   1F1F 66                10211 	ld	h,(hl)
   1F20 6F                10212 	ld	l,a
   1F21 19                10213 	add	hl,de
   1F22 7D                10214 	ld	a,l
   1F23 54                10215 	ld	d,h
   1F24 F8 04             10216 	lda	hl,4(sp)
                          10217 ;	genPointerGet
                          10218 ;	AOP_STK for _move_character_sloc5_1_0
                          10219 ;	AOP_STK for _move_character_sloc7_1_0
   1F26 22                10220 	ld	(hl+),a
   1F27 72                10221 	ld	(hl),d
   1F28 5F                10222 	ld	e,a
   1F29 1A                10223 	ld	a,(de)
   1F2A F8 02             10224 	lda	hl,2(sp)
                          10225 ;	genCmpEq
                          10226 ;	AOP_STK for _move_character_sloc7_1_0
                          10227 ; genCmpEq: left 1, right 1, result 0
   1F2C 77                10228 	ld      (hl),a
                          10229 ; Removed redundent load
   1F2D FE 0E             10230 	cp	a,#0x0E
   1F2F CA 3F 1F          10231 	jp	z,00170$
   1F32                   10232 00262$:
                          10233 ;	genCmpEq
                          10234 ;	AOP_STK for _move_character_sloc7_1_0
                          10235 ; genCmpEq: left 1, right 1, result 0
   1F32 F8 02             10236 	lda	hl,2(sp)
   1F34 7E                10237 	ld	a,(hl)
   1F35 FE 11             10238 	cp	a,#0x11
   1F37 C2 79 1F          10239 	jp	nz,00178$
   1F3A 18 03             10240 	jr	00264$
   1F3C                   10241 00263$:
   1F3C C3 79 1F          10242 	jp	00178$
   1F3F                   10243 00264$:
                          10244 ;	genLabel
   1F3F                   10245 00170$:
                          10246 ;	game.c 1321
                          10247 ;	genPointerGet
                          10248 ;	AOP_STK for _move_character_sloc8_1_0
                          10249 ;	AOP_STK for _move_character_sloc7_1_0
   1F3F F8 00             10250 	lda	hl,0(sp)
   1F41 5E                10251 	ld	e,(hl)
   1F42 23                10252 	inc	hl
   1F43 56                10253 	ld	d,(hl)
   1F44 1A                10254 	ld	a,(de)
   1F45 23                10255 	inc	hl
   1F46 77                10256 	ld	(hl),a
                          10257 ;	genPointerGet
   1F47 0A                10258 	ld	a,(bc)
   1F48 4F                10259 	ld	c,a
                          10260 ;	genPointerGet
                          10261 ;	AOP_STK for _move_character_sloc0_1_0
   1F49 F8 0D             10262 	lda	hl,13(sp)
   1F4B 5E                10263 	ld	e,(hl)
   1F4C 23                10264 	inc	hl
   1F4D 56                10265 	ld	d,(hl)
   1F4E 1A                10266 	ld	a,(de)
   1F4F 47                10267 	ld	b,a
                          10268 ;	genIpush
                          10269 ; _saveRegsForCall: sendSetSize: 0 deInUse: 0 bcInUse: 0 deSending: 0
                          10270 ;	AOP_STK for _move_character_sloc7_1_0
   1F50 F8 02             10271 	lda	hl,2(sp)
   1F52 7E                10272 	ld	a,(hl)
   1F53 F5                10273 	push	af
   1F54 33                10274 	inc	sp
                          10275 ;	genIpush
   1F55 79                10276 	ld	a,c
   1F56 F5                10277 	push	af
   1F57 33                10278 	inc	sp
                          10279 ;	genIpush
   1F58 78                10280 	ld	a,b
   1F59 F5                10281 	push	af
   1F5A 33                10282 	inc	sp
                          10283 ;	genCall
   1F5B CD CA 13          10284 	call	_can_move
   1F5E 42                10285 	ld	b,d
   1F5F 4B                10286 	ld	c,e
   1F60 E8 03             10287 	lda	sp,3(sp)
                          10288 ;	genIfx
   1F62 79                10289 	ld	a,c
   1F63 B0                10290 	or	a,b
   1F64 CA 79 1F          10291 	jp	z,00178$
                          10292 ;	genCmpEq
                          10293 ;	AOP_HL for _input_timer
                          10294 ; genCmpEq: left 1, right 1, result 0
   1F67 21 63 18          10295 	ld	hl,#_input_timer
   1F6A 7E                10296 	ld	a,(hl)
   1F6B B7                10297 	or	a,a
   1F6C C2 79 1F          10298 	jp	nz,00178$
   1F6F 18 03             10299 	jr	00266$
   1F71                   10300 00265$:
   1F71 C3 79 1F          10301 	jp	00178$
   1F74                   10302 00266$:
                          10303 ;	game.c 1322
                          10304 ;	genAssign
                          10305 ;	AOP_HL for _input_timer
   1F74 21 63 18          10306 	ld	hl,#_input_timer
   1F77 36 04             10307 	ld	(hl),#0x04
                          10308 ;	genLabel
   1F79                   10309 00178$:
                          10310 ;	game.c 1329
                          10311 ;	genPlus
                          10312 ;	AOP_STK for _move_character_sloc0_1_0
                          10313 ;	genPlusIncr
                          10314 ;	Can't optimise plus by inc, falling back to the normal way
   1F79 F8 0D             10315 	lda	hl,13(sp)
   1F7B 5E                10316 	ld	e,(hl)
   1F7C 23                10317 	inc	hl
   1F7D 56                10318 	ld	d,(hl)
   1F7E 21 0C 00          10319 	ld	hl,#0x000C
   1F81 19                10320 	add	hl,de
   1F82 4D                10321 	ld	c,l
   1F83 44                10322 	ld	b,h
                          10323 ;	genPlus
                          10324 ;	AOP_STK for _move_character_sloc0_1_0
                          10325 ;	AOP_STK for _move_character_sloc8_1_0
                          10326 ;	genPlusIncr
                          10327 ;	Can't optimise plus by inc, falling back to the normal way
   1F84 F8 0D             10328 	lda	hl,13(sp)
   1F86 5E                10329 	ld	e,(hl)
   1F87 23                10330 	inc	hl
   1F88 56                10331 	ld	d,(hl)
   1F89 21 01 00          10332 	ld	hl,#0x0001
   1F8C 19                10333 	add	hl,de
   1F8D 7D                10334 	ld	a,l
   1F8E 54                10335 	ld	d,h
   1F8F F8 00             10336 	lda	hl,0(sp)
                          10337 ;	genPointerGet
                          10338 ;	AOP_STK for _move_character_sloc8_1_0
                          10339 ;	AOP_STK for _move_character_sloc7_1_0
   1F91 22                10340 	ld	(hl+),a
   1F92 72                10341 	ld	(hl),d
   1F93 5F                10342 	ld	e,a
   1F94 1A                10343 	ld	a,(de)
   1F95 23                10344 	inc	hl
   1F96 77                10345 	ld	(hl),a
                          10346 ;	genPointerGet
                          10347 ;	AOP_STK for _move_character_sloc0_1_0
                          10348 ;	AOP_STK for _move_character_sloc6_1_0
   1F97 F8 0D             10349 	lda	hl,13(sp)
   1F99 5E                10350 	ld	e,(hl)
   1F9A 23                10351 	inc	hl
   1F9B 56                10352 	ld	d,(hl)
   1F9C 1A                10353 	ld	a,(de)
   1F9D F8 03             10354 	lda	hl,3(sp)
   1F9F 77                10355 	ld	(hl),a
                          10356 ;	genIpush
                          10357 ; _saveRegsForCall: sendSetSize: 0 deInUse: 0 bcInUse: 1 deSending: 0
   1FA0 C5                10358 	push	bc
                          10359 ;	AOP_STK for _move_character_sloc7_1_0
   1FA1 2B                10360 	dec	hl
   1FA2 7E                10361 	ld	a,(hl)
   1FA3 F5                10362 	push	af
   1FA4 33                10363 	inc	sp
                          10364 ;	genIpush
                          10365 ;	AOP_STK for _move_character_sloc6_1_0
   1FA5 23                10366 	inc	hl
   1FA6 7E                10367 	ld	a,(hl)
   1FA7 F5                10368 	push	af
   1FA8 33                10369 	inc	sp
                          10370 ;	genCall
   1FA9 CD 11 11          10371 	call	__get_map_position_from_xy
                          10372 ;	AOP_STK for _move_character_sloc5_1_0
   1FAC F8 09             10373 	lda	hl,9(sp)
   1FAE 72                10374 	ld	(hl),d
   1FAF 2B                10375 	dec	hl
   1FB0 73                10376 	ld	(hl),e
   1FB1 E8 02             10377 	lda	sp,2(sp)
   1FB3 C1                10378 	pop	bc
                          10379 ;	genAssign (pointer)
                          10380 ;	AOP_STK for _move_character_sloc5_1_0
   1FB4 59                10381 	ld	e,c
   1FB5 50                10382 	ld	d,b
   1FB6 F8 04             10383 	lda	hl,4(sp)
   1FB8 7E                10384 	ld	a,(hl)
   1FB9 12                10385 	ld	(de),a
   1FBA 13                10386 	inc	de
   1FBB 23                10387 	inc	hl
   1FBC 7E                10388 	ld	a,(hl)
   1FBD 12                10389 	ld	(de),a
                          10390 ;	game.c 1330
                          10391 ;	genPointerGet
                          10392 ;	AOP_STK for _move_character_sloc8_1_0
   1FBE F8 00             10393 	lda	hl,0(sp)
   1FC0 5E                10394 	ld	e,(hl)
   1FC1 23                10395 	inc	hl
   1FC2 56                10396 	ld	d,(hl)
   1FC3 1A                10397 	ld	a,(de)
   1FC4 4F                10398 	ld	c,a
                          10399 ;	genPointerGet
                          10400 ;	AOP_STK for _move_character_sloc0_1_0
   1FC5 F8 0D             10401 	lda	hl,13(sp)
   1FC7 5E                10402 	ld	e,(hl)
   1FC8 23                10403 	inc	hl
   1FC9 56                10404 	ld	d,(hl)
   1FCA 1A                10405 	ld	a,(de)
   1FCB 47                10406 	ld	b,a
                          10407 ;	genPointerGet
                          10408 ;	AOP_STK for _move_character_sloc1_1_0
                          10409 ;	AOP_STK for _move_character_sloc8_1_0
   1FCC F8 0B             10410 	lda	hl,11(sp)
   1FCE 5E                10411 	ld	e,(hl)
   1FCF 23                10412 	inc	hl
   1FD0 56                10413 	ld	d,(hl)
   1FD1 1A                10414 	ld	a,(de)
   1FD2 F8 00             10415 	lda	hl,0(sp)
   1FD4 77                10416 	ld	(hl),a
                          10417 ;	genIpush
                          10418 ; _saveRegsForCall: sendSetSize: 0 deInUse: 0 bcInUse: 0 deSending: 0
   1FD5 79                10419 	ld	a,c
   1FD6 F5                10420 	push	af
   1FD7 33                10421 	inc	sp
                          10422 ;	genIpush
   1FD8 78                10423 	ld	a,b
   1FD9 F5                10424 	push	af
   1FDA 33                10425 	inc	sp
                          10426 ;	genIpush
                          10427 ;	AOP_STK for _move_character_sloc8_1_0
   1FDB 7E                10428 	ld	a,(hl)
   1FDC F5                10429 	push	af
   1FDD 33                10430 	inc	sp
                          10431 ;	genCall
   1FDE CD 00 00          10432 	call	_move_sprite
   1FE1 E8 03             10433 	lda	sp,3(sp)
                          10434 ;	genLabel
   1FE3                   10435 00179$:
                          10436 ;	genEndFunction
   1FE3 E8 0F             10437 	lda	sp,15(sp)
   1FE5 C9                10438 	ret
   1FE6                   10439 ___move_character_end:
                          10440 ;	game.c 1336
                          10441 ;	genLabel
                          10442 ;	genFunction
                          10443 ;	---------------------------------
                          10444 ; Function set_character_sprite
                          10445 ; ---------------------------------
   1FE6                   10446 ___set_character_sprite_start:
   1FE6                   10447 _set_character_sprite:
   1FE6 E8 F9             10448 	lda	sp,-7(sp)
                          10449 ;	game.c 1337
                          10450 ;	genAssign
                          10451 ;	AOP_STK for 
   1FE8 F8 09             10452 	lda	hl,9(sp)
   1FEA 4E                10453 	ld	c,(hl)
   1FEB 23                10454 	inc	hl
   1FEC 46                10455 	ld	b,(hl)
                          10456 ;	genPlus
                          10457 ;	AOP_STK for _set_character_sprite_sloc0_1_0
                          10458 ;	genPlusIncr
                          10459 ;	Can't optimise plus by inc, falling back to the normal way
   1FED 21 0B 00          10460 	ld	hl,#0x000B
   1FF0 09                10461 	add	hl,bc
   1FF1 7D                10462 	ld	a,l
   1FF2 54                10463 	ld	d,h
   1FF3 F8 05             10464 	lda	hl,5(sp)
                          10465 ;	genPointerGet
                          10466 ;	AOP_STK for _set_character_sprite_sloc0_1_0
                          10467 ;	AOP_STK for _set_character_sprite_sloc1_1_0
   1FF5 22                10468 	ld	(hl+),a
   1FF6 72                10469 	ld	(hl),d
   1FF7 5F                10470 	ld	e,a
   1FF8 1A                10471 	ld	a,(de)
   1FF9 2B                10472 	dec	hl
   1FFA 2B                10473 	dec	hl
   1FFB 77                10474 	ld	(hl),a
                          10475 ;	genCmpGt
                          10476 ;	AOP_STK for _set_character_sprite_sloc1_1_0
                          10477 ;	AOP_HL for _characters_available
   1FFC 21 62 18          10478 	ld	hl,#_characters_available
   1FFF 7E                10479 	ld	a,(hl)
   2000 F8 04             10480 	lda	hl,4(sp)
   2002 96                10481 	sub	a,(hl)
   2003 DA 7F 20          10482 	jp	c,00103$
                          10483 ;	game.c 1338
                          10484 ;	genPlus
                          10485 ;	AOP_STK for _set_character_sprite_sloc2_1_0
                          10486 ;	genPlusIncr
                          10487 ;	Can't optimise plus by inc, falling back to the normal way
   2006 21 02 00          10488 	ld	hl,#0x0002
   2009 09                10489 	add	hl,bc
   200A 7D                10490 	ld	a,l
   200B 54                10491 	ld	d,h
   200C F8 02             10492 	lda	hl,2(sp)
                          10493 ;	genPointerGet
                          10494 ;	AOP_STK for _set_character_sprite_sloc2_1_0
                          10495 ;	AOP_STK for _set_character_sprite_sloc3_1_0
   200E 22                10496 	ld	(hl+),a
   200F 72                10497 	ld	(hl),d
   2010 5F                10498 	ld	e,a
   2011 1A                10499 	ld	a,(de)
   2012 2B                10500 	dec	hl
   2013 2B                10501 	dec	hl
   2014 77                10502 	ld	(hl),a
                          10503 ;	genIpush
                          10504 ; _saveRegsForCall: sendSetSize: 0 deInUse: 0 bcInUse: 1 deSending: 0
   2015 C5                10505 	push	bc
                          10506 ;	AOP_STK for _set_character_sprite_sloc3_1_0
   2016 7E                10507 	ld	a,(hl)
   2017 F5                10508 	push	af
   2018 33                10509 	inc	sp
                          10510 ;	genIpush
                          10511 ;	AOP_STK for _set_character_sprite_sloc1_1_0
   2019 F8 07             10512 	lda	hl,7(sp)
   201B 7E                10513 	ld	a,(hl)
   201C F5                10514 	push	af
   201D 33                10515 	inc	sp
                          10516 ;	genCall
   201E CD 00 00          10517 	call	_set_sprite_tile
   2021 E8 02             10518 	lda	sp,2(sp)
   2023 C1                10519 	pop	bc
                          10520 ;	game.c 1339
                          10521 ;	genPlus
                          10522 ;	AOP_STK for _set_character_sprite_sloc2_1_0
                          10523 ;	genPlusIncr
                          10524 ;	Can't optimise plus by inc, falling back to the normal way
   2024 21 01 00          10525 	ld	hl,#0x0001
   2027 09                10526 	add	hl,bc
   2028 7D                10527 	ld	a,l
   2029 54                10528 	ld	d,h
   202A F8 02             10529 	lda	hl,2(sp)
                          10530 ;	genPointerGet
                          10531 ;	AOP_STK for _set_character_sprite_sloc2_1_0
                          10532 ;	AOP_STK for _set_character_sprite_sloc3_1_0
   202C 22                10533 	ld	(hl+),a
   202D 72                10534 	ld	(hl),d
   202E 5F                10535 	ld	e,a
   202F 1A                10536 	ld	a,(de)
   2030 2B                10537 	dec	hl
   2031 2B                10538 	dec	hl
   2032 77                10539 	ld	(hl),a
                          10540 ;	genPointerGet
                          10541 ;	AOP_STK for _set_character_sprite_sloc1_1_0
   2033 0A                10542 	ld	a,(bc)
   2034 F8 04             10543 	lda	hl,4(sp)
                          10544 ;	genPointerGet
                          10545 ;	AOP_STK for _set_character_sprite_sloc0_1_0
                          10546 ;	AOP_STK for _set_character_sprite_sloc4_1_0
   2036 22                10547 	ld	(hl+),a
   2037 5E                10548 	ld	e,(hl)
   2038 23                10549 	inc	hl
   2039 56                10550 	ld	d,(hl)
   203A 1A                10551 	ld	a,(de)
   203B F8 00             10552 	lda	hl,0(sp)
   203D 77                10553 	ld	(hl),a
                          10554 ;	genIpush
                          10555 ; _saveRegsForCall: sendSetSize: 0 deInUse: 0 bcInUse: 1 deSending: 0
   203E C5                10556 	push	bc
                          10557 ;	AOP_STK for _set_character_sprite_sloc3_1_0
   203F 23                10558 	inc	hl
   2040 7E                10559 	ld	a,(hl)
   2041 F5                10560 	push	af
   2042 33                10561 	inc	sp
                          10562 ;	genIpush
                          10563 ;	AOP_STK for _set_character_sprite_sloc1_1_0
   2043 F8 07             10564 	lda	hl,7(sp)
   2045 7E                10565 	ld	a,(hl)
   2046 F5                10566 	push	af
   2047 33                10567 	inc	sp
                          10568 ;	genIpush
                          10569 ;	AOP_STK for _set_character_sprite_sloc4_1_0
   2048 F8 04             10570 	lda	hl,4(sp)
   204A 7E                10571 	ld	a,(hl)
   204B F5                10572 	push	af
   204C 33                10573 	inc	sp
                          10574 ;	genCall
   204D CD 00 00          10575 	call	_move_sprite
   2050 E8 03             10576 	lda	sp,3(sp)
   2052 C1                10577 	pop	bc
                          10578 ;	game.c 1340
                          10579 ;	genPlus
                          10580 ;	AOP_STK for _set_character_sprite_sloc0_1_0
                          10581 ;	genPlusIncr
                          10582 ;	Can't optimise plus by inc, falling back to the normal way
   2053 21 0C 00          10583 	ld	hl,#0x000C
   2056 09                10584 	add	hl,bc
   2057 7D                10585 	ld	a,l
   2058 54                10586 	ld	d,h
   2059 F8 05             10587 	lda	hl,5(sp)
   205B 22                10588 	ld	(hl+),a
   205C 72                10589 	ld	(hl),d
                          10590 ;	genPointerGet
                          10591 ;	AOP_STK for _set_character_sprite_sloc2_1_0
                          10592 ;	AOP_STK for _set_character_sprite_sloc4_1_0
   205D F8 02             10593 	lda	hl,2(sp)
   205F 5E                10594 	ld	e,(hl)
   2060 23                10595 	inc	hl
   2061 56                10596 	ld	d,(hl)
   2062 1A                10597 	ld	a,(de)
   2063 F8 00             10598 	lda	hl,0(sp)
   2065 77                10599 	ld	(hl),a
                          10600 ;	genPointerGet
   2066 0A                10601 	ld	a,(bc)
   2067 4F                10602 	ld	c,a
                          10603 ;	genIpush
                          10604 ; _saveRegsForCall: sendSetSize: 0 deInUse: 0 bcInUse: 0 deSending: 0
                          10605 ;	AOP_STK for _set_character_sprite_sloc4_1_0
   2068 7E                10606 	ld	a,(hl)
   2069 F5                10607 	push	af
   206A 33                10608 	inc	sp
                          10609 ;	genIpush
   206B 79                10610 	ld	a,c
   206C F5                10611 	push	af
   206D 33                10612 	inc	sp
                          10613 ;	genCall
   206E CD 11 11          10614 	call	__get_map_position_from_xy
   2071 42                10615 	ld	b,d
   2072 4B                10616 	ld	c,e
   2073 E8 02             10617 	lda	sp,2(sp)
                          10618 ;	genAssign (pointer)
                          10619 ;	AOP_STK for _set_character_sprite_sloc0_1_0
   2075 F8 05             10620 	lda	hl,5(sp)
   2077 5E                10621 	ld	e,(hl)
   2078 23                10622 	inc	hl
   2079 56                10623 	ld	d,(hl)
   207A 79                10624 	ld	a,c
   207B 12                10625 	ld	(de),a
   207C 13                10626 	inc	de
   207D 78                10627 	ld	a,b
   207E 12                10628 	ld	(de),a
                          10629 ;	genLabel
   207F                   10630 00103$:
                          10631 ;	genEndFunction
   207F E8 07             10632 	lda	sp,7(sp)
   2081 C9                10633 	ret
   2082                   10634 ___set_character_sprite_end:
                          10635 	.area _CODE
ASxxxx Assembler V01.75  (GameBoy Z80-like CPU), page 1.

Symbol Table

  1 _Characters                        0000 GR
  1 _Map1                              01F0 GR
  1 _Map10                             0D9E GR
  1 _Map2                              0358 GR
  1 _Map3                              04C0 GR
  1 _Map4                              0628 GR
  1 _Map5                              0790 GR
  1 _Map6                              08F8 GR
  1 _Map7                              0966 GR
  1 _Map8                              0ACE GR
  1 _Map9                              0C36 GR
  1 _MapTest                           0F60 GR
  0 ____get_map_position_from_xy_end   116B R
  0 ____get_map_position_from_xy_sta   1111 R
  0 ____get_next_map_position_end      0F64 R
  0 ____get_next_map_position_start    0EB0 R
  0 ___can_move_end                    14B3 R
  0 ___can_move_start                  13CA R
  0 ___can_move_to_map_pos_end         13CA R
  0 ___can_move_to_map_pos_start       1301 R
  0 ___change_char_end                 05EA R
  0 ___change_char_start               04D1 R
  0 ___copy_map_end                    07F5 R
  0 ___copy_map_start                  0734 R
  0 ___dog1_power_apply_end            1111 R
  0 ___dog1_power_apply_start          0F64 R
  0 ___dog1_power_end                  0EB0 R
  0 ___dog1_power_start                0C19 R
  0 ___got_door_end                    0B8D R
  0 ___got_door_start                  09A3 R
  0 ___got_key_end                     09A3 R
  0 ___got_key_start                   08F6 R
  0 ___helper_copy_map_end             0672 R
  0 ___helper_copy_map_smaller_end     0734 R
  0 ___helper_copy_map_smaller_start   0672 R
  0 ___helper_copy_map_start           0640 R
  0 ___init_end                        010F R
  0 ___init_start                      0051 R
  0 ___instanciate_chars_end           08F6 R
  0 ___instanciate_chars_start         080D R
  0 ___is_ded_end                      0C19 R
  0 ___is_ded_start                    0B8D R
  0 ___main_end                        0048 R
  0 ___main_start                      001B R
  0 ___map_enviroment_tiles_end        04D1 R
  0 ___map_enviroment_tiles_start      0224 R
  0 ___map_init_end                    080D R
  0 ___map_init_start                  07F5 R
  0 ___map_loop_end                    0640 R
  0 ___map_loop_start                  05EA R
  0 ___move_character_end              1FE6 R
  0 ___move_character_start            1659 R
  0 ___performantDelay_end             0016 R
  0 ___performantDelay_start           0000 R
  0 ___player_input_end                1301 R
  0 ___player_input_start              116B R
  0 ___rotate_player_end               1659 R
  0 ___rotate_player_start             14B3 R
  0 ___set_character_sprite_end        2082 R
  0 ___set_character_sprite_start      1FE6 R
  0 ___spread_fire_end                 0224 R
  0 ___spread_fire_start               010F R
  0 ___timers_end                      001B R
  0 ___timers_start                    0016 R
    __divuint_rrx_s                    **** GX
  0 __get_map_position_from_xy         1111 GR
  0 __get_next_map_position            0EB0 GR
    __initrleblock                     **** GX
    __moduchar_rrx_s                   **** GX
    __moduint_rrx_s                    **** GX
  0 __str_0                            0048 R
  1 _bunny                             19CD GR
  0 _can_move                          13CA GR
  0 _can_move_to_map_pos               1301 GR
  1 _cat                               19F7 GR
  0 _change_char                       04D1 GR
  1 _characters_available              1862 GR
  0 _copy_map                          0734 GR
  1 _current_map                       1864 GR
  1 _dog1                              19DB GR
  0 _dog1_power                        0C19 GR
  0 _dog1_power_apply                  0F64 GR
  1 _dog2                              19E9 GR
  0 _got_door                          09A3 GR
  0 _got_key                           08F6 GR
  0 _helper_copy_map                   0640 GR
  0 _helper_copy_map_smaller           0672 GR
  1 _horse                             1A05 GR
  0 _init                              0051 GR
  1 _input_timer                       1863 GR
  0 _instanciate_chars                 080D GR
  0 _is_ded                            0B8D GR
  1 _item1                             1A1B GR
  1 _item2                             1A21 GR
  1 _item3                             1A27 GR
    _joypad                            **** GX
  1 _key                               1A15 GR
  0 _main                              001B GR
  1 _map                               1865 GR
  1 _mapTestSmallGrid                  0F06 GR
  0 _map_enviroment_tiles              0224 GR
  0 _map_init                          07F5 GR
  0 _map_loop                          05EA GR
  0 _move_character                    1659 GR
    _move_sprite                       **** GX
  0 _performantDelay                   0000 GR
  1 _player                            1A13 GR
  0 _player_input                      116B GR
    _printf                            **** GX
  0 _rotate_player                     14B3 GR
  1 _running                           1860 GR
    _set_bkg_data                      **** GX
    _set_bkg_palette                   **** GX
    _set_bkg_tiles                     **** GX
  0 _set_character_sprite              1FE6 GR
    _set_sprite_data                   **** GX
    _set_sprite_palette                **** GX
    _set_sprite_prop                   **** GX
    _set_sprite_tile                   **** GX
  0 _spread_fire                       010F GR
  1 _spritePalette                     1858 GR
  1 _sprites_park                      10C8 GR
  1 _timer                             1861 GR
  0 _timers                            0016 GR
    _wait_vbl_done                     **** GX

ASxxxx Assembler V01.75  (GameBoy Z80-like CPU), page 2.

Area Table

   0 _CODE                              size 2082   flags 0
   1 _DATA                              size 1A2D   flags 0
   2 _OVERLAY                           size    0   flags 0
   3 _ISEG                              size    0   flags 0
   4 _BSEG                              size    0   flags 0
   5 _XSEG                              size    0   flags 0
   6 _GSINIT                            size 10C6   flags 0
   7 _GSFINAL                           size    0   flags 0
   8 _HOME                              size    0   flags 0
